Archive member included to satisfy reference by file (symbol)

c:/Espressif/ESP8266_SDK/lib\libmain.a(debug-vector.o)
                              (_DebugExceptionVector)
c:/Espressif/ESP8266_SDK/lib\libmain.a(double-vector.o)
                              (_DoubleExceptionVector)
c:/Espressif/ESP8266_SDK/lib\libmain.a(kernel-vector.o)
                              (_KernelExceptionVector)
c:/Espressif/ESP8266_SDK/lib\libmain.a(nmi-vector.o)
                              (_NMIExceptionVector)
c:/Espressif/ESP8266_SDK/lib\libmain.a(user-vector.o)
                              (_UserExceptionVector)
c:/Espressif/ESP8266_SDK/lib\libmain.a(vector.o)
                              (call_user_start)
c:/Espressif/ESP8266_SDK/lib\libmain.a(app_main.o)
                              c:/Espressif/ESP8266_SDK/lib\libmain.a(nmi-vector.o) (NMI_Handler)
c:/Espressif/ESP8266_SDK/lib\libmain.a(ets_timer.o)
                              c:/Espressif/ESP8266_SDK/lib\libmain.a(app_main.o) (ets_timer_setfn)
c:/Espressif/ESP8266_SDK/lib\libmain.a(mem_manager.o)
                              c:/Espressif/ESP8266_SDK/lib\libmain.a(app_main.o) (vPortFree)
c:/Espressif/ESP8266_SDK/lib\libmain.a(spi_flash.o)
                              c:/Espressif/ESP8266_SDK/lib\libmain.a(app_main.o) (spi_flash_get_id)
c:/Espressif/ESP8266_SDK/lib\libmain.a(user_interface.o)
                              c:/Espressif/ESP8266_SDK/lib\libmain.a(app_main.o) (done_cb)
c:/Espressif/ESP8266_SDK/lib\libmain.a(eagle_lib.o)
                              c:/Espressif/ESP8266_SDK/lib\libmain.a(user_interface.o) (ets_sprintf)
c:/Espressif/ESP8266_SDK/lib\libmain.a(eagle_lwip_if.o)
                              c:/Espressif/ESP8266_SDK/lib\libmain.a(user_interface.o) (hostname)
build/app_app.a(user_main.o)  c:/Espressif/ESP8266_SDK/lib\libmain.a(app_main.o) (user_rf_cal_sector_set)
build/app_app.a(wifi_connector.o)
                              build/app_app.a(user_main.o) (WifiConnectorInit())
build/app_app.a(userconfig.o)
                              build/app_app.a(wifi_connector.o) (g_Eeprom_Params)
build/app_app.a(uart.o)       build/app_app.a(user_main.o) (uart_init)
build/app_app.a(uartproto.o)  build/app_app.a(user_main.o) (UartTaskInit())
build/app_app.a(cpp_req.o)    build/app_app.a(user_main.o) (do_global_ctors())
build/app_app.a(sfifo.o)      build/app_app.a(wifi_connector.o) (fifo_init(fifo_t*, char*, int))
c:/espressif/xtensa-lx106-elf/bin/../lib/gcc/xtensa-lx106-elf/5.2.0/../../../../xtensa-lx106-elf/lib\libc.a(lib_a-memcpy.o)
                              build/app_app.a(wifi_connector.o) (memcpy)
c:/espressif/xtensa-lx106-elf/bin/../lib/gcc/xtensa-lx106-elf/5.2.0/../../../../xtensa-lx106-elf/lib\libc.a(lib_a-stpcpy.o)
                              build/app_app.a(wifi_connector.o) (stpcpy)
c:/espressif/xtensa-lx106-elf/bin/../lib/gcc/xtensa-lx106-elf/5.2.0/../../../../xtensa-lx106-elf/lib\libc.a(lib_a-strlen.o)
                              build/app_app.a(wifi_connector.o) (strlen)
c:/espressif/xtensa-lx106-elf/bin/../lib/gcc/xtensa-lx106-elf/5.2.0/../../../../xtensa-lx106-elf/lib\libhal.a(int_asm--set_intclear.o)
                              c:/Espressif/ESP8266_SDK/lib\libmain.a(app_main.o) (xthal_set_intclear)
c:/Espressif/ESP8266_SDK/lib\libphy.a(phy.o)
                              c:/Espressif/ESP8266_SDK/lib\libmain.a(app_main.o) (phy_enable_agc)
c:/Espressif/ESP8266_SDK/lib\libphy.a(phy_chip_v6_ana.o)
                              c:/Espressif/ESP8266_SDK/lib\libmain.a(app_main.o) (chip_v6_set_chan_offset)
c:/Espressif/ESP8266_SDK/lib\libphy.a(phy_chip_v6.o)
                              c:/Espressif/ESP8266_SDK/lib\libphy.a(phy_chip_v6_ana.o) (g_phyFuns)
c:/Espressif/ESP8266_SDK/lib\libphy.a(phy_chip_v6_cal.o)
                              c:/Espressif/ESP8266_SDK/lib\libphy.a(phy_chip_v6.o) (phy_tx_pwr_error)
c:/Espressif/ESP8266_SDK/lib\libphy.a(phy_chip_v6_unused.o)
                              c:/Espressif/ESP8266_SDK/lib\libphy.a(phy_chip_v6.o) (chip_v6_set_sense)
c:/Espressif/ESP8266_SDK/lib\libphy.a(phy_sleep.o)
                              c:/Espressif/ESP8266_SDK/lib\libphy.a(phy_chip_v6.o) (pm_set_sleep_cycles)
c:/Espressif/ESP8266_SDK/lib\libpp.a(if_hwctrl.o)
                              c:/Espressif/ESP8266_SDK/lib\libmain.a(user_interface.o) (ic_set_vif)
c:/Espressif/ESP8266_SDK/lib\libpp.a(lmac.o)
                              c:/Espressif/ESP8266_SDK/lib\libmain.a(app_main.o) (lmacInit)
c:/Espressif/ESP8266_SDK/lib\libpp.a(pm.o)
                              c:/Espressif/ESP8266_SDK/lib\libmain.a(user_interface.o) (pm_set_gpio_wakeup_pin)
c:/Espressif/ESP8266_SDK/lib\libpp.a(pm_for_bcn_only_mode.o)
                              c:/Espressif/ESP8266_SDK/lib\libpp.a(pm.o) (fpm_is_open)
c:/Espressif/ESP8266_SDK/lib\libpp.a(pp.o)
                              c:/Espressif/ESP8266_SDK/lib\libpp.a(pm.o) (pend_flag_noise_check)
c:/Espressif/ESP8266_SDK/lib\libpp.a(rate_control.o)
                              c:/Espressif/ESP8266_SDK/lib\libpp.a(lmac.o) (RC_SetBasicRate)
c:/Espressif/ESP8266_SDK/lib\libpp.a(trc.o)
                              c:/Espressif/ESP8266_SDK/lib\libmain.a(user_interface.o) (rc_set_rate_limit_id)
c:/Espressif/ESP8266_SDK/lib\libpp.a(wdev.o)
                              c:/Espressif/ESP8266_SDK/lib\libpp.a(pp.o) (wDevCtrl)
c:/Espressif/ESP8266_SDK/lib\libpp.a(esf_buf.o)
                              c:/Espressif/ESP8266_SDK/lib\libpp.a(wdev.o) (esf_rx_buf_alloc)
c:/Espressif/ESP8266_SDK/lib\libnet80211.a(ieee80211.o)
                              c:/Espressif/ESP8266_SDK/lib\libmain.a(app_main.o) (g_ic)
c:/Espressif/ESP8266_SDK/lib\libnet80211.a(ieee80211_crypto.o)
                              c:/Espressif/ESP8266_SDK/lib\libnet80211.a(ieee80211.o) (ieee80211_crypto_attach)
c:/Espressif/ESP8266_SDK/lib\libnet80211.a(ieee80211_ets.o)
                              c:/Espressif/ESP8266_SDK/lib\libpp.a(pm.o) (ieee80211_getmgtframe)
c:/Espressif/ESP8266_SDK/lib\libnet80211.a(ieee80211_hostap.o)
                              c:/Espressif/ESP8266_SDK/lib\libmain.a(user_interface.o) (BcnEb_update)
c:/Espressif/ESP8266_SDK/lib\libnet80211.a(ieee80211_ht.o)
                              c:/Espressif/ESP8266_SDK/lib\libmain.a(user_interface.o) (ieee80211_ht_attach)
c:/Espressif/ESP8266_SDK/lib\libnet80211.a(ieee80211_input.o)
                              c:/Espressif/ESP8266_SDK/lib\libnet80211.a(ieee80211_hostap.o) (ieee80211_decap)
c:/Espressif/ESP8266_SDK/lib\libnet80211.a(ieee80211_mesh_quick.o)
                              c:/Espressif/ESP8266_SDK/lib\libnet80211.a(ieee80211_hostap.o) (ieee80211_mesh_quick_get)
c:/Espressif/ESP8266_SDK/lib\libnet80211.a(ieee80211_output.o)
                              c:/Espressif/ESP8266_SDK/lib\libmain.a(eagle_lwip_if.o) (ieee80211_output_pbuf)
c:/Espressif/ESP8266_SDK/lib\libnet80211.a(ieee80211_phy.o)
                              c:/Espressif/ESP8266_SDK/lib\libmain.a(app_main.o) (ieee80211_phy_init)
c:/Espressif/ESP8266_SDK/lib\libnet80211.a(ieee80211_power.o)
                              c:/Espressif/ESP8266_SDK/lib\libnet80211.a(ieee80211_hostap.o) (ieee80211_psq_init)
c:/Espressif/ESP8266_SDK/lib\libnet80211.a(ieee80211_proto.o)
                              c:/Espressif/ESP8266_SDK/lib\libnet80211.a(ieee80211.o) (ieee80211_proto_attach)
c:/Espressif/ESP8266_SDK/lib\libnet80211.a(ieee80211_regdomain.o)
                              c:/Espressif/ESP8266_SDK/lib\libnet80211.a(ieee80211_output.o) (ieee80211_alloc_countryie)
c:/Espressif/ESP8266_SDK/lib\libnet80211.a(ieee80211_rfid.o)
                              c:/Espressif/ESP8266_SDK/lib\libmain.a(user_interface.o) (ieee80211_rfid_locp_recv_open)
c:/Espressif/ESP8266_SDK/lib\libnet80211.a(ieee80211_scan.o)
                              c:/Espressif/ESP8266_SDK/lib\libpp.a(pp.o) (gScanStruct)
c:/Espressif/ESP8266_SDK/lib\libnet80211.a(ieee80211_sta.o)
                              c:/Espressif/ESP8266_SDK/lib\libmain.a(user_interface.o) (ieee80211_sta_new_state)
c:/Espressif/ESP8266_SDK/lib\libnet80211.a(wl_chm.o)
                              c:/Espressif/ESP8266_SDK/lib\libnet80211.a(ieee80211.o) (chm_init)
c:/Espressif/ESP8266_SDK/lib\libnet80211.a(wl_cnx.o)
                              c:/Espressif/ESP8266_SDK/lib\libmain.a(user_interface.o) (sta_con_timer)
c:/Espressif/ESP8266_SDK/lib\libnet80211.a(ieee80211_action.o)
                              c:/Espressif/ESP8266_SDK/lib\libnet80211.a(ieee80211_ht.o) (ieee80211_send_action_register)
c:/Espressif/ESP8266_SDK/lib\libnet80211.a(ieee80211_action_vendor.o)
                              c:/Espressif/ESP8266_SDK/lib\libnet80211.a(ieee80211.o) (ieee80211_action_vendor_spec_attach)
c:/Espressif/ESP8266_SDK/lib\libnet80211.a(ieee80211_crypto_ccmp.o)
                              c:/Espressif/ESP8266_SDK/lib\libnet80211.a(ieee80211_input.o) (ccmp)
c:/Espressif/ESP8266_SDK/lib\libnet80211.a(ieee80211_ie_vendor.o)
                              c:/Espressif/ESP8266_SDK/lib\libnet80211.a(ieee80211_mesh_quick.o) (ieee80211_add_ie_vendor_esp_mesh_assoc)
c:/Espressif/ESP8266_SDK/lib\liblwip.a(dhcp.o)
                              c:/Espressif/ESP8266_SDK/lib\libnet80211.a(wl_cnx.o) (dhcp_release)
c:/Espressif/ESP8266_SDK/lib\liblwip.a(dhcpserver.o)
                              c:/Espressif/ESP8266_SDK/lib\libmain.a(user_interface.o) (dhcps_start)
c:/Espressif/ESP8266_SDK/lib\liblwip.a(dns.o)
                              c:/Espressif/ESP8266_SDK/lib\liblwip.a(dhcp.o) (dns_setserver)
c:/Espressif/ESP8266_SDK/lib\liblwip.a(espconn.o)
                              build/app_app.a(wifi_connector.o) (espconn_create)
c:/Espressif/ESP8266_SDK/lib\liblwip.a(espconn_tcp.o)
                              c:/Espressif/ESP8266_SDK/lib\liblwip.a(espconn.o) (espconn_tcp_disconnect)
c:/Espressif/ESP8266_SDK/lib\liblwip.a(espconn_udp.o)
                              c:/Espressif/ESP8266_SDK/lib\liblwip.a(espconn.o) (espconn_udp_sent)
c:/Espressif/ESP8266_SDK/lib\liblwip.a(etharp.o)
                              c:/Espressif/ESP8266_SDK/lib\libmain.a(user_interface.o) (ethbroadcast)
c:/Espressif/ESP8266_SDK/lib\liblwip.a(igmp.o)
                              c:/Espressif/ESP8266_SDK/lib\liblwip.a(espconn_udp.o) (igmp_joingroup)
c:/Espressif/ESP8266_SDK/lib\liblwip.a(inet_chksum.o)
                              c:/Espressif/ESP8266_SDK/lib\liblwip.a(igmp.o) (inet_chksum)
c:/Espressif/ESP8266_SDK/lib\liblwip.a(init.o)
                              c:/Espressif/ESP8266_SDK/lib\libmain.a(app_main.o) (lwip_init)
c:/Espressif/ESP8266_SDK/lib\liblwip.a(ip_addr.o)
                              c:/Espressif/ESP8266_SDK/lib\liblwip.a(dhcp.o) (ip_addr_any)
c:/Espressif/ESP8266_SDK/lib\liblwip.a(ip.o)
                              c:/Espressif/ESP8266_SDK/lib\liblwip.a(etharp.o) (ip_input)
c:/Espressif/ESP8266_SDK/lib\liblwip.a(memp.o)
                              c:/Espressif/ESP8266_SDK/lib\liblwip.a(etharp.o) (memp_sizes)
c:/Espressif/ESP8266_SDK/lib\liblwip.a(netif.o)
                              c:/Espressif/ESP8266_SDK/lib\liblwip.a(dhcp.o) (netif_list)
c:/Espressif/ESP8266_SDK/lib\liblwip.a(pbuf.o)
                              c:/Espressif/ESP8266_SDK/lib\libnet80211.a(ieee80211_hostap.o) (pbuf_alloc)
c:/Espressif/ESP8266_SDK/lib\liblwip.a(raw.o)
                              c:/Espressif/ESP8266_SDK/lib\liblwip.a(ip.o) (raw_input)
c:/Espressif/ESP8266_SDK/lib\liblwip.a(sntp.o)
                              build/app_app.a(wifi_connector.o) (sntp_get_current_timestamp)
c:/Espressif/ESP8266_SDK/lib\liblwip.a(tcp_in.o)
                              c:/Espressif/ESP8266_SDK/lib\liblwip.a(ip.o) (tcp_input)
c:/Espressif/ESP8266_SDK/lib\liblwip.a(tcp.o)
                              c:/Espressif/ESP8266_SDK/lib\liblwip.a(espconn_tcp.o) (tcp_active_pcbs)
c:/Espressif/ESP8266_SDK/lib\liblwip.a(tcp_out.o)
                              c:/Espressif/ESP8266_SDK/lib\liblwip.a(tcp.o) (tcp_send_fin)
c:/Espressif/ESP8266_SDK/lib\liblwip.a(timers.o)
                              c:/Espressif/ESP8266_SDK/lib\liblwip.a(sntp.o) (sys_timeout)
c:/Espressif/ESP8266_SDK/lib\liblwip.a(udp.o)
                              c:/Espressif/ESP8266_SDK/lib\liblwip.a(ip.o) (udp_input)
c:/Espressif/ESP8266_SDK/lib\liblwip.a(espconn_buf.o)
                              c:/Espressif/ESP8266_SDK/lib\liblwip.a(espconn_tcp.o) (ringbuf_new)
c:/Espressif/ESP8266_SDK/lib\liblwip.a(icmp.o)
                              c:/Espressif/ESP8266_SDK/lib\liblwip.a(ip.o) (icmp_input)
c:/Espressif/ESP8266_SDK/lib\libwpa.a(ap_config.o)
                              c:/Espressif/ESP8266_SDK/lib\libnet80211.a(ieee80211_hostap.o) (hostapd_setup_wpa_psk)
c:/Espressif/ESP8266_SDK/lib\libwpa.a(common.o)
                              c:/Espressif/ESP8266_SDK/lib\libmain.a(user_interface.o) (hexstr2bin)
c:/Espressif/ESP8266_SDK/lib\libwpa.a(os_xtensa.o)
                              c:/Espressif/ESP8266_SDK/lib\libwpa.a(common.o) (os_get_time)
c:/Espressif/ESP8266_SDK/lib\libwpa.a(wpa_auth.o)
                              c:/Espressif/ESP8266_SDK/lib\libnet80211.a(ieee80211_hostap.o) (wpa_init)
c:/Espressif/ESP8266_SDK/lib\libwpa.a(wpa_auth_ie.o)
                              c:/Espressif/ESP8266_SDK/lib\libwpa.a(wpa_auth.o) (wpa_auth_gen_wpa_ie)
c:/Espressif/ESP8266_SDK/lib\libwpa.a(wpa.o)
                              c:/Espressif/ESP8266_SDK/lib\libnet80211.a(ieee80211_sta.o) (wpa_sm_rx_eapol)
c:/Espressif/ESP8266_SDK/lib\libwpa.a(wpa_common.o)
                              c:/Espressif/ESP8266_SDK/lib\libwpa.a(wpa_auth_ie.o) (wpa_parse_wpa_ie_rsn)
c:/Espressif/ESP8266_SDK/lib\libwpa.a(wpa_debug.o)
                              c:/Espressif/ESP8266_SDK/lib\libwpa.a(wpa_auth.o) (eloop_cancel_timeout)
c:/Espressif/ESP8266_SDK/lib\libwpa.a(wpa_ie.o)
                              c:/Espressif/ESP8266_SDK/lib\libnet80211.a(ieee80211_scan.o) (wpa_parse_wpa_ie)
c:/Espressif/ESP8266_SDK/lib\libwpa.a(wpa_main.o)
                              c:/Espressif/ESP8266_SDK/lib\libnet80211.a(wl_cnx.o) (ppInstallKey)
c:/Espressif/ESP8266_SDK/lib\libwpa.a(wpas_glue.o)
                              c:/Espressif/ESP8266_SDK/lib\libwpa.a(wpa.o) (wpa_sm_alloc_eapol)
c:/Espressif/ESP8266_SDK/lib\libmain.a(time.o)
                              c:/Espressif/ESP8266_SDK/lib\liblwip.a(sntp.o) (sntp_update_rtc)
c:/Espressif/ESP8266_SDK/lib\libssl.a(espconn_secure.o)
                              build/app_app.a(wifi_connector.o) (espconn_secure_connect)
c:/Espressif/ESP8266_SDK/lib\libssl.a(espconn_ssl.o)
                              c:/Espressif/ESP8266_SDK/lib\libssl.a(espconn_secure.o) (espconn_ssl_sent)
c:/Espressif/ESP8266_SDK/lib\libssl.a(ssl_loader.o)
                              c:/Espressif/ESP8266_SDK/lib\libssl.a(espconn_ssl.o) (ssl_obj_load)
c:/Espressif/ESP8266_SDK/lib\libssl.a(ssl_md5.o)
                              c:/Espressif/ESP8266_SDK/lib\libssl.a(ssl_loader.o) (MD5_Init)
c:/Espressif/ESP8266_SDK/lib\libssl.a(ssl_tls1_clnt.o)
                              c:/Espressif/ESP8266_SDK/lib\libssl.a(espconn_ssl.o) (SSLClient_new)
c:/Espressif/ESP8266_SDK/lib\libssl.a(ssl_tls1.o)
                              c:/Espressif/ESP8266_SDK/lib\libssl.a(ssl_tls1_clnt.o) (ssl_prot_prefs)
c:/Espressif/ESP8266_SDK/lib\libssl.a(ssl_tls1_svr.o)
                              c:/Espressif/ESP8266_SDK/lib\libssl.a(espconn_ssl.o) (sslserver_new)
c:/Espressif/ESP8266_SDK/lib\libssl.a(ssl_x509.o)
                              c:/Espressif/ESP8266_SDK/lib\libssl.a(ssl_tls1.o) (x509_new)
c:/Espressif/ESP8266_SDK/lib\libssl.a(sha256.o)
                              c:/Espressif/ESP8266_SDK/lib\libssl.a(ssl_x509.o) (SHA256_Init)
c:/Espressif/ESP8266_SDK/lib\libssl.a(sha384.o)
                              c:/Espressif/ESP8266_SDK/lib\libssl.a(ssl_x509.o) (SHA384_Init)
c:/Espressif/ESP8266_SDK/lib\libssl.a(sha512.o)
                              c:/Espressif/ESP8266_SDK/lib\libssl.a(ssl_x509.o) (SHA512_Init)
c:/Espressif/ESP8266_SDK/lib\libssl.a(ssl_aes.o)
                              c:/Espressif/ESP8266_SDK/lib\libssl.a(ssl_loader.o) (AES_set_key)
c:/Espressif/ESP8266_SDK/lib\libssl.a(ssl_asn1.o)
                              c:/Espressif/ESP8266_SDK/lib\libssl.a(ssl_x509.o) (get_asn1_length)
c:/Espressif/ESP8266_SDK/lib\libssl.a(ssl_bigint.o)
                              c:/Espressif/ESP8266_SDK/lib\libssl.a(ssl_x509.o) (bi_free)
c:/Espressif/ESP8266_SDK/lib\libssl.a(ssl_crypto_misc.o)
                              c:/Espressif/ESP8266_SDK/lib\libssl.a(ssl_loader.o) (get_file)
c:/Espressif/ESP8266_SDK/lib\libssl.a(ssl_hmac.o)
                              c:/Espressif/ESP8266_SDK/lib\libssl.a(ssl_tls1.o) (ssl_hmac_md5)
c:/Espressif/ESP8266_SDK/lib\libssl.a(ssl_rc4.o)
                              c:/Espressif/ESP8266_SDK/lib\libssl.a(ssl_tls1.o) (RC4_setup)
c:/Espressif/ESP8266_SDK/lib\libssl.a(ssl_rsa.o)
                              c:/Espressif/ESP8266_SDK/lib\libssl.a(ssl_asn1.o) (RSA_priv_key_new)
c:/Espressif/ESP8266_SDK/lib\libssl.a(ssl_sha1.o)
                              c:/Espressif/ESP8266_SDK/lib\libssl.a(ssl_tls1.o) (SHA1_Init)
c:/Espressif/ESP8266_SDK/lib\libcrypto.a(aes-wrap.o)
                              c:/Espressif/ESP8266_SDK/lib\libwpa.a(wpa_auth.o) (aes_wrap)
c:/Espressif/ESP8266_SDK/lib\libcrypto.a(aes-internal-enc.o)
                              c:/Espressif/ESP8266_SDK/lib\libcrypto.a(aes-wrap.o) (aes_encrypt_init)
c:/Espressif/ESP8266_SDK/lib\libcrypto.a(aes-internal.o)
                              c:/Espressif/ESP8266_SDK/lib\libcrypto.a(aes-internal-enc.o) (rijndaelKeySetupEnc)
c:/espressif/xtensa-lx106-elf/bin/../lib/gcc/xtensa-lx106-elf/5.2.0/../../../../xtensa-lx106-elf/lib\libc.a(lib_a-memchr.o)
                              c:/Espressif/ESP8266_SDK/lib\liblwip.a(espconn_buf.o) (memchr)
c:/espressif/xtensa-lx106-elf/bin/../lib/gcc/xtensa-lx106-elf/5.2.0/../../../../xtensa-lx106-elf/lib\libc.a(lib_a-memcmp.o)
                              c:/Espressif/ESP8266_SDK/lib\libssl.a(ssl_tls1.o) (memcmp)
c:/espressif/xtensa-lx106-elf/bin/../lib/gcc/xtensa-lx106-elf/5.2.0/../../../../xtensa-lx106-elf/lib\libc.a(lib_a-sysgettod.o)
                              c:/Espressif/ESP8266_SDK/lib\libmain.a(time.o) (gettimeofday)
c:/espressif/xtensa-lx106-elf/bin/../lib/gcc/xtensa-lx106-elf/5.2.0/../../../../xtensa-lx106-elf/lib\libc.a(lib_a-impure.o)
                              c:/espressif/xtensa-lx106-elf/bin/../lib/gcc/xtensa-lx106-elf/5.2.0/../../../../xtensa-lx106-elf/lib\libc.a(lib_a-sysgettod.o) (_impure_ptr)
c:/Espressif/ESP8266_SDK/lib\libgcc.a(_modsi3.o)
                              c:/Espressif/ESP8266_SDK/lib\libphy.a(phy_chip_v6.o) (__modsi3)
c:/Espressif/ESP8266_SDK/lib\libgcc.a(_ashrdi3.o)
                              c:/Espressif/ESP8266_SDK/lib\libphy.a(phy_chip_v6.o) (__ashrdi3)
c:/Espressif/ESP8266_SDK/lib\libgcc.a(_mulsf3.o)
                              c:/Espressif/ESP8266_SDK/lib\libphy.a(phy_chip_v6_ana.o) (__mulsf3)
c:/Espressif/ESP8266_SDK/lib\libgcc.a(_divsf3.o)
                              c:/Espressif/ESP8266_SDK/lib\libphy.a(phy_chip_v6_ana.o) (__divsf3)
c:/Espressif/ESP8266_SDK/lib\libgcc.a(_fixsfsi.o)
                              c:/Espressif/ESP8266_SDK/lib\libphy.a(phy_chip_v6.o) (__fixsfsi)
c:/Espressif/ESP8266_SDK/lib\libnet80211.a(ieee80211_crypto_tkip.o)
                              c:/Espressif/ESP8266_SDK/lib\libwpa.a(wpa_auth.o) (tkip)
c:/Espressif/ESP8266_SDK/lib\libnet80211.a(ieee80211_crypto_wep.o)
                              c:/Espressif/ESP8266_SDK/lib\libwpa.a(wpa_auth.o) (wep)

Memory Configuration

Name             Origin             Length             Attributes
dport0_0_seg     0x3ff00000         0x00000010
dram0_0_seg      0x3ffe8000         0x00014000
iram1_0_seg      0x40100000         0x00008000
irom0_0_seg      0x40210000         0x0005c000
*default*        0x00000000         0xffffffff

Linker script and memory map

START GROUP
LOAD c:/espressif/xtensa-lx106-elf/bin/../lib/gcc/xtensa-lx106-elf/5.2.0/../../../../xtensa-lx106-elf/lib\libc.a
LOAD c:/Espressif/ESP8266_SDK/lib\libgcc.a
LOAD c:/espressif/xtensa-lx106-elf/bin/../lib/gcc/xtensa-lx106-elf/5.2.0/../../../../xtensa-lx106-elf/lib\libhal.a
LOAD c:/Espressif/ESP8266_SDK/lib\libphy.a
LOAD c:/Espressif/ESP8266_SDK/lib\libpp.a
LOAD c:/Espressif/ESP8266_SDK/lib\libnet80211.a
LOAD c:/Espressif/ESP8266_SDK/lib\liblwip.a
LOAD c:/Espressif/ESP8266_SDK/lib\libwpa.a
LOAD c:/Espressif/ESP8266_SDK/lib\libmain.a
LOAD c:/Espressif/ESP8266_SDK/lib\libssl.a
LOAD c:/Espressif/ESP8266_SDK/lib\libcrypto.a
LOAD build/app_app.a
END GROUP
                [!provide]                PROVIDE (_memmap_vecbase_reset, 0x40000000)
                0x00000110                _memmap_cacheattr_wb_base = 0x110
                0x00000110                _memmap_cacheattr_wt_base = 0x110
                0x00000220                _memmap_cacheattr_bp_base = 0x220
                0xfffff00f                _memmap_cacheattr_unused_mask = 0xfffff00f
                0x2222211f                _memmap_cacheattr_wb_trapnull = 0x2222211f
                0x2222211f                _memmap_cacheattr_wba_trapnull = 0x2222211f
                0x2222211f                _memmap_cacheattr_wbna_trapnull = 0x2222211f
                0x2222211f                _memmap_cacheattr_wt_trapnull = 0x2222211f
                0x2222222f                _memmap_cacheattr_bp_trapnull = 0x2222222f
                0xfffff11f                _memmap_cacheattr_wb_strict = 0xfffff11f
                0xfffff11f                _memmap_cacheattr_wt_strict = 0xfffff11f
                0xfffff22f                _memmap_cacheattr_bp_strict = 0xfffff22f
                0x22222112                _memmap_cacheattr_wb_allvalid = 0x22222112
                0x22222112                _memmap_cacheattr_wt_allvalid = 0x22222112
                0x22222222                _memmap_cacheattr_bp_allvalid = 0x22222222
                [!provide]                PROVIDE (_memmap_cacheattr_reset, _memmap_cacheattr_wb_trapnull)

.dport0.rodata  0x3ff00000        0x0
                0x3ff00000                _dport0_rodata_start = ABSOLUTE (.)
 *(.dport0.rodata)
 *(.dport.rodata)
                0x3ff00000                _dport0_rodata_end = ABSOLUTE (.)

.dport0.literal
                0x3ff00000        0x0
                0x3ff00000                _dport0_literal_start = ABSOLUTE (.)
 *(.dport0.literal)
 *(.dport.literal)
                0x3ff00000                _dport0_literal_end = ABSOLUTE (.)

.dport0.data    0x3ff00000        0x0
                0x3ff00000                _dport0_data_start = ABSOLUTE (.)
 *(.dport0.data)
 *(.dport.data)
                0x3ff00000                _dport0_data_end = ABSOLUTE (.)

.data           0x3ffe8000      0x838
                0x3ffe8000                _data_start = ABSOLUTE (.)
 *(.data)
 .data          0x3ffe8000        0x0 c:/Espressif/ESP8266_SDK/lib\libmain.a(debug-vector.o)
 .data          0x3ffe8000        0x0 c:/Espressif/ESP8266_SDK/lib\libmain.a(double-vector.o)
 .data          0x3ffe8000        0x0 c:/Espressif/ESP8266_SDK/lib\libmain.a(kernel-vector.o)
 .data          0x3ffe8000        0x4 c:/Espressif/ESP8266_SDK/lib\libmain.a(nmi-vector.o)
                0x3ffe8000                _Pri_3_HandlerAddress
 .data          0x3ffe8004        0x0 c:/Espressif/ESP8266_SDK/lib\libmain.a(user-vector.o)
 .data          0x3ffe8004        0x0 c:/Espressif/ESP8266_SDK/lib\libmain.a(vector.o)
 .data          0x3ffe8004        0x1 c:/Espressif/ESP8266_SDK/lib\libmain.a(app_main.o)
 .data          0x3ffe8005        0x0 c:/Espressif/ESP8266_SDK/lib\libmain.a(ets_timer.o)
 .data          0x3ffe8005        0x0 c:/Espressif/ESP8266_SDK/lib\libmain.a(mem_manager.o)
 .data          0x3ffe8005        0x0 c:/Espressif/ESP8266_SDK/lib\libmain.a(spi_flash.o)
 *fill*         0x3ffe8005        0x3 
 .data          0x3ffe8008        0x6 c:/Espressif/ESP8266_SDK/lib\libmain.a(user_interface.o)
                0x3ffe8009                timer2_ms_flag
                0x3ffe800a                dhcps_flag
                0x3ffe800b                dhcpc_flag
                0x3ffe800d                reconnect_internal
 .data          0x3ffe800e        0x0 c:/Espressif/ESP8266_SDK/lib\libmain.a(eagle_lib.o)
 *fill*         0x3ffe800e        0x2 
 .data          0x3ffe8010        0x1 c:/Espressif/ESP8266_SDK/lib\libmain.a(eagle_lwip_if.o)
                0x3ffe8010                default_hostname
 .data          0x3ffe8011        0x0 build/app_app.a(user_main.o)
 *fill*         0x3ffe8011        0x3 
 .data          0x3ffe8014       0x58 build/app_app.a(wifi_connector.o)
                0x3ffe8014                sEspconnErr
                0x3ffe8054                WiFiMode
                0x3ffe8064                g_bServerAutoDiscover
                0x3ffe8068                g_nHubId
 .data          0x3ffe806c        0x0 build/app_app.a(userconfig.o)
 .data          0x3ffe806c        0x0 build/app_app.a(uart.o)
 .data          0x3ffe806c        0x0 build/app_app.a(uartproto.o)
 .data          0x3ffe806c        0x0 build/app_app.a(cpp_req.o)
 .data          0x3ffe806c        0x0 build/app_app.a(sfifo.o)
 .data          0x3ffe806c        0x0 c:/espressif/xtensa-lx106-elf/bin/../lib/gcc/xtensa-lx106-elf/5.2.0/../../../../xtensa-lx106-elf/lib\libc.a(lib_a-memcpy.o)
 .data          0x3ffe806c        0x0 c:/espressif/xtensa-lx106-elf/bin/../lib/gcc/xtensa-lx106-elf/5.2.0/../../../../xtensa-lx106-elf/lib\libc.a(lib_a-stpcpy.o)
 .data          0x3ffe806c        0x0 c:/espressif/xtensa-lx106-elf/bin/../lib/gcc/xtensa-lx106-elf/5.2.0/../../../../xtensa-lx106-elf/lib\libc.a(lib_a-strlen.o)
 .data          0x3ffe806c        0x0 c:/espressif/xtensa-lx106-elf/bin/../lib/gcc/xtensa-lx106-elf/5.2.0/../../../../xtensa-lx106-elf/lib\libhal.a(int_asm--set_intclear.o)
 .data          0x3ffe806c        0x0 c:/Espressif/ESP8266_SDK/lib\libphy.a(phy.o)
 .data          0x3ffe806c        0x0 c:/Espressif/ESP8266_SDK/lib\libphy.a(phy_chip_v6_ana.o)
 *fill*         0x3ffe806c        0x4 
 .data          0x3ffe8070       0x53 c:/Espressif/ESP8266_SDK/lib\libphy.a(phy_chip_v6.o)
                0x3ffe8072                tx_rf_ana_gain
                0x3ffe80a0                rx_gain_swp
                0x3ffe80c0                test_rffreq_txcap
 *fill*         0x3ffe80c3        0x1 
 .data          0x3ffe80c4        0x1 c:/Espressif/ESP8266_SDK/lib\libphy.a(phy_chip_v6_cal.o)
                0x3ffe80c4                rfcal_bb_atten_init
 .data          0x3ffe80c5        0x0 c:/Espressif/ESP8266_SDK/lib\libphy.a(phy_chip_v6_unused.o)
 *fill*         0x3ffe80c5        0x3 
 .data          0x3ffe80c8        0x4 c:/Espressif/ESP8266_SDK/lib\libphy.a(phy_sleep.o)
                0x3ffe80c8                chip_version
 .data          0x3ffe80cc        0x0 c:/Espressif/ESP8266_SDK/lib\libpp.a(if_hwctrl.o)
 .data          0x3ffe80cc        0x0 c:/Espressif/ESP8266_SDK/lib\libpp.a(lmac.o)
 .data          0x3ffe80cc        0x1 c:/Espressif/ESP8266_SDK/lib\libpp.a(pm.o)
 *fill*         0x3ffe80cd        0x3 
 .data          0x3ffe80d0        0x1 c:/Espressif/ESP8266_SDK/lib\libpp.a(pm_for_bcn_only_mode.o)
 *fill*         0x3ffe80d1        0x3 
 .data          0x3ffe80d4       0x1c c:/Espressif/ESP8266_SDK/lib\libpp.a(pp.o)
                0x3ffe80d4                soft_wdt_interval
                0x3ffe80d8                NoiseTimerInterval
                0x3ffe80e0                sleep_start_wait_time
                0x3ffe80e8                CanDoFreqCal
                0x3ffe80ec                tcb
 .data          0x3ffe80f0       0x40 c:/Espressif/ESP8266_SDK/lib\libpp.a(rate_control.o)
 .data          0x3ffe8130      0x24c c:/Espressif/ESP8266_SDK/lib\libpp.a(trc.o)
 .data          0x3ffe837c        0x8 c:/Espressif/ESP8266_SDK/lib\libpp.a(wdev.o)
 .data          0x3ffe8384        0x0 c:/Espressif/ESP8266_SDK/lib\libpp.a(esf_buf.o)
 .data          0x3ffe8384        0x0 c:/Espressif/ESP8266_SDK/lib\libnet80211.a(ieee80211.o)
 .data          0x3ffe8384        0x0 c:/Espressif/ESP8266_SDK/lib\libnet80211.a(ieee80211_crypto.o)
 .data          0x3ffe8384        0x0 c:/Espressif/ESP8266_SDK/lib\libnet80211.a(ieee80211_ets.o)
 .data          0x3ffe8384        0x1 c:/Espressif/ESP8266_SDK/lib\libnet80211.a(ieee80211_hostap.o)
                0x3ffe8384                TmpSTAAPCloseAP
 .data          0x3ffe8385        0x0 c:/Espressif/ESP8266_SDK/lib\libnet80211.a(ieee80211_ht.o)
 .data          0x3ffe8385        0x0 c:/Espressif/ESP8266_SDK/lib\libnet80211.a(ieee80211_input.o)
 .data          0x3ffe8385        0x0 c:/Espressif/ESP8266_SDK/lib\libnet80211.a(ieee80211_mesh_quick.o)
 .data          0x3ffe8385        0x0 c:/Espressif/ESP8266_SDK/lib\libnet80211.a(ieee80211_output.o)
 .data          0x3ffe8385        0x0 c:/Espressif/ESP8266_SDK/lib\libnet80211.a(ieee80211_phy.o)
 .data          0x3ffe8385        0x0 c:/Espressif/ESP8266_SDK/lib\libnet80211.a(ieee80211_power.o)
 .data          0x3ffe8385        0x0 c:/Espressif/ESP8266_SDK/lib\libnet80211.a(ieee80211_proto.o)
 .data          0x3ffe8385        0x0 c:/Espressif/ESP8266_SDK/lib\libnet80211.a(ieee80211_regdomain.o)
 .data          0x3ffe8385        0x0 c:/Espressif/ESP8266_SDK/lib\libnet80211.a(ieee80211_rfid.o)
 .data          0x3ffe8385        0x0 c:/Espressif/ESP8266_SDK/lib\libnet80211.a(ieee80211_scan.o)
 .data          0x3ffe8385        0x0 c:/Espressif/ESP8266_SDK/lib\libnet80211.a(ieee80211_sta.o)
 .data          0x3ffe8385        0x0 c:/Espressif/ESP8266_SDK/lib\libnet80211.a(wl_chm.o)
 *fill*         0x3ffe8385        0x3 
 .data          0x3ffe8388        0x1 c:/Espressif/ESP8266_SDK/lib\libnet80211.a(wl_cnx.o)
 *fill*         0x3ffe8389        0x7 
 .data          0x3ffe8390       0x1c c:/Espressif/ESP8266_SDK/lib\libnet80211.a(ieee80211_action.o)
 .data          0x3ffe83ac        0x0 c:/Espressif/ESP8266_SDK/lib\libnet80211.a(ieee80211_action_vendor.o)
 .data          0x3ffe83ac        0x0 c:/Espressif/ESP8266_SDK/lib\libnet80211.a(ieee80211_crypto_ccmp.o)
 .data          0x3ffe83ac        0x0 c:/Espressif/ESP8266_SDK/lib\libnet80211.a(ieee80211_ie_vendor.o)
 .data          0x3ffe83ac        0x4 c:/Espressif/ESP8266_SDK/lib\liblwip.a(dhcp.o)
 .data          0x3ffe83b0        0x5 c:/Espressif/ESP8266_SDK/lib\liblwip.a(dhcpserver.o)
                0x3ffe83b0                dhcps_lease_time
 .data          0x3ffe83b5        0x0 c:/Espressif/ESP8266_SDK/lib\liblwip.a(dns.o)
 .data          0x3ffe83b5        0x0 c:/Espressif/ESP8266_SDK/lib\liblwip.a(espconn.o)
 .data          0x3ffe83b5        0x0 c:/Espressif/ESP8266_SDK/lib\liblwip.a(espconn_tcp.o)
 .data          0x3ffe83b5        0x0 c:/Espressif/ESP8266_SDK/lib\liblwip.a(espconn_udp.o)
 .data          0x3ffe83b5        0x0 c:/Espressif/ESP8266_SDK/lib\liblwip.a(etharp.o)
 .data          0x3ffe83b5        0x0 c:/Espressif/ESP8266_SDK/lib\liblwip.a(igmp.o)
 .data          0x3ffe83b5        0x0 c:/Espressif/ESP8266_SDK/lib\liblwip.a(inet_chksum.o)
 .data          0x3ffe83b5        0x0 c:/Espressif/ESP8266_SDK/lib\liblwip.a(init.o)
 .data          0x3ffe83b5        0x0 c:/Espressif/ESP8266_SDK/lib\liblwip.a(ip_addr.o)
 .data          0x3ffe83b5        0x0 c:/Espressif/ESP8266_SDK/lib\liblwip.a(ip.o)
 *fill*         0x3ffe83b5        0x3 
 .data          0x3ffe83b8        0x2 c:/Espressif/ESP8266_SDK/lib\liblwip.a(memp.o)
                0x3ffe83b8                memp_sizes_test
 .data          0x3ffe83ba        0x0 c:/Espressif/ESP8266_SDK/lib\liblwip.a(netif.o)
 .data          0x3ffe83ba        0x0 c:/Espressif/ESP8266_SDK/lib\liblwip.a(pbuf.o)
 .data          0x3ffe83ba        0x0 c:/Espressif/ESP8266_SDK/lib\liblwip.a(raw.o)
 *fill*         0x3ffe83ba        0x2 
 .data          0x3ffe83bc        0x8 c:/Espressif/ESP8266_SDK/lib\liblwip.a(sntp.o)
                0x3ffe83bc                time_zone
                0x3ffe83bd                sntp_receive_time_size
 .data          0x3ffe83c4        0x0 c:/Espressif/ESP8266_SDK/lib\liblwip.a(tcp_in.o)
 .data          0x3ffe83c4        0x8 c:/Espressif/ESP8266_SDK/lib\liblwip.a(tcp.o)
 .data          0x3ffe83cc        0x0 c:/Espressif/ESP8266_SDK/lib\liblwip.a(tcp_out.o)
 .data          0x3ffe83cc        0x0 c:/Espressif/ESP8266_SDK/lib\liblwip.a(timers.o)
 .data          0x3ffe83cc        0x0 c:/Espressif/ESP8266_SDK/lib\liblwip.a(udp.o)
 .data          0x3ffe83cc        0x0 c:/Espressif/ESP8266_SDK/lib\liblwip.a(espconn_buf.o)
 .data          0x3ffe83cc        0x0 c:/Espressif/ESP8266_SDK/lib\liblwip.a(icmp.o)
 .data          0x3ffe83cc        0x0 c:/Espressif/ESP8266_SDK/lib\libwpa.a(ap_config.o)
 .data          0x3ffe83cc        0x0 c:/Espressif/ESP8266_SDK/lib\libwpa.a(common.o)
 .data          0x3ffe83cc        0x0 c:/Espressif/ESP8266_SDK/lib\libwpa.a(os_xtensa.o)
 .data          0x3ffe83cc        0x0 c:/Espressif/ESP8266_SDK/lib\libwpa.a(wpa_auth.o)
 .data          0x3ffe83cc        0x0 c:/Espressif/ESP8266_SDK/lib\libwpa.a(wpa_auth_ie.o)
 .data          0x3ffe83cc        0x0 c:/Espressif/ESP8266_SDK/lib\libwpa.a(wpa.o)
 .data          0x3ffe83cc        0x0 c:/Espressif/ESP8266_SDK/lib\libwpa.a(wpa_common.o)
 .data          0x3ffe83cc        0x0 c:/Espressif/ESP8266_SDK/lib\libwpa.a(wpa_debug.o)
 .data          0x3ffe83cc        0x0 c:/Espressif/ESP8266_SDK/lib\libwpa.a(wpa_ie.o)
 .data          0x3ffe83cc        0x0 c:/Espressif/ESP8266_SDK/lib\libwpa.a(wpa_main.o)
 .data          0x3ffe83cc        0x0 c:/Espressif/ESP8266_SDK/lib\libwpa.a(wpas_glue.o)
 .data          0x3ffe83cc        0x0 c:/Espressif/ESP8266_SDK/lib\libmain.a(time.o)
 .data          0x3ffe83cc       0x34 c:/Espressif/ESP8266_SDK/lib\libssl.a(espconn_secure.o)
                0x3ffe83cc                ssl_option
 .data          0x3ffe8400        0x0 c:/Espressif/ESP8266_SDK/lib\libssl.a(espconn_ssl.o)
 .data          0x3ffe8400        0x0 c:/Espressif/ESP8266_SDK/lib\libssl.a(ssl_loader.o)
 .data          0x3ffe8400        0x0 c:/Espressif/ESP8266_SDK/lib\libssl.a(ssl_md5.o)
 .data          0x3ffe8400        0x0 c:/Espressif/ESP8266_SDK/lib\libssl.a(ssl_tls1_clnt.o)
 .data          0x3ffe8400        0x8 c:/Espressif/ESP8266_SDK/lib\libssl.a(ssl_tls1.o)
 .data          0x3ffe8408        0x0 c:/Espressif/ESP8266_SDK/lib\libssl.a(ssl_tls1_svr.o)
 .data          0x3ffe8408        0x0 c:/Espressif/ESP8266_SDK/lib\libssl.a(ssl_x509.o)
 .data          0x3ffe8408        0x0 c:/Espressif/ESP8266_SDK/lib\libssl.a(sha256.o)
 .data          0x3ffe8408        0x0 c:/Espressif/ESP8266_SDK/lib\libssl.a(sha384.o)
 .data          0x3ffe8408        0x0 c:/Espressif/ESP8266_SDK/lib\libssl.a(sha512.o)
 .data          0x3ffe8408        0x0 c:/Espressif/ESP8266_SDK/lib\libssl.a(ssl_aes.o)
 .data          0x3ffe8408        0x0 c:/Espressif/ESP8266_SDK/lib\libssl.a(ssl_asn1.o)
 .data          0x3ffe8408        0x0 c:/Espressif/ESP8266_SDK/lib\libssl.a(ssl_bigint.o)
 .data          0x3ffe8408        0x0 c:/Espressif/ESP8266_SDK/lib\libssl.a(ssl_crypto_misc.o)
 .data          0x3ffe8408        0x0 c:/Espressif/ESP8266_SDK/lib\libssl.a(ssl_hmac.o)
 .data          0x3ffe8408        0x0 c:/Espressif/ESP8266_SDK/lib\libssl.a(ssl_rc4.o)
 .data          0x3ffe8408        0x0 c:/Espressif/ESP8266_SDK/lib\libssl.a(ssl_rsa.o)
 .data          0x3ffe8408        0x0 c:/Espressif/ESP8266_SDK/lib\libssl.a(ssl_sha1.o)
 .data          0x3ffe8408        0x0 c:/Espressif/ESP8266_SDK/lib\libcrypto.a(aes-wrap.o)
 .data          0x3ffe8408        0x0 c:/Espressif/ESP8266_SDK/lib\libcrypto.a(aes-internal-enc.o)
 .data          0x3ffe8408        0x0 c:/Espressif/ESP8266_SDK/lib\libcrypto.a(aes-internal.o)
 .data          0x3ffe8408        0x0 c:/espressif/xtensa-lx106-elf/bin/../lib/gcc/xtensa-lx106-elf/5.2.0/../../../../xtensa-lx106-elf/lib\libc.a(lib_a-memchr.o)
 .data          0x3ffe8408        0x0 c:/espressif/xtensa-lx106-elf/bin/../lib/gcc/xtensa-lx106-elf/5.2.0/../../../../xtensa-lx106-elf/lib\libc.a(lib_a-memcmp.o)
 .data          0x3ffe8408        0x0 c:/espressif/xtensa-lx106-elf/bin/../lib/gcc/xtensa-lx106-elf/5.2.0/../../../../xtensa-lx106-elf/lib\libc.a(lib_a-sysgettod.o)
 .data          0x3ffe8408      0x430 c:/espressif/xtensa-lx106-elf/bin/../lib/gcc/xtensa-lx106-elf/5.2.0/../../../../xtensa-lx106-elf/lib\libc.a(lib_a-impure.o)
                0x3ffe8408                _impure_ptr
 .data          0x3ffe8838        0x0 c:/Espressif/ESP8266_SDK/lib\libgcc.a(_modsi3.o)
 .data          0x3ffe8838        0x0 c:/Espressif/ESP8266_SDK/lib\libgcc.a(_ashrdi3.o)
 .data          0x3ffe8838        0x0 c:/Espressif/ESP8266_SDK/lib\libgcc.a(_mulsf3.o)
 .data          0x3ffe8838        0x0 c:/Espressif/ESP8266_SDK/lib\libgcc.a(_divsf3.o)
 .data          0x3ffe8838        0x0 c:/Espressif/ESP8266_SDK/lib\libgcc.a(_fixsfsi.o)
 .data          0x3ffe8838        0x0 c:/Espressif/ESP8266_SDK/lib\libnet80211.a(ieee80211_crypto_tkip.o)
 .data          0x3ffe8838        0x0 c:/Espressif/ESP8266_SDK/lib\libnet80211.a(ieee80211_crypto_wep.o)
 *(.data.*)
 *(.gnu.linkonce.d.*)
 *(.data1)
 *(.sdata)
 *(.sdata.*)
 *(.gnu.linkonce.s.*)
 *(.sdata2)
 *(.sdata2.*)
 *(.gnu.linkonce.s2.*)
 *(.jcr)
                0x3ffe8838                _data_end = ABSOLUTE (.)

.rodata         0x3ffe8840     0x16d8
                0x3ffe8840                _rodata_start = ABSOLUTE (.)
 *(.sdk.version)
 .sdk.version   0x3ffe8840        0xf c:/Espressif/ESP8266_SDK/lib\libmain.a(app_main.o)
                0x3ffe8840                SDK_VERSION
 *(.rodata)
 *fill*         0x3ffe884f        0x1 
 .rodata        0x3ffe8850       0x1c build/app_app.a(user_main.o)
 .rodata        0x3ffe886c       0x5c build/app_app.a(wifi_connector.o)
 .rodata        0x3ffe88c8        0x4 build/app_app.a(userconfig.o)
 .rodata        0x3ffe88cc       0x40 build/app_app.a(uartproto.o)
 .rodata        0x3ffe890c        0x8 c:/Espressif/ESP8266_SDK/lib\libphy.a(phy_chip_v6_ana.o)
 .rodata        0x3ffe8914        0x8 c:/Espressif/ESP8266_SDK/lib\libphy.a(phy_chip_v6.o)
 .rodata        0x3ffe891c        0x4 c:/Espressif/ESP8266_SDK/lib\libpp.a(pp.o)
 .rodata        0x3ffe8920        0x8 c:/Espressif/ESP8266_SDK/lib\libnet80211.a(ieee80211_hostap.o)
 .rodata        0x3ffe8928        0x9 c:/Espressif/ESP8266_SDK/lib\libnet80211.a(ieee80211_output.o)
 *fill*         0x3ffe8931        0x3 
 .rodata        0x3ffe8934        0x6 c:/Espressif/ESP8266_SDK/lib\liblwip.a(etharp.o)
                0x3ffe8934                ethbroadcast
 *fill*         0x3ffe893a        0x6 
 .rodata        0x3ffe8940       0xc0 c:/Espressif/ESP8266_SDK/lib\liblwip.a(sntp.o)
 .rodata        0x3ffe8a00       0x74 c:/Espressif/ESP8266_SDK/lib\liblwip.a(espconn_buf.o)
 *fill*         0x3ffe8a74        0xc 
 .rodata        0x3ffe8a80       0x34 c:/Espressif/ESP8266_SDK/lib\libssl.a(ssl_loader.o)
 *fill*         0x3ffe8ab4        0xc 
 .rodata        0x3ffe8ac0       0x40 c:/Espressif/ESP8266_SDK/lib\libssl.a(ssl_md5.o)
 .rodata        0x3ffe8b00       0x74 c:/Espressif/ESP8266_SDK/lib\libssl.a(ssl_tls1.o)
                0x3ffe8b54                ssl_prot_prefs
 *fill*         0x3ffe8b74        0x4 
 .rodata        0x3ffe8b78       0x10 c:/Espressif/ESP8266_SDK/lib\libssl.a(ssl_tls1_svr.o)
 *fill*         0x3ffe8b88        0x8 
 .rodata        0x3ffe8b90       0x40 c:/Espressif/ESP8266_SDK/lib\libssl.a(sha256.o)
 .rodata        0x3ffe8bd0      0x300 c:/Espressif/ESP8266_SDK/lib\libssl.a(sha512.o)
 .rodata        0x3ffe8ed0      0x220 c:/Espressif/ESP8266_SDK/lib\libssl.a(ssl_aes.o)
 .rodata        0x3ffe90f0       0x80 c:/Espressif/ESP8266_SDK/lib\libssl.a(ssl_asn1.o)
 .rodata        0x3ffe9170       0x90 c:/Espressif/ESP8266_SDK/lib\libssl.a(ssl_crypto_misc.o)
                0x3ffe9170                unsupported_str
 .rodata        0x3ffe9200       0x10 c:/Espressif/ESP8266_SDK/lib\libssl.a(ssl_sha1.o)
 .rodata        0x3ffe9210        0x4 c:/espressif/xtensa-lx106-elf/bin/../lib/gcc/xtensa-lx106-elf/5.2.0/../../../../xtensa-lx106-elf/lib\libc.a(lib_a-impure.o)
                0x3ffe9210                _global_impure_ptr
 *(.rodata.*)
 .rodata.str1.4
                0x3ffe9214        0xc c:/Espressif/ESP8266_SDK/lib\libmain.a(app_main.o)
 .rodata.str1.4
                0x3ffe9220        0x4 c:/Espressif/ESP8266_SDK/lib\libmain.a(ets_timer.o)
                                  0xc (size before relaxing)
 .rodata.str1.4
                0x3ffe9224       0x1a c:/Espressif/ESP8266_SDK/lib\libmain.a(mem_manager.o)
 *fill*         0x3ffe923e        0x2 
 .rodata.str1.4
                0x3ffe9240       0x5d build/app_app.a(user_main.o)
 *fill*         0x3ffe929d        0x3 
 .rodata.str1.4
                0x3ffe92a0      0x726 build/app_app.a(wifi_connector.o)
                                0x732 (size before relaxing)
 *fill*         0x3ffe99c6        0x2 
 .rodata.str1.4
                0x3ffe99c8       0x7a build/app_app.a(userconfig.o)
 *fill*         0x3ffe9a42        0x2 
 .rodata.str1.4
                0x3ffe9a44       0x16 build/app_app.a(uart.o)
 *fill*         0x3ffe9a5a        0x2 
 .rodata.str1.4
                0x3ffe9a5c       0x81 build/app_app.a(uartproto.o)
                                 0x85 (size before relaxing)
 .rodata.str1.4
                0x3ffe9add        0x1 build/app_app.a(cpp_req.o)
 *fill*         0x3ffe9add        0x3 
 .rodata.str1.4
                0x3ffe9ae0        0x4 c:/Espressif/ESP8266_SDK/lib\libpp.a(lmac.o)
                                  0xc (size before relaxing)
 .rodata.str1.4
                0x3ffe9ae4        0x3 c:/Espressif/ESP8266_SDK/lib\libpp.a(pm.o)
                                  0xb (size before relaxing)
 *fill*         0x3ffe9ae7        0x1 
 .rodata.str1.4
                0x3ffe9ae8        0x4 c:/Espressif/ESP8266_SDK/lib\libpp.a(pm_for_bcn_only_mode.o)
                                  0xc (size before relaxing)
 .rodata.str1.4
                0x3ffe9aec        0x8 c:/Espressif/ESP8266_SDK/lib\libpp.a(pp.o)
                                 0x10 (size before relaxing)
 .rodata.str1.4
                0x3ffe9af4        0x4 c:/Espressif/ESP8266_SDK/lib\libpp.a(wdev.o)
                                  0xc (size before relaxing)
 .rodata.str1.4
                0x3ffe9af8        0x3 c:/Espressif/ESP8266_SDK/lib\libnet80211.a(ieee80211_hostap.o)
                                  0x8 (size before relaxing)
 *fill*         0x3ffe9afb        0x1 
 .rodata.str1.4
                0x3ffe9afc        0x7 c:/Espressif/ESP8266_SDK/lib\libnet80211.a(ieee80211_mesh_quick.o)
 .rodata.str1.4
                0x3ffe9b03        0x4 c:/Espressif/ESP8266_SDK/lib\libnet80211.a(ieee80211_sta.o)
 .rodata.str1.4
                0x3ffe9b03        0x4 c:/Espressif/ESP8266_SDK/lib\libnet80211.a(ieee80211_action_vendor.o)
 .rodata.str1.4
                0x3ffe9b03        0x4 c:/Espressif/ESP8266_SDK/lib\libnet80211.a(ieee80211_ie_vendor.o)
 .rodata.str1.4
                0x3ffe9b03        0x1 c:/Espressif/ESP8266_SDK/lib\liblwip.a(espconn_tcp.o)
 *fill*         0x3ffe9b03        0x1 
 .rodata.str1.4
                0x3ffe9b04       0x20 c:/Espressif/ESP8266_SDK/lib\liblwip.a(sntp.o)
 .rodata.str1.4
                0x3ffe9b24        0xd c:/Espressif/ESP8266_SDK/lib\libwpa.a(wpa_debug.o)
 *fill*         0x3ffe9b31        0x3 
 .rodata.str1.4
                0x3ffe9b34       0x18 c:/Espressif/ESP8266_SDK/lib\libssl.a(espconn_ssl.o)
 .rodata.str1.4
                0x3ffe9b4c      0x150 c:/Espressif/ESP8266_SDK/lib\libssl.a(ssl_loader.o)
                                0x151 (size before relaxing)
 .rodata.str1.4
                0x3ffe9c9c      0x13a c:/Espressif/ESP8266_SDK/lib\libssl.a(ssl_tls1.o)
 *fill*         0x3ffe9dd6        0x2 
 .rodata.str1.4
                0x3ffe9dd8       0xf4 c:/Espressif/ESP8266_SDK/lib\libssl.a(ssl_x509.o)
 .rodata.str1.4
                0x3ffe9ecc       0x1e c:/Espressif/ESP8266_SDK/lib\libssl.a(ssl_crypto_misc.o)
 *fill*         0x3ffe9eea        0x2 
 .rodata.str1.4
                0x3ffe9eec       0x20 c:/Espressif/ESP8266_SDK/lib\libssl.a(ssl_rsa.o)
 .rodata.str1.1
                0x3ffe9f0c        0x2 c:/espressif/xtensa-lx106-elf/bin/../lib/gcc/xtensa-lx106-elf/5.2.0/../../../../xtensa-lx106-elf/lib\libc.a(lib_a-impure.o)
 *(.gnu.linkonce.r.*)
 *(.rodata1)
                0x3ffe9f0e                __XT_EXCEPTION_TABLE__ = ABSOLUTE (.)
 *(.xt_except_table)
 *(.gcc_except_table)
 *(.gnu.linkonce.e.*)
 *(.gnu.version_r)
 *(.eh_frame)
                0x3ffe9f10                . = ((. + 0x3) & 0xfffffffc)
 *fill*         0x3ffe9f0e        0x2 
                0x3ffe9f10                __init_array_start = ABSOLUTE (.)
 *crtbegin.o(.ctors)
 *(EXCLUDE_FILE(*crtend.o) .ctors)
 *(SORT(.ctors.*))
 *(.ctors)
                0x3ffe9f10                __init_array_end = ABSOLUTE (.)
 *crtbegin.o(.dtors)
 *(EXCLUDE_FILE(*crtend.o) .dtors)
 *(SORT(.dtors.*))
 *(.dtors)
                0x3ffe9f10                __XT_EXCEPTION_DESCS__ = ABSOLUTE (.)
 *(.xt_except_desc)
 *(.gnu.linkonce.h.*)
                0x3ffe9f10                __XT_EXCEPTION_DESCS_END__ = ABSOLUTE (.)
 *(.xt_except_desc_end)
 *(.dynamic)
 *(.gnu.version_d)
                0x3ffe9f10                . = ALIGN (0x4)
                0x3ffe9f10                _bss_table_start = ABSOLUTE (.)
                0x3ffe9f10        0x4 LONG 0x3ffe9f18 _bss_start
                0x3ffe9f14        0x4 LONG 0x3fff4850 _bss_end
                0x3ffe9f18                _bss_table_end = ABSOLUTE (.)
                0x3ffe9f18                _rodata_end = ABSOLUTE (.)

.bss            0x3ffe9f18     0xa938
                0x3ffe9f18                . = ALIGN (0x8)
                0x3ffe9f18                _bss_start = ABSOLUTE (.)
 *(.dynsbss)
 *(.sbss)
 *(.sbss.*)
 *(.gnu.linkonce.sb.*)
 *(.scommon)
 *(.sbss2)
 *(.sbss2.*)
 *(.gnu.linkonce.sb2.*)
 *(.dynbss)
 *(.bss)
 .bss           0x3ffe9f18        0x0 c:/Espressif/ESP8266_SDK/lib\libmain.a(debug-vector.o)
 .bss           0x3ffe9f18        0x0 c:/Espressif/ESP8266_SDK/lib\libmain.a(double-vector.o)
 .bss           0x3ffe9f18        0x0 c:/Espressif/ESP8266_SDK/lib\libmain.a(kernel-vector.o)
 *fill*         0x3ffe9f18        0x8 
 .bss           0x3ffe9f20      0x1c0 c:/Espressif/ESP8266_SDK/lib\libmain.a(nmi-vector.o)
 .bss           0x3ffea0e0        0x0 c:/Espressif/ESP8266_SDK/lib\libmain.a(user-vector.o)
 .bss           0x3ffea0e0        0x0 c:/Espressif/ESP8266_SDK/lib\libmain.a(vector.o)
 .bss           0x3ffea0e0       0x45 c:/Espressif/ESP8266_SDK/lib\libmain.a(app_main.o)
                0x3ffea0e4                info
                0x3ffea108                freq_trace_enable
                0x3ffea10a                lwip_timer_interval
                0x3ffea10c                check_timeouts_timer
                0x3ffea120                rf_cal_sec
                0x3ffea124                user_init_flag
 *fill*         0x3ffea125        0xb 
 .bss           0x3ffea130       0x30 c:/Espressif/ESP8266_SDK/lib\libmain.a(ets_timer.o)
                0x3ffea130                dbg_timer_flag
                0x3ffea134                timer_list
                0x3ffea138                debug_timer
                0x3ffea13c                debug_timerfn
 .bss           0x3ffea160       0x3c c:/Espressif/ESP8266_SDK/lib\libmain.a(mem_manager.o)
 .bss           0x3ffea19c        0x4 c:/Espressif/ESP8266_SDK/lib\libmain.a(spi_flash.o)
                0x3ffea19c                flash_read
 .bss           0x3ffea1a0      0x242 c:/Espressif/ESP8266_SDK/lib\libmain.a(user_interface.o)
                0x3ffea297                deep_sleep_flag
                0x3ffea298                cpu_overclock
                0x3ffea29c                event_cb
                0x3ffea2a0                status_led_output_level
                0x3ffea2a4                done_cb
                0x3ffea2a8                rst_if
                0x3ffea2c4                default_interface
                0x3ffea2c5                OpmodChgIsOnGoing
                0x3ffea2c8                promiscuous_cb
                0x3ffea2e0                event_TaskQueue
 .bss           0x3ffea3e2        0x0 c:/Espressif/ESP8266_SDK/lib\libmain.a(eagle_lib.o)
 *fill*         0x3ffea3e2        0x2 
 .bss           0x3ffea3e4        0xc c:/Espressif/ESP8266_SDK/lib\libmain.a(eagle_lwip_if.o)
                0x3ffea3e4                hostname
 .bss           0x3ffea3f0        0x0 build/app_app.a(user_main.o)
 .bss           0x3ffea3f0     0x4110 build/app_app.a(wifi_connector.o)
                0x3ffea3f0                g_wifiFwInfo
                0x3ffea400                g_ipServer
                0x3ffea404                g_buffFifoSend
                0x3ffeac08                g_fifoSend
                0x3ffeac18                g_fifoRecv
                0x3ffeac28                g_nRecvIdx
                0x3ffeac2c                g_buffCommandRecv
                0x3ffebc2c                g_buffFifoRecv
                0x3ffee430                g_tmrPinger
                0x3ffee444                g_tmrKeepAliveTimeout
                0x3ffee458                g_espTcp
                0x3ffee478                g_connTcp
                0x3ffee494                g_tmrSntp
                0x3ffee4a8                g_tmrTcpLinker
                0x3ffee4bc                g_espUdp
                0x3ffee4cc                g_connUdp
                0x3ffee4e8                g_tmrUdpSender
                0x3ffee4fc                g_ConnState
 .bss           0x3ffee500       0x6c build/app_app.a(userconfig.o)
                0x3ffee500                g_Eeprom_Params
 .bss           0x3ffee56c        0x0 build/app_app.a(uart.o)
 .bss           0x3ffee56c      0x31c build/app_app.a(uartproto.o)
                0x3ffee56c                g_pUartPktSend
                0x3ffee570                g_pUartPktRecv
                0x3ffee574                g_nUartLen
                0x3ffee578                g_UartCommand
                0x3ffee57c                g_UartState
                0x3ffee580                g_nBufferPosition
                0x3ffee584                g_UartBuff
                0x3ffee684                g_queueReceived
                0x3ffee884                g_taskUartReceiver
 .bss           0x3ffee888        0x0 build/app_app.a(cpp_req.o)
 .bss           0x3ffee888        0x0 build/app_app.a(sfifo.o)
 .bss           0x3ffee888        0x0 c:/espressif/xtensa-lx106-elf/bin/../lib/gcc/xtensa-lx106-elf/5.2.0/../../../../xtensa-lx106-elf/lib\libc.a(lib_a-memcpy.o)
 .bss           0x3ffee888        0x0 c:/espressif/xtensa-lx106-elf/bin/../lib/gcc/xtensa-lx106-elf/5.2.0/../../../../xtensa-lx106-elf/lib\libc.a(lib_a-stpcpy.o)
 .bss           0x3ffee888        0x0 c:/espressif/xtensa-lx106-elf/bin/../lib/gcc/xtensa-lx106-elf/5.2.0/../../../../xtensa-lx106-elf/lib\libc.a(lib_a-strlen.o)
 .bss           0x3ffee888        0x0 c:/espressif/xtensa-lx106-elf/bin/../lib/gcc/xtensa-lx106-elf/5.2.0/../../../../xtensa-lx106-elf/lib\libhal.a(int_asm--set_intclear.o)
 .bss           0x3ffee888        0x4 c:/Espressif/ESP8266_SDK/lib\libphy.a(phy.o)
 .bss           0x3ffee88c        0x2 c:/Espressif/ESP8266_SDK/lib\libphy.a(phy_chip_v6_ana.o)
                0x3ffee88c                tout_dis_txpwr_track
                0x3ffee88d                sleep_mode_flag
 *fill*         0x3ffee88e        0x2 
 .bss           0x3ffee890      0x153 c:/Espressif/ESP8266_SDK/lib\libphy.a(phy_chip_v6.o)
                0x3ffee890                g_phyFuns
                0x3ffee894                rxiq_compute_num
                0x3ffee898                rx_table_renew_en
                0x3ffee89c                check_result
                0x3ffee8a0                chip6_sleep_params
                0x3ffee934                chip6_phy_init_ctrl
                0x3ffee9a8                phy_freq_offset
                0x3ffee9aa                do_pwctrl_flag
                0x3ffee9ab                txbk_dpdby_flag
                0x3ffee9ad                sw_scan_mode
                0x3ffee9ae                rxmax_ext_level
                0x3ffee9b0                phy_rx_gain_dc_table
                0x3ffee9c4                periodic_cal_flag
                0x3ffee9c5                bbpll_cal_flag
                0x3ffee9c6                phy_in_most_power
                0x3ffee9c7                init_rf_no_cal
                0x3ffee9c8                test_print_time
                0x3ffee9cc                phy_in_vdd33_offset
                0x3ffee9cd                phy_set_most_tpw_disbg
                0x3ffee9ce                phy_set_most_tpw_index
                0x3ffee9d0                adc_rand_noise
                0x3ffee9d4                phy_rx_gain_dc_flag
                0x3ffee9d5                dpd_bypass_original
                0x3ffee9d6                phy_txpwr_diff_flash
                0x3ffee9d8                noise_array
 *fill*         0x3ffee9e3        0x1 
 .bss           0x3ffee9e4        0x9 c:/Espressif/ESP8266_SDK/lib\libphy.a(phy_chip_v6_cal.o)
                0x3ffee9e4                phy_tx_power_out
                0x3ffee9e6                phy_tx_pwr_error
                0x3ffee9e8                tx_pwctrl_track_num
                0x3ffee9e9                rxiq_cover_fail_num
                0x3ffee9ea                phy_meas_freq_offset
                0x3ffee9ec                tx_pwctrl_pk_num
 .bss           0x3ffee9ed        0x0 c:/Espressif/ESP8266_SDK/lib\libphy.a(phy_chip_v6_unused.o)
 *fill*         0x3ffee9ed        0x3 
 .bss           0x3ffee9f0        0x7 c:/Espressif/ESP8266_SDK/lib\libphy.a(phy_sleep.o)
                0x3ffee9f0                periodic_cal_sat
                0x3ffee9f2                lslp_mem_opt_8266
                0x3ffee9f4                software_slp_reject
                0x3ffee9f5                SDIO_slp_reject
                0x3ffee9f6                hardware_reject
 *fill*         0x3ffee9f7        0x9 
 .bss           0x3ffeea00       0x40 c:/Espressif/ESP8266_SDK/lib\libpp.a(if_hwctrl.o)
                0x3ffeea00                interface_mask
                0x3ffeea20                if_ctrl
 .bss           0x3ffeea40      0x150 c:/Espressif/ESP8266_SDK/lib\libpp.a(lmac.o)
                0x3ffeea44                lmacConfMib
                0x3ffeea68                our_tx_eb
 .bss           0x3ffeeb90      0x12a c:/Espressif/ESP8266_SDK/lib\libpp.a(pm.o)
                0x3ffeeb90                pmc
 *fill*         0x3ffeecba        0x2 
 .bss           0x3ffeecbc       0x38 c:/Espressif/ESP8266_SDK/lib\libpp.a(pm_for_bcn_only_mode.o)
 *fill*         0x3ffeecf4        0xc 
 .bss           0x3ffeed00      0x322 c:/Espressif/ESP8266_SDK/lib\libpp.a(pp.o)
                0x3ffeed18                pend_flag_noise_check
                0x3ffeed20                pend_flag_periodic_cal
                0x3ffeed38                idle_timer_reopen_flag
                0x3ffeed3a                dbg_stop_sw_wdt
                0x3ffeed3b                dbg_stop_hw_wdt
                0x3ffeed3d                total_buffed_eb_num
                0x3ffeed40                HighestFreqOffsetInOneChk
                0x3ffeed42                LowestFreqOffsetInOneChk
                0x3ffeed44                DefFreqCalTimer
                0x3ffeed58                PktNumInOneChk
                0x3ffeeee0                buffed_eb_arr
 *fill*         0x3ffef022        0xe 
 .bss           0x3ffef030      0x100 c:/Espressif/ESP8266_SDK/lib\libpp.a(rate_control.o)
 .bss           0x3ffef130      0x46c c:/Espressif/ESP8266_SDK/lib\libpp.a(trc.o)
 *fill*         0x3ffef59c        0x4 
 .bss           0x3ffef5a0     0x2f88 c:/Espressif/ESP8266_SDK/lib\libpp.a(wdev.o)
                0x3ffef5a0                wDevCtrl
                0x3ffef748                WdevTimOffSet
 *fill*         0x3fff2528        0x8 
 .bss           0x3fff2530      0xaa4 c:/Espressif/ESP8266_SDK/lib\libpp.a(esf_buf.o)
 .bss           0x3fff2fd4      0x6a8 c:/Espressif/ESP8266_SDK/lib\libnet80211.a(ieee80211.o)
                0x3fff2fd4                g_ic
 .bss           0x3fff367c        0x0 c:/Espressif/ESP8266_SDK/lib\libnet80211.a(ieee80211_crypto.o)
 .bss           0x3fff367c        0x0 c:/Espressif/ESP8266_SDK/lib\libnet80211.a(ieee80211_ets.o)
 *fill*         0x3fff367c        0x4 
 .bss           0x3fff3680       0x54 c:/Espressif/ESP8266_SDK/lib\libnet80211.a(ieee80211_hostap.o)
                0x3fff3680                BcnEb_update
                0x3fff368d                BcnWithMcastSendStart
                0x3fff368e                BcnWithMcastSendCnt
                0x3fff36a8                PendFreeBcnEb
                0x3fff36ac                ApFreqCalTimer
                0x3fff36c0                APRecvBcnStartTick
 .bss           0x3fff36d4        0x0 c:/Espressif/ESP8266_SDK/lib\libnet80211.a(ieee80211_ht.o)
 .bss           0x3fff36d4        0x0 c:/Espressif/ESP8266_SDK/lib\libnet80211.a(ieee80211_input.o)
 .bss           0x3fff36d4        0x0 c:/Espressif/ESP8266_SDK/lib\libnet80211.a(ieee80211_mesh_quick.o)
 .bss           0x3fff36d4        0x0 c:/Espressif/ESP8266_SDK/lib\libnet80211.a(ieee80211_output.o)
 .bss           0x3fff36d4        0x0 c:/Espressif/ESP8266_SDK/lib\libnet80211.a(ieee80211_phy.o)
 .bss           0x3fff36d4        0x0 c:/Espressif/ESP8266_SDK/lib\libnet80211.a(ieee80211_power.o)
 .bss           0x3fff36d4        0x0 c:/Espressif/ESP8266_SDK/lib\libnet80211.a(ieee80211_proto.o)
 .bss           0x3fff36d4        0x0 c:/Espressif/ESP8266_SDK/lib\libnet80211.a(ieee80211_regdomain.o)
 .bss           0x3fff36d4        0x0 c:/Espressif/ESP8266_SDK/lib\libnet80211.a(ieee80211_rfid.o)
 .bss           0x3fff36d4       0xc8 c:/Espressif/ESP8266_SDK/lib\libnet80211.a(ieee80211_scan.o)
                0x3fff36d4                gScanStruct
                0x3fff3780                connect_scan_flag
                0x3fff3781                FreqCalCntForScan
                0x3fff3782                TestStaFreqCalValInput
                0x3fff3784                auth_type
                0x3fff3786                scannum
 *fill*         0x3fff379c        0x4 
 .bss           0x3fff37a0       0x28 c:/Espressif/ESP8266_SDK/lib\libnet80211.a(ieee80211_sta.o)
 .bss           0x3fff37c8       0x3c c:/Espressif/ESP8266_SDK/lib\libnet80211.a(wl_chm.o)
 *fill*         0x3fff3804        0x4 
 .bss           0x3fff3808      0x394 c:/Espressif/ESP8266_SDK/lib\libnet80211.a(wl_cnx.o)
                0x3fff3b68                sta_con_timer
                0x3fff3b7c                backup_ni_connect_status
                0x3fff3b80                g_cnx_probe_rc_list_cb
                0x3fff3b84                reconnect_flag
                0x3fff3b85                no_ap_found_index
 .bss           0x3fff3b9c        0x0 c:/Espressif/ESP8266_SDK/lib\libnet80211.a(ieee80211_action.o)
 *fill*         0x3fff3b9c        0x4 
 .bss           0x3fff3ba0       0x18 c:/Espressif/ESP8266_SDK/lib\libnet80211.a(ieee80211_action_vendor.o)
 .bss           0x3fff3bb8        0x0 c:/Espressif/ESP8266_SDK/lib\libnet80211.a(ieee80211_crypto_ccmp.o)
 .bss           0x3fff3bb8        0x0 c:/Espressif/ESP8266_SDK/lib\libnet80211.a(ieee80211_ie_vendor.o)
 *fill*         0x3fff3bb8        0x8 
 .bss           0x3fff3bc0       0x38 c:/Espressif/ESP8266_SDK/lib\liblwip.a(dhcp.o)
                0x3fff3bc0                dhcp_rx_options_given
                0x3fff3bd0                dhcp_rx_options_val
 .bss           0x3fff3bf8       0x24 c:/Espressif/ESP8266_SDK/lib\liblwip.a(dhcpserver.o)
 *fill*         0x3fff3c1c        0x4 
 .bss           0x3fff3c20      0x480 c:/Espressif/ESP8266_SDK/lib\liblwip.a(dns.o)
 .bss           0x3fff40a0      0x104 c:/Espressif/ESP8266_SDK/lib\liblwip.a(espconn.o)
                0x3fff40a0                plink_active
                0x3fff40a4                pserver_list
                0x3fff40b0                premot
                0x3fff4170                pktinfo
 *fill*         0x3fff41a4        0xc 
 .bss           0x3fff41b0       0x78 c:/Espressif/ESP8266_SDK/lib\liblwip.a(espconn_tcp.o)
                0x3fff41b0                espconn_TaskQueue
 .bss           0x3fff4228        0x0 c:/Espressif/ESP8266_SDK/lib\liblwip.a(espconn_udp.o)
 *fill*         0x3fff4228        0x8 
 .bss           0x3fff4230      0x100 c:/Espressif/ESP8266_SDK/lib\liblwip.a(etharp.o)
                0x3fff4234                ethzero
 .bss           0x3fff4330        0xc c:/Espressif/ESP8266_SDK/lib\liblwip.a(igmp.o)
 .bss           0x3fff433c        0x0 c:/Espressif/ESP8266_SDK/lib\liblwip.a(inet_chksum.o)
 .bss           0x3fff433c        0x0 c:/Espressif/ESP8266_SDK/lib\liblwip.a(init.o)
 *fill*         0x3fff433c        0x4 
 .bss           0x3fff4340       0x10 c:/Espressif/ESP8266_SDK/lib\liblwip.a(ip_addr.o)
 .bss           0x3fff4350       0x12 c:/Espressif/ESP8266_SDK/lib\liblwip.a(ip.o)
                0x3fff4350                current_iphdr_dest
                0x3fff4354                current_iphdr_src
                0x3fff4358                current_netif
                0x3fff435c                current_header
 .bss           0x3fff4362        0x0 c:/Espressif/ESP8266_SDK/lib\liblwip.a(memp.o)
 *fill*         0x3fff4362        0x2 
 .bss           0x3fff4364        0x9 c:/Espressif/ESP8266_SDK/lib\liblwip.a(netif.o)
                0x3fff4364                netif_list
                0x3fff4368                netif_default
 .bss           0x3fff436d        0x0 c:/Espressif/ESP8266_SDK/lib\liblwip.a(pbuf.o)
 *fill*         0x3fff436d        0x3 
 .bss           0x3fff4370        0x4 c:/Espressif/ESP8266_SDK/lib\liblwip.a(raw.o)
 *fill*         0x3fff4374        0xc 
 .bss           0x3fff4380      0x128 c:/Espressif/ESP8266_SDK/lib\liblwip.a(sntp.o)
                0x3fff4380                res_buf
                0x3fff43a4                __tzyear
                0x3fff43a8                __tznorth
                0x3fff43e0                sntp__tzrule
                0x3fff4420                reult
 .bss           0x3fff44a8       0x34 c:/Espressif/ESP8266_SDK/lib\liblwip.a(tcp_in.o)
                0x3fff44d8                tcp_input_pcb
 .bss           0x3fff44dc       0x1c c:/Espressif/ESP8266_SDK/lib\liblwip.a(tcp.o)
                0x3fff44e0                tcp_active_pcbs
                0x3fff44e4                tcp_tmp_pcb
                0x3fff44e8                tcp_tw_pcbs
                0x3fff44ec                tcp_bound_pcbs
                0x3fff44f0                tcp_listen_pcbs
                0x3fff44f4                tcp_ticks
 .bss           0x3fff44f8        0x0 c:/Espressif/ESP8266_SDK/lib\liblwip.a(tcp_out.o)
 .bss           0x3fff44f8        0xc c:/Espressif/ESP8266_SDK/lib\liblwip.a(timers.o)
 .bss           0x3fff4504        0x4 c:/Espressif/ESP8266_SDK/lib\liblwip.a(udp.o)
                0x3fff4504                udp_pcbs
 .bss           0x3fff4508        0x0 c:/Espressif/ESP8266_SDK/lib\liblwip.a(espconn_buf.o)
 .bss           0x3fff4508        0x0 c:/Espressif/ESP8266_SDK/lib\liblwip.a(icmp.o)
 .bss           0x3fff4508        0x0 c:/Espressif/ESP8266_SDK/lib\libwpa.a(ap_config.o)
 .bss           0x3fff4508        0x0 c:/Espressif/ESP8266_SDK/lib\libwpa.a(common.o)
 .bss           0x3fff4508        0x0 c:/Espressif/ESP8266_SDK/lib\libwpa.a(os_xtensa.o)
 .bss           0x3fff4508        0x0 c:/Espressif/ESP8266_SDK/lib\libwpa.a(wpa_auth.o)
 .bss           0x3fff4508        0x0 c:/Espressif/ESP8266_SDK/lib\libwpa.a(wpa_auth_ie.o)
 *fill*         0x3fff4508        0x8 
 .bss           0x3fff4510      0x26a c:/Espressif/ESP8266_SDK/lib\libwpa.a(wpa.o)
 .bss           0x3fff477a        0x0 c:/Espressif/ESP8266_SDK/lib\libwpa.a(wpa_common.o)
 .bss           0x3fff477a        0x0 c:/Espressif/ESP8266_SDK/lib\libwpa.a(wpa_debug.o)
 .bss           0x3fff477a        0x0 c:/Espressif/ESP8266_SDK/lib\libwpa.a(wpa_ie.o)
 .bss           0x3fff477a        0x0 c:/Espressif/ESP8266_SDK/lib\libwpa.a(wpa_main.o)
 .bss           0x3fff477a        0x0 c:/Espressif/ESP8266_SDK/lib\libwpa.a(wpas_glue.o)
 *fill*         0x3fff477a        0x2 
 .bss           0x3fff477c       0x1c c:/Espressif/ESP8266_SDK/lib\libmain.a(time.o)
 .bss           0x3fff4798       0x10 c:/Espressif/ESP8266_SDK/lib\libssl.a(espconn_secure.o)
                0x3fff4798                def_certificate
                0x3fff479c                def_certificate_len
                0x3fff47a0                def_private_key
                0x3fff47a4                def_private_key_len
 *fill*         0x3fff47a8        0x8 
 .bss           0x3fff47b0       0x88 c:/Espressif/ESP8266_SDK/lib\libssl.a(espconn_ssl.o)
                0x3fff47b0                pfile_param
                0x3fff47b8                plink_server
 .bss           0x3fff4838        0x0 c:/Espressif/ESP8266_SDK/lib\libssl.a(ssl_loader.o)
 .bss           0x3fff4838        0x0 c:/Espressif/ESP8266_SDK/lib\libssl.a(ssl_md5.o)
 .bss           0x3fff4838        0x0 c:/Espressif/ESP8266_SDK/lib\libssl.a(ssl_tls1_clnt.o)
 .bss           0x3fff4838        0x4 c:/Espressif/ESP8266_SDK/lib\libssl.a(ssl_tls1.o)
 .bss           0x3fff483c        0x0 c:/Espressif/ESP8266_SDK/lib\libssl.a(ssl_tls1_svr.o)
 .bss           0x3fff483c        0x0 c:/Espressif/ESP8266_SDK/lib\libssl.a(ssl_x509.o)
 .bss           0x3fff483c        0x0 c:/Espressif/ESP8266_SDK/lib\libssl.a(sha256.o)
 .bss           0x3fff483c        0x0 c:/Espressif/ESP8266_SDK/lib\libssl.a(sha384.o)
 .bss           0x3fff483c        0x0 c:/Espressif/ESP8266_SDK/lib\libssl.a(sha512.o)
 .bss           0x3fff483c        0x0 c:/Espressif/ESP8266_SDK/lib\libssl.a(ssl_aes.o)
 .bss           0x3fff483c        0x0 c:/Espressif/ESP8266_SDK/lib\libssl.a(ssl_asn1.o)
 .bss           0x3fff483c        0x0 c:/Espressif/ESP8266_SDK/lib\libssl.a(ssl_bigint.o)
 .bss           0x3fff483c        0x8 c:/Espressif/ESP8266_SDK/lib\libssl.a(ssl_crypto_misc.o)
                0x3fff483c                hex_finish
                0x3fff4840                hex_index
 .bss           0x3fff4844        0x0 c:/Espressif/ESP8266_SDK/lib\libssl.a(ssl_hmac.o)
 .bss           0x3fff4844        0x0 c:/Espressif/ESP8266_SDK/lib\libssl.a(ssl_rc4.o)
 .bss           0x3fff4844        0x0 c:/Espressif/ESP8266_SDK/lib\libssl.a(ssl_rsa.o)
 .bss           0x3fff4844        0x0 c:/Espressif/ESP8266_SDK/lib\libssl.a(ssl_sha1.o)
 .bss           0x3fff4844        0x0 c:/Espressif/ESP8266_SDK/lib\libcrypto.a(aes-wrap.o)
 .bss           0x3fff4844        0x0 c:/Espressif/ESP8266_SDK/lib\libcrypto.a(aes-internal-enc.o)
 .bss           0x3fff4844        0x0 c:/Espressif/ESP8266_SDK/lib\libcrypto.a(aes-internal.o)
 .bss           0x3fff4844        0x0 c:/espressif/xtensa-lx106-elf/bin/../lib/gcc/xtensa-lx106-elf/5.2.0/../../../../xtensa-lx106-elf/lib\libc.a(lib_a-memchr.o)
 .bss           0x3fff4844        0x0 c:/espressif/xtensa-lx106-elf/bin/../lib/gcc/xtensa-lx106-elf/5.2.0/../../../../xtensa-lx106-elf/lib\libc.a(lib_a-memcmp.o)
 .bss           0x3fff4844        0x0 c:/espressif/xtensa-lx106-elf/bin/../lib/gcc/xtensa-lx106-elf/5.2.0/../../../../xtensa-lx106-elf/lib\libc.a(lib_a-sysgettod.o)
 .bss           0x3fff4844        0x0 c:/espressif/xtensa-lx106-elf/bin/../lib/gcc/xtensa-lx106-elf/5.2.0/../../../../xtensa-lx106-elf/lib\libc.a(lib_a-impure.o)
 .bss           0x3fff4844        0x0 c:/Espressif/ESP8266_SDK/lib\libgcc.a(_modsi3.o)
 .bss           0x3fff4844        0x0 c:/Espressif/ESP8266_SDK/lib\libgcc.a(_ashrdi3.o)
 .bss           0x3fff4844        0x0 c:/Espressif/ESP8266_SDK/lib\libgcc.a(_mulsf3.o)
 .bss           0x3fff4844        0x0 c:/Espressif/ESP8266_SDK/lib\libgcc.a(_divsf3.o)
 .bss           0x3fff4844        0x0 c:/Espressif/ESP8266_SDK/lib\libgcc.a(_fixsfsi.o)
 *fill*         0x3fff4844        0x4 
 .bss           0x3fff4848        0x8 c:/Espressif/ESP8266_SDK/lib\libnet80211.a(ieee80211_crypto_tkip.o)
 .bss           0x3fff4850        0x0 c:/Espressif/ESP8266_SDK/lib\libnet80211.a(ieee80211_crypto_wep.o)
 *(.bss.*)
 *(.gnu.linkonce.b.*)
 *(COMMON)
                0x3fff4850                . = ALIGN (0x8)
                0x3fff4850                _bss_end = ABSOLUTE (.)
                0x3fff4850                _heap_start = ABSOLUTE (.)

.irom0.text     0x40210000    0x3cac4
                0x40210000                _irom0_text_start = ABSOLUTE (.)
 *libmbedtls.a:(.literal .text .literal.* .text.*)
 *(.irom0.literal .irom.literal .irom.text.literal .irom0.text .irom.text)
 .irom0.text    0x40210000      0xcf1 c:/Espressif/ESP8266_SDK/lib\libmain.a(app_main.o)
                                0xf3d (size before relaxing)
                0x402102d4                wdt_init
                0x4021037c                user_uart_wait_tx_fifo_empty
                0x40210638                system_phy_freq_trace_enable
                0x40210650                flash_data_check
 *fill*         0x40210cf1        0x3 
 .irom0.text    0x40210cf4      0x186 c:/Espressif/ESP8266_SDK/lib\libmain.a(ets_timer.o)
                                0x1b2 (size before relaxing)
                0x40210cfc                ets_timer_done
                0x40210d48                ets_timer_handler_isr
                0x40210e18                ets_timer_init
 *fill*         0x40210e7a        0x2 
 .irom0.text    0x40210e7c       0xf0 c:/Espressif/ESP8266_SDK/lib\libmain.a(mem_manager.o)
                                 0xf8 (size before relaxing)
                0x40210e7c                check_memleak_debug_enable
                0x40210eec                xPortGetFreeHeapSize
                0x40210ef4                vPortInitialiseBlocks
 .irom0.text    0x40210f6c        0xb c:/Espressif/ESP8266_SDK/lib\libmain.a(spi_flash.o)
                0x40210f70                spi_flash_set_read_func
 *fill*         0x40210f77        0x1 
 .irom0.text    0x40210f78     0x3d2d c:/Espressif/ESP8266_SDK/lib\libmain.a(user_interface.o)
                               0x48dd (size before relaxing)
                0x40210f7c                system_set_os_print
                0x40210f8c                system_get_os_print
                0x40211154                system_pp_recycle_rx_pkt
                0x40211170                system_adc_read
                0x402111b0                system_adc_read_fast
                0x40211210                system_get_vdd33
                0x4021123c                system_restart_hook
                0x40211254                system_restart_local
                0x40211334                system_restart
                0x40211394                system_restore
                0x402113fc                system_get_flash_size_map
                0x4021141c                system_get_boot_version
                0x40211454                system_get_test_result
                0x4021147c                system_get_userbin_addr
                0x40211514                system_get_boot_mode
                0x40211544                system_restart_enhance
                0x402116f0                system_upgrade_userbin_set
                0x4021173c                system_upgrade_userbin_check
                0x4021177c                system_upgrade_flag_set
                0x40211790                system_upgrade_flag_check
                0x402117b8                system_upgrade_reboot
                0x40211918                system_deep_sleep_instant
                0x40211ab0                system_deep_sleep
                0x40211b10                system_deep_sleep_set_option
                0x40211b2c                system_phy_temperature_alert
                0x40211b40                system_phy_set_max_tpw
                0x40211b54                system_phy_set_tpw_via_vdd33
                0x40211b68                system_phy_set_rfoption
                0x40211b7c                system_phy_set_powerup_option
                0x40211b94                system_update_cpu_freq
                0x40211bf0                system_get_cpu_freq
                0x40211c08                system_overclock
                0x40211c34                system_restoreclock
                0x40211c64                system_timer_reinit
                0x40211c7c                system_relative_time
                0x40211ca0                system_station_got_ip_set
                0x40211dcc                system_print_meminfo
                0x40211e2c                system_get_free_heap_size
                0x40211e40                system_get_chip_id
                0x40211e64                system_rtc_clock_cali_proc
                0x40211e78                system_get_rtc_time
                0x40211e8c                system_mktime
                0x40211f5c                system_init_done_cb
                0x40211f64                system_get_rst_info
                0x40211f6c                system_get_data_of_array_8
                0x40211f90                system_get_data_of_array_16
                0x40211fb8                system_get_string_from_flash
                0x40212024                wifi_softap_dhcps_start
                0x4021206c                wifi_softap_dhcps_stop
                0x402120ac                wifi_softap_dhcps_status
                0x402120b4                wifi_station_dhcpc_start
                0x4021210c                wifi_station_dhcpc_stop
                0x4021214c                wifi_station_dhcpc_event
                0x402121c0                wifi_station_dhcpc_set_maxtry
                0x402121d0                wifi_station_dhcpc_status
                0x40212250                wifi_get_opmode
                0x40212264                wifi_get_opmode_default
                0x402122e0                wifi_get_broadcast_if
                0x4021231c                wifi_set_broadcast_if
                0x40212498                wifi_set_opmode
                0x402124ac                wifi_set_opmode_current
                0x402124c0                system_get_checksum
                0x40212508                wifi_param_save_protect_with_check
                0x402125c8                system_param_save_with_protect
                0x4021267c                system_save_sys_param
                0x402126a8                system_param_load
                0x402127e4                wifi_station_get_config
                0x402127f8                wifi_station_get_config_default
                0x40212818                wifi_station_get_ap_info
                0x402128d0                wifi_station_ap_number_set
                0x40212d88                wifi_station_set_config
                0x40212da0                wifi_station_set_config_current
                0x40212db8                wifi_station_restore_config
                0x40212dd0                wifi_station_get_current_ap_id
                0x40212de4                wifi_station_ap_check
                0x40212e34                wifi_station_ap_change
                0x40212f4c                wifi_station_scan
                0x40212f98                wifi_station_get_auto_connect
                0x40212fb8                wifi_station_set_auto_connect
                0x40213070                wifi_station_save_pmk2cache
                0x402131a0                wifi_station_save_bssid
                0x40213240                wifi_station_connect
                0x402132d4                wifi_station_disconnect
                0x40213394                wifi_station_get_connect_status
                0x402133c4                wifi_station_set_reconnect_policy
                0x402133dc                wifi_station_get_reconnect_policy
                0x402133e4                wifi_station_get_rssi
                0x40213434                wifi_station_set_default_hostname
                0x4021349c                wifi_station_get_hostname
                0x402134cc                wifi_station_set_hostname
                0x4021356c                wifi_softap_cacl_mac
                0x402135dc                wifi_softap_set_default_ssid
                0x402137bc                wifi_softap_get_config
                0x402137d0                wifi_softap_get_config_default
                0x40213b0c                wifi_softap_set_config
                0x40213b20                wifi_softap_set_config_current
                0x40213b34                wifi_softap_set_station_info
                0x40213ba4                wifi_softap_get_station_info
                0x40213c50                wifi_softap_free_station_info
                0x40213c90                wifi_softap_get_station_num
                0x40213ce4                wifi_softap_deauth
                0x40213d94                wifi_softap_get_beacon_only_mode
                0x40213da8                wifi_softap_set_beacon_only_mode
                0x40213e0c                wifi_register_user_ie_manufacturer_recv_cb
                0x40213e20                wifi_unregister_user_ie_manufacturer_recv_cb
                0x40213e50                wifi_set_user_ie
                0x40213f60                wifi_get_user_ie
                0x40213f94                wifi_get_phy_mode
                0x40213fa8                wifi_set_phy_mode
                0x4021415c                wifi_check_regdomain_param
                0x402141e0                wifi_regdomain_need_update
                0x402142bc                wifi_set_regdomain
                0x402143f4                wifi_get_regdomain
                0x402144a4                wifi_set_sleep_type
                0x402144c4                wifi_enable_gpio_wakeup
                0x402144f0                wifi_disable_gpio_wakeup
                0x40214508                wifi_get_sleep_type
                0x40214520                wifi_get_channel
                0x40214538                wifi_set_channel
                0x40214590                wifi_promiscuous_set_mac
                0x402145f0                wifi_promiscuous_enable
                0x402146d4                wifi_set_promiscuous_rx_cb
                0x402146e4                wifi_get_ip_info
                0x40214764                wifi_set_ip_info
                0x402147d8                wifi_get_macaddr
                0x40214838                wifi_set_macaddr
                0x40214954                wifi_enable_6m_rate
                0x4021495c                wifi_get_user_fixed_rate
                0x4021497c                wifi_set_user_fixed_rate
                0x4021499c                wifi_set_user_sup_rate
                0x402149d8                wifi_set_user_rate_limit
                0x402149fc                wifi_get_user_limit_rate_mask
                0x40214a04                wifi_set_user_limit_rate_mask
                0x40214a1c                wifi_register_send_pkt_freedom_cb
                0x40214a30                wifi_unregister_send_pkt_freedom_cb
                0x40214a3c                wifi_send_pkt_freedom
                0x40214a88                wifi_rfid_locp_recv_open
                0x40214a9c                wifi_rfid_locp_recv_close
                0x40214ab0                wifi_register_rfid_locp_recv_cb
                0x40214ac4                wifi_unregister_rfid_locp_recv_cb
                0x40214adc                wifi_status_led_install
                0x40214b10                wifi_status_led_uninstall
                0x40214b34                wifi_set_status_led_output_level
                0x40214b88                wifi_set_event_handler_cb
                0x40214bd0                system_os_task
                0x40214c0c                system_uart_swap
                0x40214c6c                system_uart_de_swap
                0x40214ca0                system_get_sdk_version
 *fill*         0x40214ca5        0x3 
 .irom0.text    0x40214ca8      0x610 c:/Espressif/ESP8266_SDK/lib\libmain.a(eagle_lib.o)
                                0x620 (size before relaxing)
                0x40214cac                divide
                0x40214ce8                skip_atoi
                0x40214e68                ets_vsnprintf
                0x402151c8                ets_vsprintf
                0x402151ec                ets_sprintf
                0x40215214                ets_strcat
                0x40215234                ets_strrchr
                0x40215260                ets_strchr
                0x40215278                bit_popcount
                0x40215294                ets_snprintf
 .irom0.text    0x402152b8      0x31e c:/Espressif/ESP8266_SDK/lib\libmain.a(eagle_lwip_if.o)
                                0x3e6 (size before relaxing)
                0x40215370                eagle_lwip_if_alloc
                0x40215530                eagle_lwip_if_free
                0x402155b4                eagle_lwip_getif
 *fill*         0x402155d6        0x2 
 .irom0.text    0x402155d8       0x23 build/app_app.a(user_main.o)
                                 0x2b (size before relaxing)
                0x402155dc                user_rf_cal_sector_set
 *fill*         0x402155fb        0x1 
 .irom0.text    0x402155fc      0x6d3 build/app_app.a(wifi_connector.o)
                                0x897 (size before relaxing)
                0x40215624                TcpDisconnectCallback
                0x402156cc                TcpReconnectCallback
                0x40215784                TcpConnectCallback
                0x40215800                TcpSentCallback
                0x40215884                TcpKeepAliveTimerCallback
                0x402158bc                UdpReceiveCallback
                0x40215968                user_check_sntp_stamp
                0x402159c0                TcpPingerTimerCallback
                0x40215a14                TcpReceiveCallback
                0x40215b54                TcpConnect
                0x40215cc0                TcpReconnectTimerCallback
 *fill*         0x40215ccf        0x1 
 .irom0.text    0x40215cd0      0x1ea build/app_app.a(uart.o)
                                0x202 (size before relaxing)
                0x40215e84                uart_init
 *fill*         0x40215eba        0x2 
 .irom0.text    0x40215ebc      0x65e build/app_app.a(uartproto.o)
                                0x6de (size before relaxing)
                0x40215f0c                UartProcessFullPacket()
                0x40216360                UartProcessByte(unsigned char)
                0x40216498                UartProcessFifoTask
                0x402164e4                uart0_tx_buffer(unsigned char*, unsigned short)
 *fill*         0x4021651a        0x2 
 .irom0.text    0x4021651c       0xfa c:/Espressif/ESP8266_SDK/lib\libphy.a(phy.o)
                                0x11e (size before relaxing)
                0x40216520                rf_init
                0x4021653c                bb_init
                0x40216554                phy_init
                0x40216584                RFChannelSel
                0x402165a0                phy_delete_channel
                0x402165b8                phy_enable_agc
                0x402165d0                phy_disable_agc
                0x402165e8                phy_initialize_bb
                0x40216600                phy_set_sense
 *fill*         0x40216616        0x2 
 .irom0.text    0x40216618     0x177b c:/Espressif/ESP8266_SDK/lib\libphy.a(phy_chip_v6_ana.o)
                               0x197f (size before relaxing)
                0x4021661c                ram_pbus_set_rxgain
                0x402166f4                ram_pbus_debugmode
                0x402167a8                ram_pbus_xpd_tx_on
                0x40216814                set_rf_freq_offset
                0x40216884                chip_v6_rxmax_ext_ana
                0x402169d8                ram_chip_v6_rx_init
                0x40216a0c                tsen_meas
                0x40216abc                readvdd33
                0x40216c88                txpwr_offset
                0x40216d44                set_txcap_reg
                0x40216dc4                ram_ana_inf_gating_en
                0x40216f24                ram_restart_cal
                0x40216f90                wait_rfpll_cal_end
                0x40217028                ram_rfpll_set_freq
                0x40217130                ram_set_channel_freq
                0x4021742c                chip_60_set_channel
                0x402175cc                chip_v6_set_chan_offset
                0x4021762c                chip_v6_set_chan
                0x402176dc                chip_v6_set_chan_wakeup
                0x40217760                chip_v6_rf_init
                0x402179c4                low_power_set
                0x40217a14                test_tout
                0x40217b8c                check_data_flag
                0x40217bac                phy_get_check_flag
                0x40217ce0                phy_get_vdd33
 *fill*         0x40217d93        0x1 
 .irom0.text    0x40217d94     0x3e5c c:/Espressif/ESP8266_SDK/lib\libphy.a(phy_chip_v6.o)
                               0x44fc (size before relaxing)
                0x40217d94                ram_tx_mac_enable
                0x40217d98                ram_tx_mac_disable
                0x40217d9c                rtc_mem_backup
                0x40217dcc                rtc_mem_recovery
                0x40217dfc                set_cal_rxdc
                0x40217eb0                set_rx_gain_cal_iq
                0x4021820c                gen_rx_gain_table
                0x40218364                pbus_set_rxbbgain
                0x402183e4                set_rx_gain_testchip_50
                0x40218718                ram_get_corr_power
                0x40218808                check_data_func
                0x40218828                do_noisefloor_lsleep_v50
                0x4021885c                do_noisefloor
                0x402188cc                start_dig_rx
                0x40218910                stop_dig_rx
                0x4021893c                chip_v6_set_chanfreq
                0x4021896c                tx_cap_init
                0x40218b94                target_power_add_backoff
                0x40218bc0                tx_pwctrl_init_cal
                0x40218d60                tx_atten_set_interp
                0x40218fc0                check_tx_pwr_cal
                0x40219104                tx_pwctrl_init
                0x40219228                ram_get_noisefloor
                0x40219244                get_noisefloor_sat
                0x40219274                ram_set_noise_floor
                0x402192d0                ram_start_noisefloor
                0x4021931c                read_hw_noisefloor
                0x40219348                noise_check_loop
                0x402194a4                noise_init
                0x402196a4                target_power_backoff
                0x402196f8                sdt_on_noise_start
                0x40219778                chip_v6_set_chan_rx_cmp
                0x40219904                chip_v6_set_chan_misc
                0x40219998                phy_dig_spur_set
                0x40219cf0                phy_dig_spur_prot
                0x40219f28                chip_v6_rxmax_ext_dig
                0x40219f74                chip_v6_rxmax_ext
                0x4021a020                phy_bb_rx_cfg
                0x4021a438                uart_wait_idle
                0x4021a470                phy_pbus_soc_cfg
                0x4021a528                phy_gpio_cfg
                0x4021a740                tx_cont_en
                0x4021a7e8                tx_cont_dis
                0x4021a83c                tx_cont_cfg
                0x4021a860                chip_v6_initialize_bb
                0x4021a9c4                periodic_cal
                0x4021a9fc                bbpll_cal
                0x4021aaa4                periodic_cal_top
                0x4021ab08                register_chipv6_phy_init_param
                0x4021adb0                change_bbpll160_sleep
                0x4021af60                change_bbpll160
                0x4021af98                set_crystal_uart
                0x4021b02c                ant_switch_init
                0x4021b0dc                reduce_current_init
                0x4021b1c8                rtc_mem_check
                0x4021b204                phy_afterwake_set_rfoption
                0x4021b220                deep_sleep_set_option
                0x4021b24c                write_data_to_rtc
                0x4021b284                get_data_from_rtc
                0x4021b308                register_chipv6_phy
                0x4021b7a0                set_dpd_bypass
                0x4021b7c8                set_rf_gain_stage10
                0x4021b7f8                get_vdd33_offset
                0x4021b86c                get_phy_target_power
                0x4021b91c                set_most_pwr_reg
                0x4021b9f0                phy_set_most_tpw
                0x4021ba10                phy_vdd33_set_tpw
                0x4021ba28                get_adc_rand
                0x4021ba5c                phy_get_rand
                0x4021ba78                phy_tx_pwctrl_cali
                0x4021baa0                phy_check_data_table
                0x4021badc                phy_after_init_enrx
                0x4021bb40                phy_set_rx11b_reg
                0x4021bb74                phy_set_powerup_option
                0x4021bb84                phy_get_txpwr_param
                0x4021bbd0                phy_get_rxnf_param
                0x4021bbdc                phy_get_freq_param
 .irom0.text    0x4021bbf0     0x21a8 c:/Espressif/ESP8266_SDK/lib\libphy.a(phy_chip_v6_cal.o)
                               0x23d4 (size before relaxing)
                0x4021bbf0                txbbgain2dcoindex
                0x4021bc10                dcoindex2txbbgain
                0x4021bc34                init_cal_dcoffset
                0x4021bcf8                set_rfanagain_dc_reg
                0x4021bd94                set_txdc_pbus
                0x4021be00                get_rf_gain_qdb
                0x4021be28                correct_rf_ana_gain
                0x4021bf30                get_sar_dout
                0x4021bfc0                cal_rf_ana_gain
                0x4021c0d8                meas_tone_pwr_db
                0x4021c148                tx_pwr_backoff
                0x4021c2fc                get_fcc_1m2m_pwr_offset
                0x4021c338                ram_set_txbb_atten
                0x4021c3cc                txiq_get_mis_pwr
                0x4021c474                txiq_cover
                0x4021c690                ram_rfcal_txiq
                0x4021c900                rc_cal
                0x4021cac0                get_target_power_offset
                0x4021cbc8                get_pwctrl_correct
                0x4021cc20                tx_pwctrl_cal
                0x4021cf1c                tx_pwctrl_bg_init
                0x4021cf94                tx_pwctrl_background
                0x4021d04c                read_sar_dout
                0x4021d0b0                ram_get_fm_sar_dout
                0x4021d154                ram_cal_tos_v60
                0x4021d324                ram_get_bb_atten
                0x4021d354                ram_rfcal_txcap
                0x4021d518                ram_rfcal_pwrctrl
                0x4021d754                ram_rxiq_get_mis
                0x4021d924                ram_rxiq_cover_mg_mp
                0x4021dac8                ram_rfcal_rxiq
                0x4021dcd4                dpd_scale_set
                0x4021dd1c                dpd_mem_write
 .irom0.text    0x4021dd98      0xc8a c:/Espressif/ESP8266_SDK/lib\libphy.a(phy_sleep.o)
                                0xe9a (size before relaxing)
                0x4021dd98                pm_usec2rtc
                0x4021ddcc                pm_rtc2usec
                0x4021ddd8                pm_set_sleep_cycles
                0x4021de00                pm_sleep_opt
                0x4021df54                pm_wakeup_opt
                0x4021df8c                get_chip_version
                0x4021dfcc                pm_sleep_opt_bb_off
                0x4021e018                pm_sleep_opt_bb_on
                0x4021e06c                pm_set_pll_xtal_wait_time
                0x4021e098                pm_prepare_to_sleep
                0x4021e0a0                pm_sdio_nidle
                0x4021e114                chg_lslp_mem_opt_8266
                0x4021e134                pm_wait4wakeup
                0x4021e170                pm_open_rf
                0x4021e1b4                pm_sleep_set_mac
                0x4021e238                pm_set_wakeup_mac
                0x4021e2d0                pm_check_mac_idle
                0x4021e328                pm_set_sleep_btco
                0x4021e3c8                pm_set_wakeup_btco
                0x4021e4e0                pm_set_sleep_mode
                0x4021e600                pm_unmask_bt
                0x4021e66c                pm_wakeup_init
                0x4021e8c8                sleep_opt_8266
                0x4021e8e8                sleep_opt_bb_on_8266
                0x4021e920                sleep_reset_analog_rtcreg_8266
 *fill*         0x4021ea22        0x2 
 .irom0.text    0x4021ea24      0x48d c:/Espressif/ESP8266_SDK/lib\libpp.a(if_hwctrl.o)
                                0x5bd (size before relaxing)
                0x4021ea44                ic_get_addr
                0x4021ea50                ic_set_opmode
                0x4021ea64                ic_enable_interface
                0x4021eab4                ic_interface_enabled
                0x4021eac8                ic_disable_interface
                0x4021eb10                ic_is_pure_sta
                0x4021eb2c                ic_get_ptk_alg
                0x4021eb3c                ic_get_gtk_alg
                0x4021eb4c                ic_set_ptk_alg
                0x4021eb5c                ic_set_gtk_alg
                0x4021eb6c                ic_interface_is_p2p
                0x4021ec04                ic_set_vif
                0x4021ecc0                ic_set_sta
                0x4021edc0                ic_bss_info_update
                0x4021ee1c                ic_set_key
                0x4021ee78                ic_remove_key
                0x4021ee8c                ic_get_rssi
 *fill*         0x4021eeb1        0x3 
 .irom0.text    0x4021eeb4      0x100 c:/Espressif/ESP8266_SDK/lib\libpp.a(lmac.o)
                                0x118 (size before relaxing)
                0x4021eeb8                lmacInitAc
                0x4021eeec                lmacInit
                0x4021ef98                lmacSetRetryLimit
 .irom0.text    0x4021efb4     0x1a99 c:/Espressif/ESP8266_SDK/lib\libpp.a(pm.o)
                               0x2045 (size before relaxing)
                0x4021efb8                pm_set_gpio_wakeup_pin
                0x4021eff0                pm_clear_gpio_wakeup_pin
                0x4021f000                pm_is_gpio_int_trig
                0x4021f014                pm_rtc_clock_cali_proc
                0x4021f04c                pm_get_ck170_period
                0x4021f070                pm_set_sleep_time
                0x4021f3e4                pm_rf_is_closed
                0x4021f410                pm_set_sleep_type_from_upper
                0x4021f500                pm_get_sleep_type
                0x4021f6bc                uart_tx_flush
                0x4021f6c0                pm_suspend
                0x4021f8e4                pm_shutdown
                0x4021f9c4                pm_reset_idle_sleep
                0x4021fa04                pm_idle_sleep
                0x4021fa14                pm_open
                0x4021fb18                pm_onBcnRx
                0x4021feac                StopLightSleepSetFunc
                0x4021feb4                LightSleepWakedCbSetFunc
                0x40220484                pm_enable_gpio_wakeup
                0x402204c0                pm_attach
                0x402205b8                pm_send_nullfunc
                0x4022075c                pm_is_waked
                0x40220774                pm_is_open
                0x4022078c                pm_scan_lock
                0x402207b4                pm_try_scan_unlock
                0x402207cc                pm_force_scan_unlock
                0x40220870                pm_scan_unlocked
                0x40220884                pm_allow_tx
                0x402208a0                pm_assoc_parse
                0x402208b8                pm_set_addr
                0x402208d8                pm_sleep_for
                0x40220908                pm_post
                0x40220a0c                pm_get_idle_wait_time
 *fill*         0x40220a4d        0x3 
 .irom0.text    0x40220a50      0xb38 c:/Espressif/ESP8266_SDK/lib\libpp.a(pm_for_bcn_only_mode.o)
                                0xee4 (size before relaxing)
                0x40220a64                wifi_fpm_set_sleep_type
                0x40220a64                fpm_set_type_from_upper
                0x40220b20                fpm_get_slp_type
                0x40220b20                wifi_fpm_get_sleep_type
                0x40220b28                fpm_rf_is_closed
                0x40220b3c                fpm_is_open
                0x40220b48                fpm_allow_tx
                0x40220b70                fpm_close
                0x40220b70                wifi_fpm_close
                0x40220c00                wifi_fpm_open
                0x40220c00                fpm_open
                0x40220c84                fpm_attach
                0x40220e34                wifi_fpm_set_wakeup_cb
                0x40220e34                fpm_set_wakeup_cb
                0x40220f70                fpm_do_wakeup
                0x40220f70                wifi_fpm_do_wakeup
                0x402214a0                fpm_do_sleep
                0x402214a0                wifi_fpm_do_sleep
                0x40221540                fpm_auto_sleep_set_in_null_mode
                0x40221540                wifi_fpm_auto_sleep_set_in_null_mode
                0x40221580                get_fpm_auto_sleep_flag
 .irom0.text    0x40221588     0x15be c:/Espressif/ESP8266_SDK/lib\libpp.a(pp.o)
                               0x19a2 (size before relaxing)
                0x40221594                PPWdtReset
                0x402215c8                pp_soft_wdt_init
                0x402215e8                system_soft_wdt_feed
                0x402215e8                pp_soft_wdt_feed
                0x40221604                system_soft_wdt_stop
                0x40221604                pp_soft_wdt_stop
                0x40221630                system_soft_wdt_restart
                0x40221630                pp_soft_wdt_restart
                0x40221668                RxNodeNum
                0x40221680                TxNodeNum
                0x402216a4                pp_disable_noise_timer
                0x402216c4                pp_enable_noise_timer
                0x402217d4                pp_noise_test
                0x402217e4                reset_noise_timer
                0x4022181c                pp_disable_idle_timer
                0x40221840                pp_enable_idle_timer
                0x40221868                pp_try_enable_idle_timer
                0x402218a4                ppPeocessRxPktHdr
                0x40221bd8                HdlAllBuffedEb
                0x40221c60                ppTxPkt
                0x40221dd8                ppProcessWaitQ
                0x40221de8                ppRegisterTxCallback
                0x40221e10                ppUnregisterTxCallback
                0x40221e44                ppRecycleRxPkt
                0x40221ea4                ppCheckTxIdle
                0x40222120                pp_tx_idle_timeout
                0x402222e4                DefFreqCalTimerCB
                0x40222660                ppGetTxQFirstAvail_Locked
                0x40222740                pp_attach
 *fill*         0x40222b46        0x2 
 .irom0.text    0x40222b48      0x296 c:/Espressif/ESP8266_SDK/lib\libpp.a(rate_control.o)
                                0x2a2 (size before relaxing)
                0x40222d94                RC_SetBasicRate
 *fill*         0x40222dde        0x2 
 .irom0.text    0x40222de0      0x5e9 c:/Espressif/ESP8266_SDK/lib\libpp.a(trc.o)
                                0x64d (size before relaxing)
                0x40222de0                phytype2mode
                0x40222dfc                rc_set_rate_limit_id
                0x40222f18                rcUpdatePhyMode
                0x402230e4                rcAttach
                0x40223130                rcGetTrc
                0x40223138                trc_onDisconnect
                0x4022313c                trc_onScanStart
                0x40223150                trc_onScanDone
                0x4022316c                rc_enable_trc
                0x40223244                rc_get_mask
                0x40223258                rc_disable_trc
                0x402232ac                rc_disable_trc_by_interface
                0x402232c8                rc_get_sta_trc
                0x4022330c                rc_get_trc
                0x4022337c                rc_get_trc_by_index
                0x4022339c                rc_only_sta_trc
 *fill*         0x402233c9        0x3 
 .irom0.text    0x402233cc      0xbcb c:/Espressif/ESP8266_SDK/lib\libpp.a(wdev.o)
                                0xd43 (size before relaxing)
                0x402233d8                wDev_Option_Init
                0x402234cc                wDev_Enable_Beacon_Tsf
                0x402234e8                wDev_Disable_Beacon_Tsf
                0x40223504                wDev_Set_Beacon_Int
                0x4022350c                wDev_Reset_TBTT
                0x4022353c                wDev_Get_Next_TBTT
                0x402237b8                wDev_Initialize
                0x40223828                wDevForceAck6M
                0x40223844                wDev_SetMacAddress
                0x402238e0                wDev_SetRxPolicy
                0x40223934                wDev_EnableUcRx
                0x40223960                wDev_DisableUcRx
                0x4022398c                wDev_SetBssid
                0x40223a64                wDev_ClearBssid
                0x40223a98                wDev_Is_Mac_Key_Exist
                0x40223b24                wDev_Insert_KeyEntry
                0x40223c14                wDev_remove_KeyEntry
                0x40223c50                wDev_remove_KeyEntry_all_cnx
                0x40223c98                wDev_Crypto_Conf
                0x40223d34                wDev_Crypto_Disable
                0x40223d6c                wDevEnableRx
                0x40223d94                wdev_go_sniffer
                0x40223e70                wdev_set_sniffer_addr
                0x40223ec8                wdev_exit_sniffer
 *fill*         0x40223f97        0x1 
 .irom0.text    0x40223f98      0x3ed c:/Espressif/ESP8266_SDK/lib\libpp.a(esf_buf.o)
                                0x4c1 (size before relaxing)
                0x40223fa0                esf_buf_alloc
                0x40224188                esf_buf_recycle
                0x402242c8                esf_buf_setup
 *fill*         0x40224385        0x3 
 .irom0.text    0x40224388      0x479 c:/Espressif/ESP8266_SDK/lib\libnet80211.a(ieee80211.o)
                                0x545 (size before relaxing)
                0x4022440c                ieee80211_rate_ref_init
                0x40224424                ieee80211_freedom_inside_cb
                0x40224454                ieee80211_freedom_init
                0x40224478                ieee80211_user_ie_init
                0x40224494                ieee80211_ifattach
                0x402244f8                ieee80211_mhz2ieee
                0x40224554                ieee80211_chan2ieee
                0x40224570                ieee80211_ieee2mhz
                0x402245b0                ieee80211_find_channel
                0x402245dc                ieee80211_find_channel_byieee
                0x4022462c                wifi_mode_set
 *fill*         0x40224801        0x3 
 .irom0.text    0x40224804       0xcf c:/Espressif/ESP8266_SDK/lib\libnet80211.a(ieee80211_crypto.o)
                                 0xd7 (size before relaxing)
                0x40224804                ieee80211_crypto_attach
                0x40224808                ieee80211_crypto_available
                0x4022480c                ieee80211_crypto_setkey
                0x40224810                ieee80211_crypto_encap
                0x40224868                ieee80211_crypto_decap
 *fill*         0x402248d3        0x1 
 .irom0.text    0x402248d4       0x4c c:/Espressif/ESP8266_SDK/lib\libnet80211.a(ieee80211_ets.o)
                                 0x50 (size before relaxing)
                0x402248d8                ieee80211_getmgtframe
 .irom0.text    0x40224920     0x19f8 c:/Espressif/ESP8266_SDK/lib\libnet80211.a(ieee80211_hostap.o)
                               0x1f3b (size before relaxing)
                0x40224f64                ieee80211_hostap_attach
                0x40225060                hostap_handle_timer
                0x402250f8                hostap_input
                0x40225ff8                wifi_softap_start
                0x4022617c                wifi_softap_stop
 *fill*         0x40226318        0x0 
 .irom0.text    0x40226318      0xa5e c:/Espressif/ESP8266_SDK/lib\libnet80211.a(ieee80211_ht.o)
                                0xb36 (size before relaxing)
                0x40226328                ieee80211_ht_attach
                0x40226378                ieee80211_ht_node_init
                0x402263b8                ieee80211_ht_node_cleanup
                0x402263f0                ieee80211_parse_htcap
                0x402264d0                ieee80211_ht_updateparams
                0x402265e0                ieee80211_setup_htrates
                0x402266ac                ieee80211_setup_basic_htrates
                0x402269e4                ieee80211_add_htcap
                0x40226a00                ieee80211_add_htcap_vendor
                0x40226b20                ieee80211_add_htinfo
                0x40226b3c                ieee80211_add_htinfo_vendor
 *fill*         0x40226d76        0x2 
 .irom0.text    0x40226d78      0xae0 c:/Espressif/ESP8266_SDK/lib\libnet80211.a(ieee80211_input.o)
                                0xb70 (size before relaxing)
                0x40226d78                ieee80211_deliver_data
                0x40226dcc                ieee80211_decap
                0x40226ed0                ieee80211_setup_rates
                0x40226f40                ieee80211_alloc_challenge
                0x40226f80                ieee80211_parse_beacon
                0x402275a4                ieee80211_parse_wpa
                0x402276b8                ieee80211_parse_rsn
                0x402277b8                ieee80211_parse_action
                0x40227854                ieee80211_setup_rateset
 .irom0.text    0x40227858      0x2a6 c:/Espressif/ESP8266_SDK/lib\libnet80211.a(ieee80211_mesh_quick.o)
                                0x302 (size before relaxing)
                0x40227864                ieee80211_mesh_quick_init
                0x402278d4                ieee80211_mesh_quick_deinit
                0x40227904                ieee80211_mesh_quick_set
                0x40227a00                ieee80211_mesh_quick_get
                0x40227acc                ieee80211_mesh_quick_ie_add
 *fill*         0x40227afe        0x2 
 .irom0.text    0x40227b00     0x1e44 c:/Espressif/ESP8266_SDK/lib\libnet80211.a(ieee80211_output.o)
                               0x220c (size before relaxing)
                0x40227b04                ieee80211_output_pbuf
                0x40227d74                ieee80211_send_setup
                0x40227ea8                ieee80211_mgmt_output
                0x40227f90                ieee80211_tx_mgt_cb
                0x40227f94                ieee80211_send_nulldata
                0x40228404                ieee80211_add_rates
                0x40228454                ieee80211_add_xrates
                0x40228584                ieee80211_send_probereq
                0x402287f4                ieee80211_getcapinfo
                0x40228850                ieee80211_send_mgmt
                0x40228dfc                ieee80211_alloc_proberesp
                0x40229064                ieee80211_send_proberesp
                0x402291ac                ieee80211_alloc_deauth
                0x402291ec                ieee80211_send_deauth
                0x40229328                ieee80211_freedom_output
                0x40229768                ieee80211_beacon_alloc
 .irom0.text    0x40229944       0xe0 c:/Espressif/ESP8266_SDK/lib\libnet80211.a(ieee80211_phy.o)
                                0x108 (size before relaxing)
                0x40229944                ieee80211_phy_init
                0x40229978                ieee80211_phy_type_get
                0x40229994                ieee80211_setup_ratetable
 .irom0.text    0x40229a24      0x1b6 c:/Espressif/ESP8266_SDK/lib\libnet80211.a(ieee80211_power.o)
                                0x1f2 (size before relaxing)
                0x40229a24                ieee80211_psq_init
                0x40229a44                ieee80211_psq_cleanup
                0x40229a4c                ieee80211_set_tim
                0x40229a8c                ieee80211_pwrsave
                0x40229af4                pwrsave_flushq
                0x40229ba4                ieee80211_node_pwrsave
 *fill*         0x40229bda        0x2 
 .irom0.text    0x40229bdc      0x121 c:/Espressif/ESP8266_SDK/lib\libnet80211.a(ieee80211_proto.o)
                                0x159 (size before relaxing)
                0x40229be0                ieee80211_proto_attach
                0x40229c08                ieee80211_set_shortslottime
                0x40229c24                ieee80211_iserp_rateset
                0x40229c58                ieee80211_wme_initparams
                0x40229c5c                ieee80211_wme_updateparams
                0x40229c64                ieee80211_mlme_connect_bss
 *fill*         0x40229cfd        0x3 
 .irom0.text    0x40229d00      0x1bc c:/Espressif/ESP8266_SDK/lib\libnet80211.a(ieee80211_regdomain.o)
                                0x1dc (size before relaxing)
                0x40229d00                ieee80211_regdomain_attach
                0x40229d08                ieee80211_regdomain_detach
                0x40229d30                ieee80211_alloc_countryie
                0x40229dd0                ieee80211_chan_in_regdomain
                0x40229e14                ieee80211_update_regdomain
 .irom0.text    0x40229ebc       0xaa c:/Espressif/ESP8266_SDK/lib\libnet80211.a(ieee80211_rfid.o)
                                 0xd6 (size before relaxing)
                0x40229ebc                ieee80211_rfid_locp_recv_open
                0x40229ef4                ieee80211_rfid_locp_recv_close
                0x40229f0c                ieee80211_rfid_locp_recv_reset
                0x40229f2c                ieee80211_rfid_locp_recv
                0x40229f48                register_ieee80211_rfid_locp_recv_cb
                0x40229f5c                unregister_ieee80211_rfid_locp_recv_cb
 *fill*         0x40229f66        0x2 
 .irom0.text    0x40229f68      0xf4d c:/Espressif/ESP8266_SDK/lib\libnet80211.a(ieee80211_scan.o)
                               0x129d (size before relaxing)
                0x40229f74                ieee80211_scan_attach
                0x4022a008                scan_start
                0x4022a1c8                scan_pm_channel_op_cb
                0x4022a368                scan_cancel
                0x4022a4c4                scan_add_bssid
                0x4022a4e8                scan_remove_bssid
                0x4022a4f4                scan_hidden_ssid
                0x4022a4fc                scan_add_probe_ssid
                0x4022a550                scan_remove_probe_ssid
                0x4022a68c                scan_clear_channles
                0x4022a700                scan_set_desChan
                0x4022a70c                scan_get_type
                0x4022a714                cannel_scan_connect_state
                0x4022a72c                scan_connect_state
                0x4022a774                scan_check_hidden
                0x4022a7a0                scan_profile_check
                0x4022ab44                scan_parse_beacon
 *fill*         0x4022aeb5        0x3 
 .irom0.text    0x4022aeb8     0x10f9 c:/Espressif/ESP8266_SDK/lib\libnet80211.a(ieee80211_sta.o)
                               0x139d (size before relaxing)
                0x4022af14                sta_status_set
                0x4022af80                ieee80211_sta_new_state
                0x4022b310                sta_input
                0x4022b85c                ieee80211_parse_wmeparams
                0x4022befc                wifi_station_start
                0x4022bf70                wifi_station_stop
 *fill*         0x4022bfb1        0x3 
 .irom0.text    0x4022bfb4      0x2aa c:/Espressif/ESP8266_SDK/lib\libnet80211.a(wl_chm.o)
                                0x32e (size before relaxing)
                0x4022bfc0                chm_init
                0x4022c030                chm_acquire_lock
                0x4022c074                chm_release_lock
                0x4022c088                chm_start_op
                0x4022c12c                chm_end_op
                0x4022c174                chm_cancel_op
                0x4022c1a8                chm_return_home_channel
                0x4022c1d8                chm_set_current_channel
                0x4022c208                chm_freq2index
                0x4022c230                chm_check_same_channel
 *fill*         0x4022c25e        0x2 
 .irom0.text    0x4022c260     0x193d c:/Espressif/ESP8266_SDK/lib\libnet80211.a(wl_cnx.o)
                               0x1f2d (size before relaxing)
                0x4022c26c                cnx_attach
                0x4022c2ac                cnx_sta_connect_led_timer_cb
                0x4022c300                cnx_sta_connect_cmd
                0x4022c3dc                cnx_sta_scan_cmd
                0x4022c644                cnx_connect_timeout
                0x4022c6c0                cnx_auth_timeout
                0x4022c6e4                cnx_assoc_timeout
                0x4022c708                cnx_handshake_timeout
                0x4022c748                cnx_start_handoff_cb
                0x4022c8e0                cnx_csa_fn
                0x4022ccec                cnx_bss_alloc
                0x4022cd8c                cnx_rc_search
                0x4022ce0c                cnx_add_rc
                0x4022ce78                cnx_remove_all_rc
                0x4022cec4                cnx_remove_rc
                0x4022cf94                cnx_rc_update_rssi
                0x4022d01c                cnx_rc_update_state_metric
                0x4022d088                cnx_rc_update_age
                0x4022d0ac                cnx_update_bss
                0x4022d0e0                cnx_update_bss_more
                0x4022d2cc                cnx_sta_leave
                0x4022d560                cnx_sta_associated
                0x4022d668                cnx_node_alloc
                0x4022d6dc                cnx_node_remove
                0x4022d768                cnx_node_search
                0x4022d7e4                cnx_node_leave
                0x4022d8e4                wifi_softap_staconnected_event_policy
                0x4022d90c                wifi_softap_toomany_deny
                0x4022d948                cnx_node_join
 *fill*         0x4022db9d        0x3 
 .irom0.text    0x4022dba0      0x16f c:/Espressif/ESP8266_SDK/lib\libnet80211.a(ieee80211_action.o)
                                0x193 (size before relaxing)
                0x4022dbb0                ieee80211_send_action_register
                0x4022dbe4                ieee80211_send_action_unregister
                0x4022dbf8                ieee80211_send_action
                0x4022dc64                ieee80211_recv_action_register
                0x4022dc98                ieee80211_recv_action_unregister
                0x4022dcac                ieee80211_recv_action
 *fill*         0x4022dd0f        0x1 
 .irom0.text    0x4022dd10      0x568 c:/Espressif/ESP8266_SDK/lib\libnet80211.a(ieee80211_action_vendor.o)
                                0x5fc (size before relaxing)
                0x4022dd10                ieee80211_avs_fetch_key_idx
                0x4022dd64                ieee80211_avs_clear_key_idx
                0x4022dd8c                get_iav_key
                0x4022ddb0                register_ieee80211_action_vendor_get_key_cb
                0x4022ddc8                unregister_ieee80211_action_vendor_get_key_cb
                0x4022dddc                ieee80211_add_action_vendor_spec_esp
                0x4022de20                ieee80211_alloc_action_vendor_spec
                0x4022df10                ieee80211_send_action_vendor_spec
                0x4022e0c0                ieee80211_recv_action_vendor_spec
                0x4022e21c                ieee80211_action_vendor_spec_attach
                0x4022e254                register_ieee80211_action_vendor_spec_cb
                0x4022e26c                unregister_ieee80211_action_vendor_spec_cb
 .irom0.text    0x4022e278      0x15d c:/Espressif/ESP8266_SDK/lib\libnet80211.a(ieee80211_crypto_ccmp.o)
                                0x165 (size before relaxing)
 *fill*         0x4022e3d5        0x3 
 .irom0.text    0x4022e3d8      0x24d c:/Espressif/ESP8266_SDK/lib\libnet80211.a(ieee80211_ie_vendor.o)
                                0x26d (size before relaxing)
                0x4022e3dc                ieee80211_add_ie_vendor_esp_head
                0x4022e414                ieee80211_add_ie_vendor_esp_mesh_assoc
                0x4022e498                ieee80211_add_ie_vendor_esp_mesh_group
                0x4022e4cc                ieee80211_add_ie_vendor_esp_simple_pair
                0x4022e528                ieee80211_add_ie_vendor_esp_freq_annon
                0x4022e560                ieee80211_add_ie_vendor_esp_now
                0x4022e598                ieee80211_add_ie_vendor_esp_ssid
                0x4022e5d8                ieee80211_add_ie_vendor_esp_manufacturer
 *fill*         0x4022e625        0x3 
 .irom0.text    0x4022e628     0x1466 c:/Espressif/ESP8266_SDK/lib\liblwip.a(dhcp.o)
                               0x1666 (size before relaxing)
                0x4022e8a4                dhcp_coarse_tmr
                0x4022e8f0                dhcp_fine_tmr
                0x4022eb48                dhcp_set_struct
                0x4022eb70                dhcp_cleanup
                0x4022eb9c                dhcp_start
                0x4022ec54                dhcp_inform
                0x4022ed00                dhcp_network_changed
                0x4022ed48                dhcp_arp_reply
                0x4022f040                dhcp_renew
                0x4022f36c                dhcp_release
                0x4022f42c                dhcp_stop
 *fill*         0x4022fa8e        0x2 
 .irom0.text    0x4022fa90      0xe0a c:/Espressif/ESP8266_SDK/lib\liblwip.a(dhcpserver.o)
                               0x104a (size before relaxing)
                0x4022fa90                node_insert_to_list
                0x4022fac8                node_remove_from_list
                0x402301d8                dhcps_start
                0x40230240                dhcps_stop
                0x402302c4                wifi_softap_set_dhcps_lease
                0x402303b0                wifi_softap_get_dhcps_lease
                0x40230450                dhcps_coarse_tmr
                0x402304c4                wifi_softap_set_dhcps_offer_option
                0x40230508                wifi_softap_set_dhcps_lease_time
                0x40230538                wifi_softap_reset_dhcps_lease_time
                0x40230564                wifi_softap_get_dhcps_lease_time
                0x4023056c                wifi_softap_dhcps_client_leave
                0x40230614                wifi_softap_dhcps_client_update
 *fill*         0x4023089a        0x2 
 .irom0.text    0x4023089c      0x5cf c:/Espressif/ESP8266_SDK/lib\liblwip.a(dns.o)
                                0x68b (size before relaxing)
                0x402308a8                dns_init
                0x402308e8                dns_setserver
                0x40230908                dns_getserver
                0x4023091c                dns_tmr
                0x40230e14                dns_gethostbyname
 *fill*         0x40230e6b        0x1 
 .irom0.text    0x40230e6c      0xaf6 c:/Espressif/ESP8266_SDK/lib\liblwip.a(espconn.o)
                                0xbf2 (size before relaxing)
                0x40230e6c                espconn_copy_partial
                0x40230efc                espconn_list_creat
                0x40230f1c                espconn_list_delete
                0x40230f44                espconn_pbuf_create
                0x40230f60                espconn_pbuf_delete
                0x40230f88                espconn_find_connection
                0x40231044                espconn_connect
                0x40231128                espconn_create
                0x40231170                espconn_send
                0x40231170                espconn_sent
                0x4023123c                espconn_recv
                0x402312b0                espconn_sendto
                0x402312f8                espconn_tcp_get_wnd
                0x4023131c                espconn_tcp_set_wnd
                0x40231338                espconn_tcp_get_mss
                0x40231340                espconn_tcp_get_max_con
                0x40231350                espconn_tcp_set_max_con
                0x40231368                espconn_tcp_get_max_retran
                0x40231378                espconn_tcp_set_max_retran
                0x40231390                espconn_tcp_get_max_syn
                0x402313a0                espconn_tcp_set_max_syn
                0x402313b8                espconn_tcp_get_max_con_allow
                0x402313e0                espconn_tcp_set_max_con_allow
                0x40231410                espconn_tcp_set_buf_count
                0x40231454                espconn_regist_sentcb
                0x40231460                espconn_regist_write_finish
                0x40231478                espconn_regist_connectcb
                0x40231488                espconn_regist_recvcb
                0x40231494                espconn_regist_reconcb
                0x402314a4                espconn_regist_disconcb
                0x402314b8                espconn_get_connection_info
                0x40231580                espconn_accept
                0x402315c4                espconn_regist_time
                0x40231604                espconn_disconnect
                0x40231648                espconn_abort
                0x40231690                espconn_get_packet_info
                0x40231720                espconn_set_opt
                0x40231778                espconn_clear_opt
                0x402317d8                espconn_set_keepalive
                0x40231844                espconn_get_keepalive
                0x402318b4                espconn_delete
                0x402318fc                espconn_port
                0x40231934                espconn_gethostbyname
                0x40231950                espconn_dns_setserver
 *fill*         0x40231962        0x2 
 .irom0.text    0x40231964     0x10e0 c:/Espressif/ESP8266_SDK/lib\liblwip.a(espconn_tcp.o)
                               0x1414 (size before relaxing)
                0x40231a4c                espconn_kill_oldest_pcb
                0x40231ad0                espconn_kill_pcb
                0x40231b4c                espconn_find_current_pcb
                0x40231bec                espconn_tcp_memp_free
                0x40231e70                espconn_tcp_sent
                0x40231f34                espconn_tcp_disconnect
                0x40231fdc                espconn_recv_hold
                0x40232020                espconn_recv_unhold
                0x4023207c                espconn_lock_recv
                0x402320c8                espconn_unlock_recv
                0x402321d8                espconn_tcp_write
                0x40232408                espconn_tcp_client
                0x402328e0                espconn_tcp_server
                0x4023299c                espconn_tcp_delete
                0x40232a28                espconn_init
 .irom0.text    0x40232a44      0x4e7 c:/Espressif/ESP8266_SDK/lib\liblwip.a(espconn_udp.o)
                                0x63f (size before relaxing)
                0x40232a94                espconn_udp_sent
                0x40232bfc                espconn_udp_sendto
                0x40232e50                espconn_udp_disconnect
                0x40232e8c                espconn_udp_server
                0x40232ef4                espconn_igmp_leave
                0x40232f10                espconn_igmp_join
 *fill*         0x40232f2b        0x1 
 .irom0.text    0x40232f2c      0x8cf c:/Espressif/ESP8266_SDK/lib\liblwip.a(etharp.o)
                                0x9b7 (size before relaxing)
                0x40232f60                etharp_tmr
                0x4023318c                etharp_cleanup_netif
                0x402331c8                etharp_find_addr
                0x4023341c                etharp_output
                0x40233530                etharp_query
                0x40233760                etharp_request
                0x40233784                ethernet_input
 *fill*         0x402337fb        0x1 
 .irom0.text    0x402337fc      0x5f6 c:/Espressif/ESP8266_SDK/lib\liblwip.a(igmp.o)
                                0x68a (size before relaxing)
                0x40233808                igmp_init
                0x40233818                igmp_start
                0x4023385c                igmp_stop
                0x402338c0                igmp_report_groups
                0x402338f0                igmp_lookfor_group
                0x402339b8                igmp_input
                0x40233b00                igmp_joingroup
                0x40233ba8                igmp_leavegroup
                0x40233c4c                igmp_tmr
 *fill*         0x40233df2        0x2 
 .irom0.text    0x40233df4       0x40 c:/Espressif/ESP8266_SDK/lib\liblwip.a(init.o)
                                 0x60 (size before relaxing)
                0x40233df8                lwip_init
 .irom0.text    0x40233e34      0x37a c:/Espressif/ESP8266_SDK/lib\liblwip.a(ip_addr.o)
                                0x3a2 (size before relaxing)
                0x40233e34                ip4_addr_isbroadcast
                0x40233e60                ip4_addr_netmask_valid
                0x40233ea0                ipaddr_addr
                0x40233ebc                ipaddr_aton
                0x402340d8                ipaddr_ntoa
                0x402340ec                ipaddr_ntoa_r
 *fill*         0x402341ae        0x2 
 .irom0.text    0x402341b0      0x581 c:/Espressif/ESP8266_SDK/lib\liblwip.a(ip.o)
                                0x62d (size before relaxing)
                0x402341b0                ip_route
                0x4023422c                ip_router
                0x402342a8                ip_input
                0x40234500                ip_output_if
                0x4023451c                ip_output_if_opt
                0x402346f8                ip_output
 *fill*         0x40234731        0x3 
 .irom0.text    0x40234734      0x281 c:/Espressif/ESP8266_SDK/lib\liblwip.a(netif.o)
                                0x2c1 (size before relaxing)
                0x40234734                netif_init
                0x4023473c                netif_add
                0x402347a4                netif_set_addr
                0x402347cc                netif_remove
                0x40234828                netif_find
                0x40234864                netif_set_ipaddr
                0x402348cc                netif_set_gw
                0x402348dc                netif_set_netmask
                0x402348ec                netif_set_default
                0x402348f4                netif_set_up
                0x40234930                netif_set_down
                0x40234958                netif_set_link_up
                0x402349a4                netif_set_link_down
 *fill*         0x402349b5        0x3 
 .irom0.text    0x402349b8      0x68e c:/Espressif/ESP8266_SDK/lib\liblwip.a(pbuf.o)
                                0x6f6 (size before relaxing)
                0x402349b8                pbuf_free_ooseq_new
                0x40234a10                pbuf_alloc
                0x40234b70                pbuf_realloc
                0x40234bb8                pbuf_header
                0x40234c24                pbuf_free
                0x40234cb0                pbuf_clen
                0x40234cc8                pbuf_ref
                0x40234cd4                pbuf_cat
                0x40234d00                pbuf_chain
                0x40234d1c                pbuf_dechain
                0x40234d58                pbuf_copy
                0x40234dfc                pbuf_copy_partial
                0x40234e7c                pbuf_take
                0x40234edc                pbuf_coalesce
                0x40234f10                pbuf_get_at
                0x40234f38                pbuf_memcmp
                0x40234fa4                pbuf_memfind
                0x40234ffc                pbuf_strstr
 *fill*         0x40235046        0x2 
 .irom0.text    0x40235048      0x1f1 c:/Espressif/ESP8266_SDK/lib\liblwip.a(raw.o)
                                0x249 (size before relaxing)
                0x40235050                raw_input
                0x402350d8                raw_bind
                0x402350e8                raw_connect
                0x402350f8                raw_recv
                0x40235100                raw_sendto
                0x4023519c                raw_send
                0x402351b4                raw_remove
                0x402351f0                raw_new
 *fill*         0x40235239        0x3 
 .irom0.text    0x4023523c      0x98b c:/Espressif/ESP8266_SDK/lib\liblwip.a(sntp.o)
                                0xb7f (size before relaxing)
                0x40235258                sntp_mktm_r
                0x40235504                sntp_localtime_r
                0x40235518                sntp_localtime
                0x40235534                sntp__tzcalc_limits
                0x402356e0                sntp_asctime_r
                0x4023572c                sntp_asctime
                0x40235744                sntp_get_timezone
                0x40235758                sntp_set_timezone
                0x402357a0                sntp_set_daylight
                0x402357d4                sntp_time_inc
                0x40235ac4                sntp_init
                0x40235afc                sntp_stop
                0x40235b3c                sntp_setserver
                0x40235b58                sntp_getserver
                0x40235b6c                sntp_setservername
                0x40235b7c                sntp_getservername
                0x40235b90                sntp_set_update_delay
                0x40235ba0                sntp_set_timetype
                0x40235ba8                sntp_set_receive_time_size
 *fill*         0x40235bc7        0x1 
 .irom0.text    0x40235bc8     0x157c c:/Espressif/ESP8266_SDK/lib\liblwip.a(tcp_in.o)
                               0x17c0 (size before relaxing)
                0x40235bd0                tcp_input
 .irom0.text    0x40237144      0xaeb c:/Espressif/ESP8266_SDK/lib\liblwip.a(tcp.o)
                                0xc23 (size before relaxing)
                0x40237148                tcp_tmr
                0x4023716c                tcp_close
                0x40237190                tcp_shutdown
                0x402371f0                tcp_abandon
                0x40237298                tcp_abort
                0x402372b0                tcp_bind
                0x4023732c                tcp_listen_with_backlog
                0x402373ec                tcp_update_rcv_ann_wnd
                0x40237430                tcp_recved
                0x4023748c                tcp_connect
                0x40237598                tcp_slowtmr
                0x40237840                tcp_fasttmr
                0x402378bc                tcp_segs_free
                0x402378d8                tcp_seg_free
                0x40237904                tcp_setprio
                0x4023790c                tcp_seg_copy
                0x40237950                tcp_recv_null
                0x40237a08                tcp_alloc
                0x40237af0                tcp_new
                0x40237b04                tcp_arg
                0x40237b08                tcp_recv
                0x40237b10                tcp_sent
                0x40237b18                tcp_err
                0x40237b20                tcp_accept
                0x40237b24                tcp_poll
                0x40237b2c                tcp_pcb_purge
                0x40237b80                tcp_pcb_remove
                0x40237be8                tcp_next_iss
                0x40237bfc                tcp_eff_send_mss
 *fill*         0x40237c2f        0x1 
 .irom0.text    0x40237c30      0xf20 c:/Espressif/ESP8266_SDK/lib\liblwip.a(tcp_out.o)
                               0x1028 (size before relaxing)
                0x40237d28                tcp_send_fin
                0x40237f10                tcp_write
                0x4023824c                tcp_enqueue_flags
                0x40238330                tcp_send_empty_ack
                0x402383c4                tcp_output
                0x402386d4                tcp_rst
                0x40238814                tcp_rexmit_rto
                0x40238888                tcp_rexmit
                0x40238934                tcp_rexmit_fast
                0x4023898c                tcp_keepalive
                0x40238a0c                tcp_zero_window_probe
 .irom0.text    0x40238b50      0x2c7 c:/Espressif/ESP8266_SDK/lib\liblwip.a(timers.o)
                                0x357 (size before relaxing)
                0x40238b90                tcp_timer_needed
                0x40238c18                sys_timeouts_init
                0x40238c80                sys_timeout
                0x40238cfc                sys_untimeout
                0x40238d4c                sys_check_timeouts
                0x40238e08                sys_restart_timeouts
 *fill*         0x40238e17        0x1 
 .irom0.text    0x40238e18      0x573 c:/Espressif/ESP8266_SDK/lib\liblwip.a(udp.o)
                                0x62b (size before relaxing)
                0x40238e1c                udp_input
                0x40239074                udp_send
                0x40239088                udp_sendto
                0x402390d4                udp_sendto_if
                0x4023921c                udp_bind
                0x40239298                udp_connect
                0x402392f4                udp_disconnect
                0x4023930c                udp_recv
                0x40239318                udp_remove
                0x40239354                udp_new
 *fill*         0x4023938b        0x1 
 .irom0.text    0x4023938c      0x26e c:/Espressif/ESP8266_SDK/lib\liblwip.a(icmp.o)
                                0x312 (size before relaxing)
                0x40239390                icmp_input
                0x4023953c                icmp_dest_unreach
 *fill*         0x402395fa        0x2 
 .irom0.text    0x402395fc      0x2a6 c:/Espressif/ESP8266_SDK/lib\libwpa.a(ap_config.o)
                                0x2ee (size before relaxing)
                0x402395fc                hostapd_config_defaults_bss
                0x40239648                hostapd_config_defaults
                0x402396cc                hostapd_mac_comp
                0x402396e0                hostapd_mac_comp_empty
                0x4023974c                hostapd_setup_wpa_psk
                0x4023977c                hostapd_wep_key_cmp
                0x402397cc                hostapd_maclist_found
                0x40239834                hostapd_rate_found
                0x40239850                hostapd_get_psk
 *fill*         0x402398a2        0x2 
 .irom0.text    0x402398a4      0x2b2 c:/Espressif/ESP8266_SDK/lib\libwpa.a(common.o)
                                0x302 (size before relaxing)
                0x402398a4                inc_byte_array
                0x402398f8                hex2byte
                0x4023992c                hexstr2bin
                0x40239974                wpa_get_ntp_timestamp
                0x40239a0c                wpa_config_parse_string
                0x40239b10                dup_binstr
 *fill*         0x40239b56        0x2 
 .irom0.text    0x40239b58       0xcc c:/Espressif/ESP8266_SDK/lib\libwpa.a(os_xtensa.o)
                                 0xdc (size before relaxing)
                0x40239b5c                ets_strdup
                0x40239ba0                os_get_time
                0x40239ba4                r_rand
                0x40239bb8                os_random
                0x40239bc8                os_get_random
 .irom0.text    0x40239c24     0x1c86 c:/Espressif/ESP8266_SDK/lib\libwpa.a(wpa_auth.o)
                               0x1f66 (size before relaxing)
                0x40239d70                wpa_auth_for_each_sta
                0x40239ef0                wpa_init
                0x40239f80                wpa_auth_sta_init
                0x40239fc8                wpa_auth_sta_associated
                0x4023a034                wpa_auth_sta_no_wpa
                0x4023a090                wpa_auth_sta_deinit
                0x4023a160                wpa_receive
                0x4023a5c4                __wpa_send_eapol
                0x4023aae8                wpa_remove_ptk
                0x4023ab34                wpa_auth_sm_event
 *fill*         0x4023b8aa        0x2 
 .irom0.text    0x4023b8ac      0x582 c:/Espressif/ESP8266_SDK/lib\libwpa.a(wpa_auth_ie.o)
                                0x5f6 (size before relaxing)
                0x4023b970                wpa_write_rsn_ie
                0x4023ba7c                wpa_auth_gen_wpa_ie
                0x4023bb0c                wpa_add_kde
                0x4023bb78                wpa_validate_wpa_ie
                0x4023bd84                wpa_parse_kde_ies
                0x4023be20                wpa_auth_uses_mfp
 *fill*         0x4023be2e        0x2 
 .irom0.text    0x4023be30     0x14d0 c:/Espressif/ESP8266_SDK/lib\libwpa.a(wpa.o)
                               0x1708 (size before relaxing)
                0x4023cdbc                wpa_sm_rx_eapol
                0x4023cf34                wpa_register
                0x4023cf60                wpa_set_profile
                0x4023cf78                wpa_set_pmk
                0x4023cfa4                wpa_set_bss
                0x4023d1a8                pp_michael_mic_failure
                0x4023d24c                eapol_txcb
                0x4023d2d8                wpa_sm_set_state
 .irom0.text    0x4023d300      0x76a c:/Espressif/ESP8266_SDK/lib\libwpa.a(wpa_common.o)
                                0x7fa (size before relaxing)
                0x4023d448                wpa_parse_wpa_ie_rsn
                0x4023d5dc                wpa_parse_wpa_ie_wpa
                0x4023d76c                wpa_eapol_key_mic
                0x4023d7ac                wpa_compare_rsn_ie
                0x4023d7d4                wpa_pmk_to_ptk
                0x4023d8c4                rsn_pmkid
                0x4023d920                wpa_cipher_key_len
                0x4023d944                wpa_cipher_to_alg
                0x4023d96c                wpa_cipher_to_suite
                0x4023d9c0                rsn_cipher_put_suites
                0x4023da20                wpa_cipher_put_suites
 *fill*         0x4023da6a        0x2 
 .irom0.text    0x4023da6c       0xa8 c:/Espressif/ESP8266_SDK/lib\libwpa.a(wpa_debug.o)
                                 0xac (size before relaxing)
                0x4023dae4                wpa_snprintf_hex_uppercase
                0x4023daf8                wpa_snprintf_hex
                0x4023db0c                eloop_cancel_timeout
                0x4023db10                eloop_register_timeout
 .irom0.text    0x4023db14      0x325 c:/Espressif/ESP8266_SDK/lib\libwpa.a(wpa_ie.o)
                                0x341 (size before relaxing)
                0x4023db14                wpa_parse_wpa_ie
                0x4023dc08                wpa_supplicant_parse_ies
                0x4023de08                wpa_gen_wpa_ie
 *fill*         0x4023de39        0x3 
 .irom0.text    0x4023de3c      0x420 c:/Espressif/ESP8266_SDK/lib\libwpa.a(wpa_main.o)
                                0x538 (size before relaxing)
                0x4023de40                ppInstallKey
                0x4023dfd0                wpa_config_profile
                0x4023e004                wpa_config_bss
                0x4023e034                wpa_config_assoc_ie
                0x4023e048                dhcp_bind_check
                0x4023e07c                eagle_auth_done
                0x4023e1fc                wpa_neg_complete
                0x4023e224                wpa_attach
 .irom0.text    0x4023e25c       0xd6 c:/Espressif/ESP8266_SDK/lib\libwpa.a(wpas_glue.o)
                                 0xe2 (size before relaxing)
                0x4023e2cc                wpa_sm_alloc_eapol
                0x4023e30c                wpa_sm_deauthenticate
                0x4023e328                wpa_sm_mlme_setprotection
                0x4023e32c                wpa_sm_get_beacon_ie
                0x4023e330                wpa_sm_disassociate
 *fill*         0x4023e332        0x2 
 .irom0.text    0x4023e334      0x1ea c:/Espressif/ESP8266_SDK/lib\libmain.a(time.o)
                                0x262 (size before relaxing)
                0x4023e39c                millis
                0x4023e3d4                micros
                0x4023e3e8                updateTime
                0x4023e410                configTime
                0x4023e4a0                time
                0x4023e4c8                _gettimeofday_r
                0x4023e500                getrealtimeofday
 *fill*         0x4023e51e        0x2 
 .irom0.text    0x4023e520      0x379 c:/Espressif/ESP8266_SDK/lib\libssl.a(espconn_secure.o)
                                0x42d (size before relaxing)
                0x4023e520                espconn_secure_connect
                0x4023e5fc                espconn_secure_disconnect
                0x4023e624                espconn_secure_send
                0x4023e624                espconn_secure_sent
                0x4023e670                espconn_secure_accept
                0x4023e690                espconn_secure_set_size
                0x4023e6c4                espconn_secure_get_size
                0x4023e6fc                espconn_secure_ca_enable
                0x4023e730                espconn_secure_ca_disable
                0x4023e758                espconn_secure_cert_req_enable
                0x4023e78c                espconn_secure_cert_req_disable
                0x4023e7bc                espconn_secure_set_default_certificate
                0x4023e804                espconn_secure_set_default_private_key
                0x4023e84c                espconn_secure_delete
 *fill*         0x4023e899        0x3 
 .irom0.text    0x4023e89c     0x14b4 c:/Espressif/ESP8266_SDK/lib\libssl.a(espconn_ssl.o)
                               0x190c (size before relaxing)
                0x4023ea38                espconn_ssl_read
                0x4023eb94                espconn_ssl_read_param_from_flash
                0x4023ee90                espconn_ssl_sent
                0x4023eee4                espconn_sent_packet
                0x4023f514                espconn_ssl_disconnect
                0x4023f53c                espconn_ssl_client
                0x4023fbf0                espconn_ssl_server
                0x4023fcb4                espconn_ssl_delete
 .irom0.text    0x4023fd50      0x583 c:/Espressif/ESP8266_SDK/lib\libssl.a(ssl_loader.o)
                                0x687 (size before relaxing)
                0x4023fd5c                ssl_obj_load
                0x4023fdec                ssl_obj_memory_load
                0x4023fe8c                ssl_obj_free
                0x40240240                load_key_certs
 *fill*         0x402402d3        0x1 
 .irom0.text    0x402402d4      0x9f2 c:/Espressif/ESP8266_SDK/lib\libssl.a(ssl_md5.o)
                                0x9fa (size before relaxing)
                0x402402e4                MD5_Init
                0x40240300                MD5_Update
                0x402403a4                MD5_Final
 *fill*         0x40240cc6        0x2 
 .irom0.text    0x40240cc8      0x469 c:/Espressif/ESP8266_SDK/lib\libssl.a(ssl_tls1_clnt.o)
                                0x4e9 (size before relaxing)
                0x40240cc8                SSLClient_new
                0x40240d38                do_clnt_handshake
                0x40240e0c                do_client_connect
 *fill*         0x40241131        0x3 
 .irom0.text    0x40241134     0x19a7 c:/Espressif/ESP8266_SDK/lib\libssl.a(ssl_tls1.o)
                               0x1c8f (size before relaxing)
                0x40241138                ssl_ctx_new
                0x402411a0                ssl_ctx_free
                0x40241238                ssl_free
                0x402412a0                ssl_read
                0x402412dc                ssl_write
                0x4024132c                add_cert
                0x402413d4                add_cert_auth
                0x40241454                ssl_get_cert_dn
                0x40241488                ssl_get_cert_subject_alt_dnsname
                0x402414b4                ssl_renegotiate
                0x40241510                ssl_new_context
                0x40241598                add_private_key
                0x40241724                add_packet
                0x4024193c                generate_master_secret
                0x40241a00                finished_digest
                0x40241bf0                send_packet
                0x40241ee8                basic_read
                0x40242190                send_change_cipher_spec
                0x402421ec                send_finished
                0x40242250                send_alert
                0x40242308                process_finished
                0x40242380                send_certificate
                0x40242428                disposable_new
                0x4024245c                disposable_free
                0x402424a0                ssl_session_update
                0x402425bc                kill_ssl_session
                0x402425e4                ssl_get_session_id
                0x402425ec                ssl_get_session_id_size
                0x402425f4                ssl_get_cipher_id
                0x402425fc                ssl_handshake_status
                0x40242604                ssl_get_config
                0x40242620                ssl_verify_cert
                0x40242640                process_certificate
                0x4024272c                DISPLAY_STATE
                0x402427ac                DISPLAY_RSA
                0x402427c8                DISPLAY_BYTES
                0x4024281c                ssl_display_error
                0x402429e8                DISPLAY_ALERT
                0x40242ad4                ssl_version
 *fill*         0x40242adb        0x1 
 .irom0.text    0x40242adc      0x464 c:/Espressif/ESP8266_SDK/lib\libssl.a(ssl_tls1_svr.o)
                                0x4e4 (size before relaxing)
                0x40242adc                sslserver_new
                0x40242af4                do_svr_handshake
 .irom0.text    0x40242f40      0x7fa c:/Espressif/ESP8266_SDK/lib\libssl.a(ssl_x509.o)
                                0x9b6 (size before relaxing)
                0x40242f9c                x509_new
                0x4024337c                x509_free
                0x40243508                x509_verify
                0x40243688                x509_print
                0x402436cc                x509_display_error
 *fill*         0x4024373a        0x2 
 .irom0.text    0x4024373c     0x292e c:/Espressif/ESP8266_SDK/lib\libssl.a(sha256.o)
                               0x293a (size before relaxing)
                0x4024375c                SHA256_Init
                0x40245e6c                SHA256_Update
                0x40245f0c                SHA256_Final
 *fill*         0x4024606a        0x2 
 .irom0.text    0x4024606c       0xe2 c:/Espressif/ESP8266_SDK/lib\libssl.a(sha384.o)
                                 0xee (size before relaxing)
                0x402460ac                SHA384_Init
                0x4024610c                SHA384_Update
                0x40246120                SHA384_Final
 *fill*         0x4024614e        0x2 
 .irom0.text    0x40246150      0x58e c:/Espressif/ESP8266_SDK/lib\libssl.a(sha512.o)
                                0x5c2 (size before relaxing)
                0x40246170                SHA512_Init
                0x40246568                SHA512_Update
                0x402465e8                SHA512_Final
 *fill*         0x402466de        0x2 
 .irom0.text    0x402466e0      0x8e5 c:/Espressif/ESP8266_SDK/lib\libssl.a(ssl_aes.o)
                                0x925 (size before relaxing)
                0x40246700                AES_set_key
                0x4024687c                AES_convert_key
                0x40246928                AES_cbc_encrypt
                0x40246a98                AES_cbc_decrypt
 *fill*         0x40246fc5        0x3 
 .irom0.text    0x40246fc8      0xa8f c:/Espressif/ESP8266_SDK/lib\libssl.a(ssl_asn1.o)
                                0xb4f (size before relaxing)
                0x40246fc8                get_asn1_length
                0x40247010                asn1_next_obj
                0x40247034                asn1_skip_obj
                0x4024706c                asn1_get_int
                0x402470d0                asn1_get_private_key
                0x40247474                asn1_version
                0x40247494                asn1_validity
                0x40247608                asn1_name
                0x402476b4                asn1_public_key
                0x40247750                asn1_signature
                0x402477e4                remove_ca_certs
                0x40247834                asn1_compare_dn
                0x40247878                asn1_find_oid
                0x4024790c                asn1_find_subjectaltname
                0x40247950                asn1_signature_type
 *fill*         0x40247a57        0x1 
 .irom0.text    0x40247a58     0x134b c:/Espressif/ESP8266_SDK/lib\libssl.a(ssl_bigint.o)
                               0x1403 (size before relaxing)
                0x40247a5c                bi_initialize
                0x40247aac                bi_terminate
                0x40247ae4                bi_clear_cache
                0x40247b34                bi_copy
                0x40247b58                bi_permanent
                0x40247b78                bi_depermanent
                0x40247b9c                bi_free
                0x40247bd8                int_to_bi
                0x40247bf4                bi_clone
                0x40247c2c                bi_add
                0x40247cac                bi_subtract
                0x40247dc8                bi_divide
                0x402481d8                bi_import
                0x40248250                bi_str_import
                0x402482dc                bi_print
                0x40248354                bi_export
                0x402483d4                bi_set_mod
                0x40248454                bi_free_mod
                0x402485bc                bi_multiply
                0x40248778                bi_square
                0x40248798                bi_compare
                0x402489c0                bi_barrett
                0x40248b20                bi_mod_power
                0x40248c80                bi_mod_power2
                0x40248d1c                bi_crt
 *fill*         0x40248da3        0x1 
 .irom0.text    0x40248da4      0x1a2 c:/Espressif/ESP8266_SDK/lib\libssl.a(ssl_crypto_misc.o)
                                0x1c2 (size before relaxing)
                0x40248da8                get_file
                0x40248e24                RNG_initialize
                0x40248e28                RNG_custom_init
                0x40248e2c                RNG_terminate
                0x40248e30                get_random
                0x40248e4c                get_random_NZ
                0x40248e98                print_blob
                0x40248ea4                base64_decode
 *fill*         0x40248f46        0x2 
 .irom0.text    0x40248f48      0x1c6 c:/Espressif/ESP8266_SDK/lib\libssl.a(ssl_hmac.o)
                                0x252 (size before relaxing)
                0x40248f4c                ssl_hmac_md5
                0x40249030                ssl_hmac_sha1
 *fill*         0x4024910e        0x2 
 .irom0.text    0x40249110      0x3b5 c:/Espressif/ESP8266_SDK/lib\libssl.a(ssl_rsa.o)
                                0x4e5 (size before relaxing)
                0x40249110                RSA_priv_key_new
                0x402491a0                RSA_pub_key_new
                0x40249210                RSA_free
                0x40249294                RSA_decrypt
                0x40249398                RSA_private
                0x402493c8                RSA_print
                0x402493f8                RSA_public
                0x40249418                RSA_encrypt
 *fill*         0x402494c5        0x3 
 .irom0.text    0x402494c8      0x350 c:/Espressif/ESP8266_SDK/lib\libssl.a(ssl_sha1.o)
                                0x368 (size before relaxing)
                0x402494cc                SHA1_Init
                0x402494f0                SHA1_Update
                0x40249544                SHA1_Final
 .irom0.text    0x40249818       0xdf c:/Espressif/ESP8266_SDK/lib\libcrypto.a(aes-wrap.o)
                                0x103 (size before relaxing)
                0x40249818                aes_wrap
 *fill*         0x402498f7        0x1 
 .irom0.text    0x402498f8      0x4c3 c:/Espressif/ESP8266_SDK/lib\libcrypto.a(aes-internal-enc.o)
                                0x4df (size before relaxing)
                0x40249908                rijndaelEncrypt
                0x40249d24                aes_encrypt_init
                0x40249d78                aes_encrypt
                0x40249d90                aes_encrypt_deinit
 *fill*         0x40249dbb        0x1 
 .irom0.text    0x40249dbc      0x304 c:/Espressif/ESP8266_SDK/lib\libcrypto.a(aes-internal.o)
                                0x31c (size before relaxing)
                0x40249dc0                rijndaelKeySetupEnc
 .irom0.text    0x4024a0c0      0x18b c:/Espressif/ESP8266_SDK/lib\libnet80211.a(ieee80211_crypto_tkip.o)
                                0x197 (size before relaxing)
 *fill*         0x4024a24b        0x1 
 .irom0.text    0x4024a24c       0x78 c:/Espressif/ESP8266_SDK/lib\libnet80211.a(ieee80211_crypto_wep.o)
                                 0x7c (size before relaxing)
 .irom0.literal
                0x4024a2c4        0x0 c:/Espressif/ESP8266_SDK/lib\libmain.a(app_main.o)
 *fill*         0x4024a2c4        0xc 
 .irom.text     0x4024a2d0      0x510 c:/Espressif/ESP8266_SDK/lib\libmain.a(app_main.o)
 .irom0.literal
                0x4024a7e0        0x0 c:/Espressif/ESP8266_SDK/lib\libmain.a(ets_timer.o)
 *fill*         0x4024a7e0        0x0 
 .irom.text     0x4024a7e0      0x14c c:/Espressif/ESP8266_SDK/lib\libmain.a(ets_timer.o)
 .irom0.literal
                0x4024a92c        0x0 c:/Espressif/ESP8266_SDK/lib\libmain.a(mem_manager.o)
 *fill*         0x4024a92c        0x4 
 .irom.text     0x4024a930       0x11 c:/Espressif/ESP8266_SDK/lib\libmain.a(mem_manager.o)
 *fill*         0x4024a941        0x3 
 .irom0.literal
                0x4024a944        0x0 c:/Espressif/ESP8266_SDK/lib\libmain.a(spi_flash.o)
 *fill*         0x4024a944        0xc 
 .irom.text     0x4024a950      0x12f c:/Espressif/ESP8266_SDK/lib\libmain.a(spi_flash.o)
 *fill*         0x4024aa7f        0x1 
 .irom0.literal
                0x4024aa80        0x0 c:/Espressif/ESP8266_SDK/lib\libmain.a(user_interface.o)
 *fill*         0x4024aa80        0x0 
 .irom.text     0x4024aa80      0x2d5 c:/Espressif/ESP8266_SDK/lib\libmain.a(user_interface.o)
                0x4024aaa0                default_ssid
 *fill*         0x4024ad55        0x3 
 .irom0.literal
                0x4024ad58        0x0 c:/Espressif/ESP8266_SDK/lib\libmain.a(eagle_lib.o)
 .irom0.literal
                0x4024ad58        0x0 c:/Espressif/ESP8266_SDK/lib\libmain.a(eagle_lwip_if.o)
 *fill*         0x4024ad58        0x8 
 .irom.text     0x4024ad60       0x63 c:/Espressif/ESP8266_SDK/lib\libmain.a(eagle_lwip_if.o)
 *fill*         0x4024adc3        0x1 
 .irom0.literal
                0x4024adc4        0x0 build/app_app.a(user_main.o)
 *fill*         0x4024adc4        0x0 
 .irom0.literal
                0x4024adc4        0x0 build/app_app.a(wifi_connector.o)
 *fill*         0x4024adc4        0x0 
 .irom0.literal
                0x4024adc4        0x0 build/app_app.a(uart.o)
 *fill*         0x4024adc4        0x0 
 .irom0.literal
                0x4024adc4        0x0 build/app_app.a(uartproto.o)
 *fill*         0x4024adc4        0x0 
 .irom0.literal
                0x4024adc4        0x0 c:/Espressif/ESP8266_SDK/lib\libphy.a(phy.o)
 *fill*         0x4024adc4        0x0 
 .irom0.literal
                0x4024adc4        0x0 c:/Espressif/ESP8266_SDK/lib\libphy.a(phy_chip_v6_ana.o)
 *fill*         0x4024adc4        0xc 
 .irom.text     0x4024add0       0x65 c:/Espressif/ESP8266_SDK/lib\libphy.a(phy_chip_v6_ana.o)
 *fill*         0x4024ae35        0x3 
 .irom0.literal
                0x4024ae38        0x0 c:/Espressif/ESP8266_SDK/lib\libphy.a(phy_chip_v6.o)
 *fill*         0x4024ae38        0x8 
 .irom.text     0x4024ae40      0x14c c:/Espressif/ESP8266_SDK/lib\libphy.a(phy_chip_v6.o)
 .irom0.literal
                0x4024af8c        0x0 c:/Espressif/ESP8266_SDK/lib\libphy.a(phy_chip_v6_cal.o)
 *fill*         0x4024af8c        0x4 
 .irom.text     0x4024af90      0x1f4 c:/Espressif/ESP8266_SDK/lib\libphy.a(phy_chip_v6_cal.o)
 .irom0.literal
                0x4024b184        0x0 c:/Espressif/ESP8266_SDK/lib\libphy.a(phy_chip_v6_unused.o)
 .irom0.text    0x4024b184        0xc c:/Espressif/ESP8266_SDK/lib\libphy.a(phy_chip_v6_unused.o)
                0x4024b184                chip_v6_set_sense
                0x4024b188                chip_v6_get_sense
                0x4024b18c                chip_v6_unset_chanfreq
 .irom0.literal
                0x4024b190        0x0 c:/Espressif/ESP8266_SDK/lib\libphy.a(phy_sleep.o)
 *fill*         0x4024b190        0x0 
 .irom0.literal
                0x4024b190        0x0 c:/Espressif/ESP8266_SDK/lib\libpp.a(if_hwctrl.o)
 *fill*         0x4024b190        0x0 
 .irom.text     0x4024b190       0x50 c:/Espressif/ESP8266_SDK/lib\libpp.a(if_hwctrl.o)
 .irom0.literal
                0x4024b1e0        0x0 c:/Espressif/ESP8266_SDK/lib\libpp.a(lmac.o)
 *fill*         0x4024b1e0        0x0 
 .irom.text     0x4024b1e0       0x2f c:/Espressif/ESP8266_SDK/lib\libpp.a(lmac.o)
 *fill*         0x4024b20f        0x1 
 .irom0.literal
                0x4024b210        0x0 c:/Espressif/ESP8266_SDK/lib\libpp.a(pm.o)
 *fill*         0x4024b210        0x0 
 .irom.text     0x4024b210      0x16d c:/Espressif/ESP8266_SDK/lib\libpp.a(pm.o)
 *fill*         0x4024b37d        0x3 
 .irom0.literal
                0x4024b380        0x0 c:/Espressif/ESP8266_SDK/lib\libpp.a(pm_for_bcn_only_mode.o)
 *fill*         0x4024b380        0x0 
 .irom.text     0x4024b380      0x118 c:/Espressif/ESP8266_SDK/lib\libpp.a(pm_for_bcn_only_mode.o)
 .irom0.literal
                0x4024b498        0x0 c:/Espressif/ESP8266_SDK/lib\libpp.a(pp.o)
 *fill*         0x4024b498        0x8 
 .irom.text     0x4024b4a0       0x5b c:/Espressif/ESP8266_SDK/lib\libpp.a(pp.o)
 *fill*         0x4024b4fb        0x1 
 .irom0.literal
                0x4024b4fc        0x0 c:/Espressif/ESP8266_SDK/lib\libpp.a(rate_control.o)
 *fill*         0x4024b4fc        0x0 
 .irom0.literal
                0x4024b4fc        0x0 c:/Espressif/ESP8266_SDK/lib\libpp.a(trc.o)
 *fill*         0x4024b4fc        0x4 
 .irom.text     0x4024b500       0x38 c:/Espressif/ESP8266_SDK/lib\libpp.a(trc.o)
 .irom0.literal
                0x4024b538        0x0 c:/Espressif/ESP8266_SDK/lib\libpp.a(wdev.o)
 *fill*         0x4024b538        0x0 
 .irom.text     0x4024b538        0x7 c:/Espressif/ESP8266_SDK/lib\libpp.a(wdev.o)
 *fill*         0x4024b53f        0x1 
 .irom0.literal
                0x4024b540        0x0 c:/Espressif/ESP8266_SDK/lib\libpp.a(esf_buf.o)
 *fill*         0x4024b540        0x0 
 .irom.text     0x4024b540        0xa c:/Espressif/ESP8266_SDK/lib\libpp.a(esf_buf.o)
 *fill*         0x4024b54a        0x2 
 .irom0.literal
                0x4024b54c        0x0 c:/Espressif/ESP8266_SDK/lib\libnet80211.a(ieee80211.o)
 *fill*         0x4024b54c        0x4 
 .irom.text     0x4024b550       0x82 c:/Espressif/ESP8266_SDK/lib\libnet80211.a(ieee80211.o)
                0x4024b560                ieee80211_opcap
 *fill*         0x4024b5d2        0x2 
 .irom0.literal
                0x4024b5d4        0x0 c:/Espressif/ESP8266_SDK/lib\libnet80211.a(ieee80211_crypto.o)
 *fill*         0x4024b5d4        0x0 
 .irom0.literal
                0x4024b5d4        0x0 c:/Espressif/ESP8266_SDK/lib\libnet80211.a(ieee80211_ets.o)
 .irom0.literal
                0x4024b5d4        0x0 c:/Espressif/ESP8266_SDK/lib\libnet80211.a(ieee80211_hostap.o)
 *fill*         0x4024b5d4        0xc 
 .irom.text     0x4024b5e0       0x4b c:/Espressif/ESP8266_SDK/lib\libnet80211.a(ieee80211_hostap.o)
 *fill*         0x4024b62b        0x1 
 .irom0.literal
                0x4024b62c        0x0 c:/Espressif/ESP8266_SDK/lib\libnet80211.a(ieee80211_ht.o)
 *fill*         0x4024b62c        0x4 
 .irom.text     0x4024b630       0x19 c:/Espressif/ESP8266_SDK/lib\libnet80211.a(ieee80211_ht.o)
 *fill*         0x4024b649        0x3 
 .irom0.literal
                0x4024b64c        0x0 c:/Espressif/ESP8266_SDK/lib\libnet80211.a(ieee80211_input.o)
 *fill*         0x4024b64c        0x4 
 .irom.text     0x4024b650       0x12 c:/Espressif/ESP8266_SDK/lib\libnet80211.a(ieee80211_input.o)
 *fill*         0x4024b662        0x2 
 .irom0.literal
                0x4024b664        0x0 c:/Espressif/ESP8266_SDK/lib\libnet80211.a(ieee80211_mesh_quick.o)
 *fill*         0x4024b664        0xc 
 .irom.text     0x4024b670       0x43 c:/Espressif/ESP8266_SDK/lib\libnet80211.a(ieee80211_mesh_quick.o)
 *fill*         0x4024b6b3        0x1 
 .irom0.literal
                0x4024b6b4        0x0 c:/Espressif/ESP8266_SDK/lib\libnet80211.a(ieee80211_output.o)
 *fill*         0x4024b6b4        0xc 
 .irom.text     0x4024b6c0       0x3d c:/Espressif/ESP8266_SDK/lib\libnet80211.a(ieee80211_output.o)
 *fill*         0x4024b6fd        0x3 
 .irom0.literal
                0x4024b700        0x0 c:/Espressif/ESP8266_SDK/lib\libnet80211.a(ieee80211_phy.o)
 *fill*         0x4024b700        0x0 
 .irom.text     0x4024b700      0x1b8 c:/Espressif/ESP8266_SDK/lib\libnet80211.a(ieee80211_phy.o)
 .irom0.literal
                0x4024b8b8        0x0 c:/Espressif/ESP8266_SDK/lib\libnet80211.a(ieee80211_power.o)
 *fill*         0x4024b8b8        0x0 
 .irom0.literal
                0x4024b8b8        0x0 c:/Espressif/ESP8266_SDK/lib\libnet80211.a(ieee80211_proto.o)
 *fill*         0x4024b8b8        0x8 
 .irom.text     0x4024b8c0       0x1c c:/Espressif/ESP8266_SDK/lib\libnet80211.a(ieee80211_proto.o)
 .irom0.literal
                0x4024b8dc        0x0 c:/Espressif/ESP8266_SDK/lib\libnet80211.a(ieee80211_regdomain.o)
 *fill*         0x4024b8dc        0x4 
 .irom.text     0x4024b8e0       0x2b c:/Espressif/ESP8266_SDK/lib\libnet80211.a(ieee80211_regdomain.o)
 *fill*         0x4024b90b        0x1 
 .irom0.literal
                0x4024b90c        0x0 c:/Espressif/ESP8266_SDK/lib\libnet80211.a(ieee80211_rfid.o)
 *fill*         0x4024b90c        0x0 
 .irom0.literal
                0x4024b90c        0x0 c:/Espressif/ESP8266_SDK/lib\libnet80211.a(ieee80211_scan.o)
 *fill*         0x4024b90c        0x4 
 .irom.text     0x4024b910       0x99 c:/Espressif/ESP8266_SDK/lib\libnet80211.a(ieee80211_scan.o)
 *fill*         0x4024b9a9        0x3 
 .irom0.literal
                0x4024b9ac        0x0 c:/Espressif/ESP8266_SDK/lib\libnet80211.a(ieee80211_sta.o)
 *fill*         0x4024b9ac        0x4 
 .irom.text     0x4024b9b0       0x26 c:/Espressif/ESP8266_SDK/lib\libnet80211.a(ieee80211_sta.o)
 *fill*         0x4024b9d6        0x2 
 .irom0.literal
                0x4024b9d8        0x0 c:/Espressif/ESP8266_SDK/lib\libnet80211.a(wl_chm.o)
 *fill*         0x4024b9d8        0x0 
 .irom0.literal
                0x4024b9d8        0x0 c:/Espressif/ESP8266_SDK/lib\libnet80211.a(wl_cnx.o)
 *fill*         0x4024b9d8        0x8 
 .irom.text     0x4024b9e0      0x1a7 c:/Espressif/ESP8266_SDK/lib\libnet80211.a(wl_cnx.o)
 *fill*         0x4024bb87        0x1 
 .irom0.literal
                0x4024bb88        0x0 c:/Espressif/ESP8266_SDK/lib\libnet80211.a(ieee80211_action.o)
 *fill*         0x4024bb88        0x0 
 .irom0.literal
                0x4024bb88        0x0 c:/Espressif/ESP8266_SDK/lib\libnet80211.a(ieee80211_action_vendor.o)
 *fill*         0x4024bb88        0x8 
 .irom.text     0x4024bb90       0xe3 c:/Espressif/ESP8266_SDK/lib\libnet80211.a(ieee80211_action_vendor.o)
 *fill*         0x4024bc73        0x1 
 .irom0.literal
                0x4024bc74        0x0 c:/Espressif/ESP8266_SDK/lib\libnet80211.a(ieee80211_crypto_ccmp.o)
 *fill*         0x4024bc74        0x0 
 .irom.text     0x4024bc74       0x18 c:/Espressif/ESP8266_SDK/lib\libnet80211.a(ieee80211_crypto_ccmp.o)
                0x4024bc74                ccmp
 .irom0.literal
                0x4024bc8c        0x0 c:/Espressif/ESP8266_SDK/lib\libnet80211.a(ieee80211_ie_vendor.o)
 *fill*         0x4024bc8c        0x0 
 .irom0.literal
                0x4024bc8c        0x0 c:/Espressif/ESP8266_SDK/lib\liblwip.a(dhcp.o)
 *fill*         0x4024bc8c        0x4 
 .irom.text     0x4024bc90       0x1e c:/Espressif/ESP8266_SDK/lib\liblwip.a(dhcp.o)
 *fill*         0x4024bcae        0x2 
 .irom0.literal
                0x4024bcb0        0x0 c:/Espressif/ESP8266_SDK/lib\liblwip.a(dhcpserver.o)
 *fill*         0x4024bcb0        0x0 
 .irom.text     0x4024bcb0       0x45 c:/Espressif/ESP8266_SDK/lib\liblwip.a(dhcpserver.o)
 *fill*         0x4024bcf5        0x3 
 .irom0.literal
                0x4024bcf8        0x0 c:/Espressif/ESP8266_SDK/lib\liblwip.a(dns.o)
 *fill*         0x4024bcf8        0x0 
 .irom.text     0x4024bcf8        0x6 c:/Espressif/ESP8266_SDK/lib\liblwip.a(dns.o)
 *fill*         0x4024bcfe        0x2 
 .irom0.literal
                0x4024bd00        0x0 c:/Espressif/ESP8266_SDK/lib\liblwip.a(espconn.o)
 *fill*         0x4024bd00        0x0 
 .irom.text     0x4024bd00        0xa c:/Espressif/ESP8266_SDK/lib\liblwip.a(espconn.o)
 *fill*         0x4024bd0a        0x2 
 .irom0.literal
                0x4024bd0c        0x0 c:/Espressif/ESP8266_SDK/lib\liblwip.a(espconn_tcp.o)
 *fill*         0x4024bd0c        0x4 
 .irom.text     0x4024bd10       0xab c:/Espressif/ESP8266_SDK/lib\liblwip.a(espconn_tcp.o)
 *fill*         0x4024bdbb        0x1 
 .irom0.literal
                0x4024bdbc        0x0 c:/Espressif/ESP8266_SDK/lib\liblwip.a(espconn_udp.o)
 *fill*         0x4024bdbc        0x4 
 .irom.text     0x4024bdc0        0xe c:/Espressif/ESP8266_SDK/lib\liblwip.a(espconn_udp.o)
 *fill*         0x4024bdce        0x2 
 .irom0.literal
                0x4024bdd0        0x0 c:/Espressif/ESP8266_SDK/lib\liblwip.a(etharp.o)
 *fill*         0x4024bdd0        0x0 
 .irom.text     0x4024bdd0        0x9 c:/Espressif/ESP8266_SDK/lib\liblwip.a(etharp.o)
 *fill*         0x4024bdd9        0x3 
 .irom0.literal
                0x4024bddc        0x0 c:/Espressif/ESP8266_SDK/lib\liblwip.a(igmp.o)
 *fill*         0x4024bddc        0x4 
 .irom.text     0x4024bde0        0x7 c:/Espressif/ESP8266_SDK/lib\liblwip.a(igmp.o)
 *fill*         0x4024bde7        0x1 
 .irom0.literal
                0x4024bde8        0x0 c:/Espressif/ESP8266_SDK/lib\liblwip.a(inet_chksum.o)
 .irom0.text    0x4024bde8      0x298 c:/Espressif/ESP8266_SDK/lib\liblwip.a(inet_chksum.o)
                0x4024be60                inet_chksum_pseudo
                0x4024bf20                inet_chksum_pseudo_partial
                0x4024bffc                inet_chksum
                0x4024c014                inet_chksum_pbuf
 .irom0.literal
                0x4024c080        0x0 c:/Espressif/ESP8266_SDK/lib\liblwip.a(init.o)
 .irom0.literal
                0x4024c080        0x0 c:/Espressif/ESP8266_SDK/lib\liblwip.a(ip_addr.o)
 *fill*         0x4024c080        0x0 
 .irom.text     0x4024c080        0x8 c:/Espressif/ESP8266_SDK/lib\liblwip.a(ip_addr.o)
                0x4024c080                ip_addr_any
                0x4024c084                ip_addr_broadcast
 .irom0.literal
                0x4024c088        0x0 c:/Espressif/ESP8266_SDK/lib\liblwip.a(ip.o)
 *fill*         0x4024c088        0x8 
 .irom.text     0x4024c090       0x11 c:/Espressif/ESP8266_SDK/lib\liblwip.a(ip.o)
 *fill*         0x4024c0a1        0xf 
 .irom.text     0x4024c0b0       0x28 c:/Espressif/ESP8266_SDK/lib\liblwip.a(memp.o)
                0x4024c0b0                memp_sizes
 .irom0.literal
                0x4024c0d8        0x0 c:/Espressif/ESP8266_SDK/lib\liblwip.a(netif.o)
 *fill*         0x4024c0d8        0x0 
 .irom0.literal
                0x4024c0d8        0x0 c:/Espressif/ESP8266_SDK/lib\liblwip.a(pbuf.o)
 *fill*         0x4024c0d8        0x0 
 .irom.text     0x4024c0d8        0x7 c:/Espressif/ESP8266_SDK/lib\liblwip.a(pbuf.o)
 *fill*         0x4024c0df        0x1 
 .irom0.literal
                0x4024c0e0        0x0 c:/Espressif/ESP8266_SDK/lib\liblwip.a(raw.o)
 *fill*         0x4024c0e0        0x0 
 .irom.text     0x4024c0e0        0x6 c:/Espressif/ESP8266_SDK/lib\liblwip.a(raw.o)
 *fill*         0x4024c0e6        0x2 
 .irom0.literal
                0x4024c0e8        0x0 c:/Espressif/ESP8266_SDK/lib\liblwip.a(sntp.o)
 *fill*         0x4024c0e8        0x8 
 .irom.text     0x4024c0f0       0x1b c:/Espressif/ESP8266_SDK/lib\liblwip.a(sntp.o)
 *fill*         0x4024c10b        0x1 
 .irom0.literal
                0x4024c10c        0x0 c:/Espressif/ESP8266_SDK/lib\liblwip.a(tcp_in.o)
 *fill*         0x4024c10c        0x4 
 .irom.text     0x4024c110        0x9 c:/Espressif/ESP8266_SDK/lib\liblwip.a(tcp_in.o)
 *fill*         0x4024c119        0x3 
 .irom0.literal
                0x4024c11c        0x0 c:/Espressif/ESP8266_SDK/lib\liblwip.a(tcp.o)
 *fill*         0x4024c11c        0x4 
 .irom.text     0x4024c120       0x3d c:/Espressif/ESP8266_SDK/lib\liblwip.a(tcp.o)
                0x4024c130                tcp_pcb_lists
                0x4024c140                tcp_persist_backoff
                0x4024c150                tcp_backoff
 *fill*         0x4024c15d        0x3 
 .irom0.literal
                0x4024c160        0x0 c:/Espressif/ESP8266_SDK/lib\liblwip.a(tcp_out.o)
 *fill*         0x4024c160        0x0 
 .irom.text     0x4024c160        0xa c:/Espressif/ESP8266_SDK/lib\liblwip.a(tcp_out.o)
 *fill*         0x4024c16a        0x2 
 .irom0.literal
                0x4024c16c        0x0 c:/Espressif/ESP8266_SDK/lib\liblwip.a(timers.o)
 *fill*         0x4024c16c        0x4 
 .irom.text     0x4024c170        0x9 c:/Espressif/ESP8266_SDK/lib\liblwip.a(timers.o)
 *fill*         0x4024c179        0x3 
 .irom0.literal
                0x4024c17c        0x0 c:/Espressif/ESP8266_SDK/lib\liblwip.a(udp.o)
 *fill*         0x4024c17c        0x4 
 .irom.text     0x4024c180        0x6 c:/Espressif/ESP8266_SDK/lib\liblwip.a(udp.o)
 *fill*         0x4024c186        0xa 
 .irom.text     0x4024c190       0x57 c:/Espressif/ESP8266_SDK/lib\liblwip.a(espconn_buf.o)
 *fill*         0x4024c1e7        0x1 
 .irom0.literal
                0x4024c1e8        0x0 c:/Espressif/ESP8266_SDK/lib\liblwip.a(icmp.o)
 *fill*         0x4024c1e8        0x0 
 .irom0.literal
                0x4024c1e8        0x0 c:/Espressif/ESP8266_SDK/lib\libwpa.a(ap_config.o)
 *fill*         0x4024c1e8        0x8 
 .irom.text     0x4024c1f0        0xc c:/Espressif/ESP8266_SDK/lib\libwpa.a(ap_config.o)
 .irom0.literal
                0x4024c1fc        0x0 c:/Espressif/ESP8266_SDK/lib\libwpa.a(common.o)
 *fill*         0x4024c1fc        0x4 
 .irom.text     0x4024c200        0x9 c:/Espressif/ESP8266_SDK/lib\libwpa.a(common.o)
 *fill*         0x4024c209        0x3 
 .irom0.literal
                0x4024c20c        0x0 c:/Espressif/ESP8266_SDK/lib\libwpa.a(os_xtensa.o)
 *fill*         0x4024c20c        0x4 
 .irom.text     0x4024c210        0xc c:/Espressif/ESP8266_SDK/lib\libwpa.a(os_xtensa.o)
 .irom0.literal
                0x4024c21c        0x0 c:/Espressif/ESP8266_SDK/lib\libwpa.a(wpa_auth.o)
 *fill*         0x4024c21c        0x4 
 .irom.text     0x4024c220       0x74 c:/Espressif/ESP8266_SDK/lib\libwpa.a(wpa_auth.o)
 .irom0.literal
                0x4024c294        0x0 c:/Espressif/ESP8266_SDK/lib\libwpa.a(wpa_auth_ie.o)
 *fill*         0x4024c294        0xc 
 .irom.text     0x4024c2a0        0xe c:/Espressif/ESP8266_SDK/lib\libwpa.a(wpa_auth_ie.o)
 *fill*         0x4024c2ae        0x2 
 .irom0.literal
                0x4024c2b0        0x0 c:/Espressif/ESP8266_SDK/lib\libwpa.a(wpa.o)
 *fill*         0x4024c2b0        0x0 
 .irom.text     0x4024c2b0       0x17 c:/Espressif/ESP8266_SDK/lib\libwpa.a(wpa.o)
 *fill*         0x4024c2c7        0x1 
 .irom0.literal
                0x4024c2c8        0x0 c:/Espressif/ESP8266_SDK/lib\libwpa.a(wpa_common.o)
 *fill*         0x4024c2c8        0x8 
 .irom.text     0x4024c2d0       0x1c c:/Espressif/ESP8266_SDK/lib\libwpa.a(wpa_common.o)
 .irom0.literal
                0x4024c2ec        0x0 c:/Espressif/ESP8266_SDK/lib\libwpa.a(wpa_debug.o)
 .irom0.literal
                0x4024c2ec        0x0 c:/Espressif/ESP8266_SDK/lib\libwpa.a(wpa_ie.o)
 *fill*         0x4024c2ec        0x0 
 .irom0.literal
                0x4024c2ec        0x0 c:/Espressif/ESP8266_SDK/lib\libwpa.a(wpa_main.o)
 *fill*         0x4024c2ec        0x4 
 .irom.text     0x4024c2f0       0x67 c:/Espressif/ESP8266_SDK/lib\libwpa.a(wpa_main.o)
 *fill*         0x4024c357        0x1 
 .irom0.literal
                0x4024c358        0x0 c:/Espressif/ESP8266_SDK/lib\libwpa.a(wpas_glue.o)
 *fill*         0x4024c358        0x0 
 .irom0.literal
                0x4024c358        0x0 c:/Espressif/ESP8266_SDK/lib\libmain.a(time.o)
 *fill*         0x4024c358        0x0 
 .irom0.literal
                0x4024c358        0x0 c:/Espressif/ESP8266_SDK/lib\libssl.a(espconn_secure.o)
 *fill*         0x4024c358        0x8 
 .irom.text     0x4024c360       0x11 c:/Espressif/ESP8266_SDK/lib\libssl.a(espconn_secure.o)
 *fill*         0x4024c371        0x3 
 .irom0.literal
                0x4024c374        0x0 c:/Espressif/ESP8266_SDK/lib\libssl.a(espconn_ssl.o)
 *fill*         0x4024c374        0xc 
 .irom.text     0x4024c380      0x1b9 c:/Espressif/ESP8266_SDK/lib\libssl.a(espconn_ssl.o)
 *fill*         0x4024c539        0x3 
 .irom0.literal
                0x4024c53c        0x0 c:/Espressif/ESP8266_SDK/lib\libssl.a(ssl_loader.o)
 *fill*         0x4024c53c        0x4 
 .irom.text     0x4024c540       0x29 c:/Espressif/ESP8266_SDK/lib\libssl.a(ssl_loader.o)
 *fill*         0x4024c569        0x3 
 .irom0.literal
                0x4024c56c        0x0 c:/Espressif/ESP8266_SDK/lib\libssl.a(ssl_md5.o)
 *fill*         0x4024c56c        0x0 
 .irom0.literal
                0x4024c56c        0x0 c:/Espressif/ESP8266_SDK/lib\libssl.a(ssl_tls1_clnt.o)
 *fill*         0x4024c56c        0x0 
 .irom0.literal
                0x4024c56c        0x0 c:/Espressif/ESP8266_SDK/lib\libssl.a(ssl_tls1.o)
 *fill*         0x4024c56c        0x4 
 .irom.text     0x4024c570      0x2c2 c:/Espressif/ESP8266_SDK/lib\libssl.a(ssl_tls1.o)
 *fill*         0x4024c832        0x2 
 .irom0.literal
                0x4024c834        0x0 c:/Espressif/ESP8266_SDK/lib\libssl.a(ssl_tls1_svr.o)
 .irom0.literal
                0x4024c834        0x0 c:/Espressif/ESP8266_SDK/lib\libssl.a(ssl_x509.o)
 *fill*         0x4024c834        0xc 
 .irom.text     0x4024c840       0xe8 c:/Espressif/ESP8266_SDK/lib\libssl.a(ssl_x509.o)
 .irom0.literal
                0x4024c928        0x0 c:/Espressif/ESP8266_SDK/lib\libssl.a(sha256.o)
 *fill*         0x4024c928        0x0 
 .irom0.literal
                0x4024c928        0x0 c:/Espressif/ESP8266_SDK/lib\libssl.a(sha384.o)
 *fill*         0x4024c928        0x0 
 .irom0.literal
                0x4024c928        0x0 c:/Espressif/ESP8266_SDK/lib\libssl.a(sha512.o)
 *fill*         0x4024c928        0x0 
 .irom0.literal
                0x4024c928        0x0 c:/Espressif/ESP8266_SDK/lib\libssl.a(ssl_aes.o)
 *fill*         0x4024c928        0x0 
 .irom0.literal
                0x4024c928        0x0 c:/Espressif/ESP8266_SDK/lib\libssl.a(ssl_asn1.o)
 *fill*         0x4024c928        0x8 
 .irom.text     0x4024c930       0x6a c:/Espressif/ESP8266_SDK/lib\libssl.a(ssl_asn1.o)
 *fill*         0x4024c99a        0x2 
 .irom0.literal
                0x4024c99c        0x0 c:/Espressif/ESP8266_SDK/lib\libssl.a(ssl_bigint.o)
 *fill*         0x4024c99c        0x4 
 .irom.text     0x4024c9a0        0xd c:/Espressif/ESP8266_SDK/lib\libssl.a(ssl_bigint.o)
 *fill*         0x4024c9ad        0x3 
 .irom0.literal
                0x4024c9b0        0x0 c:/Espressif/ESP8266_SDK/lib\libssl.a(ssl_crypto_misc.o)
 *fill*         0x4024c9b0        0x0 
 .irom.text     0x4024c9b0       0x12 c:/Espressif/ESP8266_SDK/lib\libssl.a(ssl_crypto_misc.o)
 *fill*         0x4024c9c2        0x2 
 .irom0.literal
                0x4024c9c4        0x0 c:/Espressif/ESP8266_SDK/lib\libssl.a(ssl_hmac.o)
 *fill*         0x4024c9c4        0x0 
 .irom0.literal
                0x4024c9c4        0x0 c:/Espressif/ESP8266_SDK/lib\libssl.a(ssl_rc4.o)
 .irom0.text    0x4024c9c4       0x9d c:/Espressif/ESP8266_SDK/lib\libssl.a(ssl_rc4.o)
                0x4024c9c4                RC4_setup
                0x4024ca1c                RC4_crypt
 *fill*         0x4024ca61        0x3 
 .irom0.literal
                0x4024ca64        0x0 c:/Espressif/ESP8266_SDK/lib\libssl.a(ssl_rsa.o)
 *fill*         0x4024ca64        0xc 
 .irom.text     0x4024ca70        0xa c:/Espressif/ESP8266_SDK/lib\libssl.a(ssl_rsa.o)
 *fill*         0x4024ca7a        0x2 
 .irom0.literal
                0x4024ca7c        0x0 c:/Espressif/ESP8266_SDK/lib\libssl.a(ssl_sha1.o)
 .irom0.literal
                0x4024ca7c        0x0 c:/Espressif/ESP8266_SDK/lib\libcrypto.a(aes-wrap.o)
 *fill*         0x4024ca7c        0x0 
 .irom0.literal
                0x4024ca7c        0x0 c:/Espressif/ESP8266_SDK/lib\libcrypto.a(aes-internal-enc.o)
 *fill*         0x4024ca7c        0x4 
 .irom.text     0x4024ca80       0x13 c:/Espressif/ESP8266_SDK/lib\libcrypto.a(aes-internal-enc.o)
 *fill*         0x4024ca93        0x1 
 .irom0.literal
                0x4024ca94        0x0 c:/Espressif/ESP8266_SDK/lib\libcrypto.a(aes-internal.o)
 .irom0.literal
                0x4024ca94        0x0 c:/Espressif/ESP8266_SDK/lib\libnet80211.a(ieee80211_crypto_tkip.o)
 *fill*         0x4024ca94        0x0 
 .irom.text     0x4024ca94       0x18 c:/Espressif/ESP8266_SDK/lib\libnet80211.a(ieee80211_crypto_tkip.o)
                0x4024ca94                tkip
 .irom0.literal
                0x4024caac        0x0 c:/Espressif/ESP8266_SDK/lib\libnet80211.a(ieee80211_crypto_wep.o)
 .irom.text     0x4024caac       0x18 c:/Espressif/ESP8266_SDK/lib\libnet80211.a(ieee80211_crypto_wep.o)
                0x4024caac                wep
                0x4024cac4                _irom0_text_end = ABSOLUTE (.)

.text           0x40100000     0x7d58
                0x40100000                _stext = .
                0x40100000                _text_start = ABSOLUTE (.)
 *(.UserEnter.text)
 .UserEnter.text
                0x40100000        0xd c:/Espressif/ESP8266_SDK/lib\libmain.a(vector.o)
                                 0x14 (size before relaxing)
                0x40100004                call_user_start
                0x40100010                . = ALIGN (0x10)
 *fill*         0x4010000d        0x3 
 *(.DebugExceptionVector.text)
 .DebugExceptionVector.text
                0x40100010        0x6 c:/Espressif/ESP8266_SDK/lib\libmain.a(debug-vector.o)
                0x40100010                _DebugExceptionVector
                0x40100020                . = ALIGN (0x10)
 *fill*         0x40100016        0xa 
 *(.NMIExceptionVector.text)
 .NMIExceptionVector.text
                0x40100020        0x6 c:/Espressif/ESP8266_SDK/lib\libmain.a(nmi-vector.o)
                                  0xd (size before relaxing)
                0x40100020                _NMIExceptionVector
                0x40100030                . = ALIGN (0x10)
 *fill*         0x40100026        0xa 
 *(.KernelExceptionVector.text)
 .KernelExceptionVector.text
                0x40100030        0x6 c:/Espressif/ESP8266_SDK/lib\libmain.a(kernel-vector.o)
                0x40100030                _KernelExceptionVector
                0x40100036        0x4 LONG 0x0
                0x4010003a        0x4 LONG 0x0
                0x4010003e        0x4 LONG 0x0
                0x40100042        0x4 LONG 0x0
                0x40100050                . = ALIGN (0x10)
 *fill*         0x40100046        0xa 
 *(.UserExceptionVector.text)
 .UserExceptionVector.text
                0x40100050        0x6 c:/Espressif/ESP8266_SDK/lib\libmain.a(user-vector.o)
                                  0xd (size before relaxing)
                0x40100050                _UserExceptionVector
                0x40100056        0x4 LONG 0x0
                0x4010005a        0x4 LONG 0x0
                0x4010005e        0x4 LONG 0x0
                0x40100062        0x4 LONG 0x0
                0x40100070                . = ALIGN (0x10)
 *fill*         0x40100066        0xa 
 *(.DoubleExceptionVector.text)
 .DoubleExceptionVector.text
                0x40100070        0x6 c:/Espressif/ESP8266_SDK/lib\libmain.a(double-vector.o)
                0x40100070                _DoubleExceptionVector
                0x40100076        0x4 LONG 0x0
                0x4010007a        0x4 LONG 0x0
                0x4010007e        0x4 LONG 0x0
                0x40100082        0x4 LONG 0x0
                0x40100090                . = ALIGN (0x10)
 *fill*         0x40100086        0xa 
 *(.entry.text)
 *(.init.literal)
 *(.init)
 *(.literal .text .literal.* .text.* .stub .gnu.warning .gnu.linkonce.literal.* .gnu.linkonce.t.*.literal .gnu.linkonce.t.*)
 .text          0x40100090       0xc7 c:/Espressif/ESP8266_SDK/lib\libmain.a(nmi-vector.o)
                                 0xcb (size before relaxing)
                0x4010009c                _NMILevelVector
 *fill*         0x40100157        0x1 
 .text          0x40100158       0x1e c:/Espressif/ESP8266_SDK/lib\libmain.a(user-vector.o)
                0x4010015c                _UserExceptionVector_1
 *fill*         0x40100176        0x2 
 .text          0x40100178      0x67a c:/Espressif/ESP8266_SDK/lib\libmain.a(app_main.o)
                                0x6f6 (size before relaxing)
                0x401001b0                Cache_Read_Enable_New
                0x401001ec                NmiTimSetFunc
                0x40100210                NMI_Handler
                0x40100268                call_user_start_local
                0x401003c8                wdt_feed
 *fill*         0x401007f2        0x2 
 .text          0x401007f4      0x3cc c:/Espressif/ESP8266_SDK/lib\libmain.a(ets_timer.o)
                                0x450 (size before relaxing)
                0x401008c8                ets_timer_setfn
                0x401009a4                ets_timer_disarm
                0x40100a54                ets_timer_arm_new
 .text          0x40100bc0      0x30f c:/Espressif/ESP8266_SDK/lib\libmain.a(mem_manager.o)
                                0x367 (size before relaxing)
                0x40100bc4                prvInsertBlockIntoUsedList
                0x40100bf4                system_show_malloc
                0x40100bf4                pvShowMalloc
                0x40100c80                prvRemoveBlockFromUsedList
                0x40100cac                xPortWantedSizeAlign
                0x40100cd4                pvPortMalloc
                0x40100d9c                vPortFree
                0x40100df4                pvPortCalloc
                0x40100e24                pvPortZalloc
                0x40100e40                pvPortRealloc
 *fill*         0x40100ecf        0x1 
 .text          0x40100ed0      0x9b3 c:/Espressif/ESP8266_SDK/lib\libmain.a(spi_flash.o)
                                0xb1f (size before relaxing)
                0x40100ed4                Cache_Read_Disable_2
                0x40100f14                Cache_Read_Enable_2
                0x40100f64                spi_flash_get_unique_id
                0x401010c8                spi_flash_get_id
                0x40101124                spi_flash_read_status
                0x40101158                spi_flash_write_status
                0x401011c0                flash_gd25q32c_read_status
                0x40101354                flash_gd25q32c_write_status
                0x401014e0                spi_flash_check_wr_protect
                0x40101574                spi_flash_erase_sector
                0x401015a4                spi_flash_enable_qmode
                0x401015d4                spi_flash_write
                0x40101628                spi_flash_read
                0x40101694                spi_flash_issi_enable_QIO_mode
                0x40101834                flash_gd25q32c_enable_QIO_mode
 *fill*         0x40101883        0x1 
 .text          0x40101884      0x336 c:/Espressif/ESP8266_SDK/lib\libmain.a(user_interface.o)
                                0x39e (size before relaxing)
                0x401018a0                os_printf_plus
                0x401019cc                system_restart_core
                0x40101a0c                system_deep_sleep_local_2
                0x40101ac0                system_get_time
                0x40101ad8                system_os_post
                0x40101b0c                system_rtc_mem_write
                0x40101b64                system_rtc_mem_read
 *fill*         0x40101bba        0x2 
 .text          0x40101bbc       0x97 build/app_app.a(user_main.o)
                                 0xd7 (size before relaxing)
                0x40101bc0                OnSystemInitDone
                0x40101bd8                user_rf_pre_init
                0x40101c00                user_init
 *fill*         0x40101c53        0x1 
 .text          0x40101c54      0x934 build/app_app.a(wifi_connector.o)
                                0xbe4 (size before relaxing)
                0x40101c78                wifi_handle_event_cb
                0x40101d94                AutoDiscoverySendTimerCallback
                0x40101e28                TcpSendData(unsigned char*, unsigned short)
                0x40101ec4                TcpSendCommand(char const*)
                0x40101f34                TcpSendCommand(char const*, char const*)
                0x40101fcc                TcpProcessCommand()
                0x40102054                WifiEnterConfigMode()
                0x401021b0                WifiEnterWorkMode()
                0x4010235c                WifiConnectorInit()
                0x4010244c                WifiStationReconnect()
                0x4010256c                WifiIsValidServerAddress()
 .text          0x40102588      0x161 build/app_app.a(userconfig.o)
                                0x1b5 (size before relaxing)
                0x401025ac                ConfigLoad()
                0x401026b0                ConfigSave()
 *fill*         0x401026e9        0x3 
 .text          0x401026ec      0x1ad build/app_app.a(uart.o)
                                0x1cd (size before relaxing)
                0x401027d8                uart_tx_one_char
                0x40102804                uart_tx_one_char_no_wait
                0x40102830                uart1_sendStr_no_wait
                0x40102854                rx_buff_enq
                0x40102858                tx_start_uart_buffer
                0x4010285c                uart_rx_intr_disable
                0x4010287c                uart_rx_intr_enable
 *fill*         0x40102899        0x3 
 .text          0x4010289c       0x3c build/app_app.a(uartproto.o)
                                 0x4c (size before relaxing)
                0x401028b0                UartTaskInit()
 .text          0x401028d8       0x8f build/app_app.a(cpp_req.o)
                                 0x9b (size before relaxing)
                0x401028dc                operator new[](unsigned int)
                0x401028f4                operator new(unsigned int)
                0x40102904                operator delete[](void*)
                0x4010291c                operator delete(void*)
                0x4010292c                abort
                0x40102930                __cxa_pure_virtual
                0x40102934                __cxa_deleted_virtual
                0x40102940                do_global_ctors()
 *fill*         0x40102967        0x1 
 .literal       0x40102968        0x8 c:/espressif/xtensa-lx106-elf/bin/../lib/gcc/xtensa-lx106-elf/5.2.0/../../../../xtensa-lx106-elf/lib\libc.a(lib_a-strlen.o)
                                  0xc (size before relaxing)
 .literal       0x40102970        0x8 c:/espressif/xtensa-lx106-elf/bin/../lib/gcc/xtensa-lx106-elf/5.2.0/../../../../xtensa-lx106-elf/lib\libc.a(lib_a-sysgettod.o)
 .literal       0x40102978        0x4 c:/Espressif/ESP8266_SDK/lib\libgcc.a(_mulsf3.o)
                                 0x10 (size before relaxing)
 .literal       0x4010297c        0x0 c:/Espressif/ESP8266_SDK/lib\libgcc.a(_divsf3.o)
                                 0x10 (size before relaxing)
 .literal       0x4010297c        0x0 c:/Espressif/ESP8266_SDK/lib\libgcc.a(_fixsfsi.o)
                                  0x4 (size before relaxing)
 .text          0x4010297c       0x5b c:/espressif/xtensa-lx106-elf/bin/../lib/gcc/xtensa-lx106-elf/5.2.0/../../../../xtensa-lx106-elf/lib\libc.a(lib_a-strlen.o)
                0x4010297c                strlen
 *fill*         0x401029d7        0x1 
 .text          0x401029d8       0x53 c:/Espressif/ESP8266_SDK/lib\libphy.a(phy.o)
                                 0x5f (size before relaxing)
                0x401029e0                register_phy_ops
                0x40102a00                register_get_phy_addr
                0x40102a08                phy_change_channel
                0x40102a20                phy_get_mactime
 *fill*         0x40102a2b        0x1 
 .text          0x40102a2c      0x262 c:/Espressif/ESP8266_SDK/lib\libphy.a(phy_chip_v6_ana.o)
                                0x276 (size before relaxing)
                0x40102a4c                phy_adc_read_fast
 *fill*         0x40102c8e        0x2 
 .text          0x40102c90       0x4d c:/Espressif/ESP8266_SDK/lib\libphy.a(phy_chip_v6.o)
                                 0x55 (size before relaxing)
                0x40102ca0                phy_debug_print
 *fill*         0x40102cdd        0x3 
 .text          0x40102ce0      0x20e c:/Espressif/ESP8266_SDK/lib\libphy.a(phy_chip_v6_cal.o)
                                0x21a (size before relaxing)
                0x40102cec                tx_pwr_backoff_old
                0x40102e3c                unsign_to_sign
                0x40102e78                phy_get_bb_freqoffset
                0x40102ee0                phy_get_bb_evm
 *fill*         0x40102eee        0x2 
 .text          0x40102ef0      0x257 c:/Espressif/ESP8266_SDK/lib\libphy.a(phy_sleep.o)
                                0x287 (size before relaxing)
                0x40102ef8                pm_rtc_clock_cali
                0x40102fcc                pm_goto_sleep
                0x4010311c                clockgate_watchdog
 *fill*         0x40103147        0x1 
 .text          0x40103148     0x161e c:/Espressif/ESP8266_SDK/lib\libpp.a(lmac.o)
                               0x1982 (size before relaxing)
                0x4010314c                lmacIsActive
                0x40103160                lmacIsIdle
                0x401035e0                lmacSetAcParam
                0x40103634                lmacProcessTXStartData
                0x401037e0                lmacProcessTxSuccess
                0x40103924                GetAccess
                0x40103930                lmacDiscardAgedMSDU
                0x40103944                lmacRecycleMPDU
                0x40103f0c                lmacProcessTxTimeout
                0x40103f74                lmacProcessAllTxTimeout
                0x40103f88                lmacProcessCollisions
                0x40103fe8                lmacProcessCollision
                0x40104058                lmacMSDUAged
                0x401043e8                lmacProcessCtsTimeout
                0x40104420                lmacProcessAckTimeout
                0x40104478                lmacProcessRtsStart
                0x40104484                lmacProcessTxRtsError
                0x40104524                lmacProcessTxError
                0x401045b4                lmacTxFrame
                0x40104750                lmacRxDone
 *fill*         0x40104766        0x2 
 .text          0x40104768      0x8e1 c:/Espressif/ESP8266_SDK/lib\libpp.a(pp.o)
                                0x9fd (size before relaxing)
                0x4010479c                pp_soft_wdt_feed_local
                0x40104830                ppProcessTxQ
                0x401048a4                ppFetchTxQFirstAvail
                0x401048e4                ppDequeueTxQ
                0x4010490c                ppRollBackTxQ
                0x40104930                ppRecordBarRRC
                0x40104940                ppTxqUpdateBitmap
                0x40104968                ppEnqueueTxDone
                0x4010499c                ppEnqueueRxq
                0x40104e84                ppDiscardMPDU
                0x40104ea8                pp_post
                0x40104f34                pp_post2
                0x40104f5c                ppCalTxop
                0x40104fdc                ppCalFrameTimes
 *fill*         0x40105049        0x3 
 .text          0x4010504c       0xf5 c:/Espressif/ESP8266_SDK/lib\libpp.a(rate_control.o)
                                0x109 (size before relaxing)
                0x4010506c                RC_GetAckRate
                0x40105078                RC_GetRtsRate
                0x40105088                RC_GetAckTime
                0x4010509c                RC_GetCtsTime
                0x401050d4                RC_GetBlockAckTime
 *fill*         0x40105141        0x3 
 .text          0x40105144      0x9a1 c:/Espressif/ESP8266_SDK/lib\libpp.a(trc.o)
                                0xa05 (size before relaxing)
                0x40105318                rcUpdateTxDone
                0x401053ac                rcUpdateRxDone
                0x40105408                rcUpdateDataRxDone
                0x40105424                rcGetSched
                0x40105508                rcGetRate
                0x40105a18                rcReachRetryLimit
                0x40105a30                trc_NeedRTS
 *fill*         0x40105ae5        0x3 
 .text          0x40105ae8     0x1057 c:/Espressif/ESP8266_SDK/lib\libpp.a(wdev.o)
                               0x1347 (size before relaxing)
                0x40105e88                wDev_MacTim1SetFunc
                0x40105ea8                wDev_MacTim1Arm
                0x40105f3c                wDev_ProcessFiq
                0x40106280                wDev_EnableTransmit
                0x401062b8                wDev_DisableTransmit
                0x401062d8                Tx_Copy2Queue
                0x40106320                wDev_ProcessCollision
                0x40106344                wDev_GetTxqCollisions
                0x40106354                wDev_ClearTxqCollisions
                0x40106370                wDev_SetWaitingQueue
                0x401063b8                wDev_ClearWaitingQueue
                0x401063dc                wDev_SetFrameAckType
                0x4010643c                wDev_AppendRxBlocks
                0x40106580                wDev_AppendRxAmpduLensBlocks
                0x40106654                wDev_GetBAInfo
                0x40106688                wDevDisableRx
 *fill*         0x40106b3f        0x1 
 .text          0x40106b40       0x4c c:/Espressif/ESP8266_SDK/lib\libpp.a(esf_buf.o)
                                 0x5c (size before relaxing)
                0x40106b44                esf_rx_buf_alloc
 .text          0x40106b8c       0x46 c:/Espressif/ESP8266_SDK/lib\libnet80211.a(ieee80211_output.o)
                                 0x4e (size before relaxing)
 *fill*         0x40106bd2        0x2 
 .text          0x40106bd4        0xb c:/Espressif/ESP8266_SDK/lib\libnet80211.a(wl_chm.o)
                0x40106bd8                chm_get_current_channel
 *fill*         0x40106bdf        0x1 
 .text          0x40106be0       0x43 c:/Espressif/ESP8266_SDK/lib\liblwip.a(etharp.o)
                                 0x47 (size before relaxing)
 *fill*         0x40106c23        0x1 
 .text          0x40106c24       0xe0 c:/Espressif/ESP8266_SDK/lib\liblwip.a(sntp.o)
                                 0xf0 (size before relaxing)
                0x40106c2c                sntp_get_current_timestamp
                0x40106c54                sntp_get_real_time
                0x40106cfc                sntp_get_timetype
 .text          0x40106d04      0x201 c:/Espressif/ESP8266_SDK/lib\liblwip.a(tcp.o)
                                0x229 (size before relaxing)
 *fill*         0x40106f05        0x3 
 .text          0x40106f08      0x159 c:/Espressif/ESP8266_SDK/lib\liblwip.a(tcp_out.o)
                                0x161 (size before relaxing)
 *fill*         0x40107061        0x3 
 .text          0x40107064       0xb4 c:/Espressif/ESP8266_SDK/lib\liblwip.a(timers.o)
                                 0xc0 (size before relaxing)
 .text          0x40107118      0x48f c:/Espressif/ESP8266_SDK/lib\liblwip.a(espconn_buf.o)
                                0x50e (size before relaxing)
                0x4010711c                ringbuf_new
                0x4010716c                ringbuf_buffer_size
                0x40107170                ringbuf_reset
                0x40107180                ringbuf_free
                0x401071c0                ringbuf_capacity
                0x401071f0                ringbuf_bytes_free
                0x40107220                ringbuf_bytes_used
                0x40107244                ringbuf_is_full
                0x4010725c                ringbuf_is_empty
                0x40107284                ringbuf_tail
                0x40107288                ringbuf_head
                0x401072e4                ringbuf_findchr
                0x40107384                ringbuf_memset
                0x4010744c                ringbuf_memcpy_into
                0x40107504                ringbuf_memcpy_from
 *fill*         0x401075a7        0x1 
 .text          0x401075a8      0x1bb c:/Espressif/ESP8266_SDK/lib\libmain.a(time.o)
                                0x1fb (size before relaxing)
                0x401075bc                sntp_get_rtc_time
                0x4010766c                sntp_update_rtc
 *fill*         0x40107763        0x1 
 .text          0x40107764       0x1b c:/espressif/xtensa-lx106-elf/bin/../lib/gcc/xtensa-lx106-elf/5.2.0/../../../../xtensa-lx106-elf/lib\libc.a(lib_a-sysgettod.o)
                0x40107764                gettimeofday
 *fill*         0x4010777f        0x1 
 .text          0x40107780      0x15d c:/Espressif/ESP8266_SDK/lib\libgcc.a(_mulsf3.o)
                0x401077f8                __mulsf3
 *fill*         0x401078dd        0x3 
 .text          0x401078e0      0x135 c:/Espressif/ESP8266_SDK/lib\libgcc.a(_divsf3.o)
                0x4010795c                __divsf3
 *fill*         0x40107a15        0x3 
 .text          0x40107a18       0x40 c:/Espressif/ESP8266_SDK/lib\libgcc.a(_fixsfsi.o)
                0x40107a18                __fixsfsi
 .text          0x40107a58        0x0 c:/Espressif/ESP8266_SDK/lib\libmain.a(debug-vector.o)
 .text          0x40107a58        0x0 c:/Espressif/ESP8266_SDK/lib\libmain.a(double-vector.o)
 .text          0x40107a58        0x0 c:/Espressif/ESP8266_SDK/lib\libmain.a(kernel-vector.o)
 .literal       0x40107a58        0x0 c:/Espressif/ESP8266_SDK/lib\libmain.a(nmi-vector.o)
 *fill*         0x40107a58        0x0 
 .literal       0x40107a58        0x0 c:/Espressif/ESP8266_SDK/lib\libmain.a(user-vector.o)
 .text          0x40107a58        0x0 c:/Espressif/ESP8266_SDK/lib\libmain.a(vector.o)
 *fill*         0x40107a58        0x0 
 .literal       0x40107a58        0x0 c:/Espressif/ESP8266_SDK/lib\libmain.a(app_main.o)
 *fill*         0x40107a58        0x0 
 .literal       0x40107a58        0x0 c:/Espressif/ESP8266_SDK/lib\libmain.a(ets_timer.o)
 .literal       0x40107a58        0x0 c:/Espressif/ESP8266_SDK/lib\libmain.a(mem_manager.o)
 *fill*         0x40107a58        0x0 
 .literal       0x40107a58        0x0 c:/Espressif/ESP8266_SDK/lib\libmain.a(spi_flash.o)
 *fill*         0x40107a58        0x0 
 .literal       0x40107a58        0x0 c:/Espressif/ESP8266_SDK/lib\libmain.a(user_interface.o)
 .text          0x40107a58        0x0 c:/Espressif/ESP8266_SDK/lib\libmain.a(eagle_lib.o)
 .text          0x40107a58        0x0 c:/Espressif/ESP8266_SDK/lib\libmain.a(eagle_lwip_if.o)
 *fill*         0x40107a58        0x0 
 .literal       0x40107a58        0x0 build/app_app.a(user_main.o)
 *fill*         0x40107a58        0x0 
 .literal       0x40107a58        0x0 build/app_app.a(wifi_connector.o)
 .literal       0x40107a58        0x0 build/app_app.a(userconfig.o)
 *fill*         0x40107a58        0x0 
 .literal       0x40107a58        0x0 build/app_app.a(uart.o)
 *fill*         0x40107a58        0x0 
 .literal       0x40107a58        0x0 build/app_app.a(uartproto.o)
 .literal       0x40107a58        0x0 build/app_app.a(cpp_req.o)
 *fill*         0x40107a58        0x0 
 .literal       0x40107a58        0x0 build/app_app.a(sfifo.o)
 .text          0x40107a58       0xc1 build/app_app.a(sfifo.o)
                0x40107a58                fifo_init(fifo_t*, char*, int)
                0x40107a64                fifo_read(fifo_t*, void*, int)
                0x40107aac                fifo_write(fifo_t*, void const*, int)
                0x40107b04                fifo_getsize(fifo_t*)
 *fill*         0x40107b19        0x3 
 .text          0x40107b1c      0x145 c:/espressif/xtensa-lx106-elf/bin/../lib/gcc/xtensa-lx106-elf/5.2.0/../../../../xtensa-lx106-elf/lib\libc.a(lib_a-memcpy.o)
                0x40107b60                memcpy
 *fill*         0x40107c61        0x3 
 .text          0x40107c64       0x13 c:/espressif/xtensa-lx106-elf/bin/../lib/gcc/xtensa-lx106-elf/5.2.0/../../../../xtensa-lx106-elf/lib\libc.a(lib_a-stpcpy.o)
                0x40107c64                stpcpy
 *fill*         0x40107c77        0x0 
 *fill*         0x40107c77        0x1 
 .text          0x40107c78        0x5 c:/espressif/xtensa-lx106-elf/bin/../lib/gcc/xtensa-lx106-elf/5.2.0/../../../../xtensa-lx106-elf/lib\libhal.a(int_asm--set_intclear.o)
                0x40107c78                xthal_set_intclear
 *fill*         0x40107c7d        0x3 
 .literal       0x40107c80        0x0 c:/Espressif/ESP8266_SDK/lib\libphy.a(phy.o)
 *fill*         0x40107c80        0x0 
 .literal       0x40107c80        0x0 c:/Espressif/ESP8266_SDK/lib\libphy.a(phy_chip_v6_ana.o)
 *fill*         0x40107c80        0x0 
 .literal       0x40107c80        0x0 c:/Espressif/ESP8266_SDK/lib\libphy.a(phy_chip_v6.o)
 *fill*         0x40107c80        0x0 
 .literal       0x40107c80        0x0 c:/Espressif/ESP8266_SDK/lib\libphy.a(phy_chip_v6_cal.o)
 .text          0x40107c80        0x0 c:/Espressif/ESP8266_SDK/lib\libphy.a(phy_chip_v6_unused.o)
 *fill*         0x40107c80        0x0 
 .literal       0x40107c80        0x0 c:/Espressif/ESP8266_SDK/lib\libphy.a(phy_sleep.o)
 .text          0x40107c80        0x0 c:/Espressif/ESP8266_SDK/lib\libpp.a(if_hwctrl.o)
 *fill*         0x40107c80        0x0 
 .literal       0x40107c80        0x0 c:/Espressif/ESP8266_SDK/lib\libpp.a(lmac.o)
 .text          0x40107c80        0x0 c:/Espressif/ESP8266_SDK/lib\libpp.a(pm.o)
 .text          0x40107c80        0x0 c:/Espressif/ESP8266_SDK/lib\libpp.a(pm_for_bcn_only_mode.o)
 *fill*         0x40107c80        0x0 
 .literal       0x40107c80        0x0 c:/Espressif/ESP8266_SDK/lib\libpp.a(pp.o)
 *fill*         0x40107c80        0x0 
 .literal       0x40107c80        0x0 c:/Espressif/ESP8266_SDK/lib\libpp.a(rate_control.o)
 *fill*         0x40107c80        0x0 
 .literal       0x40107c80        0x0 c:/Espressif/ESP8266_SDK/lib\libpp.a(trc.o)
 *fill*         0x40107c80        0x0 
 .literal       0x40107c80        0x0 c:/Espressif/ESP8266_SDK/lib\libpp.a(wdev.o)
 *fill*         0x40107c80        0x0 
 .literal       0x40107c80        0x0 c:/Espressif/ESP8266_SDK/lib\libpp.a(esf_buf.o)
 .text          0x40107c80        0x0 c:/Espressif/ESP8266_SDK/lib\libnet80211.a(ieee80211.o)
 .text          0x40107c80        0x0 c:/Espressif/ESP8266_SDK/lib\libnet80211.a(ieee80211_crypto.o)
 .text          0x40107c80        0x0 c:/Espressif/ESP8266_SDK/lib\libnet80211.a(ieee80211_ets.o)
 .literal       0x40107c80        0x0 c:/Espressif/ESP8266_SDK/lib\libnet80211.a(ieee80211_hostap.o)
 .text          0x40107c80       0x25 c:/Espressif/ESP8266_SDK/lib\libnet80211.a(ieee80211_hostap.o)
 .text          0x40107ca5        0x0 c:/Espressif/ESP8266_SDK/lib\libnet80211.a(ieee80211_ht.o)
 .text          0x40107ca5        0x0 c:/Espressif/ESP8266_SDK/lib\libnet80211.a(ieee80211_input.o)
 .text          0x40107ca5        0x0 c:/Espressif/ESP8266_SDK/lib\libnet80211.a(ieee80211_mesh_quick.o)
 *fill*         0x40107ca5        0x3 
 .literal       0x40107ca8        0x0 c:/Espressif/ESP8266_SDK/lib\libnet80211.a(ieee80211_output.o)
 .text          0x40107ca8        0x0 c:/Espressif/ESP8266_SDK/lib\libnet80211.a(ieee80211_phy.o)
 .text          0x40107ca8        0x0 c:/Espressif/ESP8266_SDK/lib\libnet80211.a(ieee80211_power.o)
 .text          0x40107ca8        0x0 c:/Espressif/ESP8266_SDK/lib\libnet80211.a(ieee80211_proto.o)
 .text          0x40107ca8        0x0 c:/Espressif/ESP8266_SDK/lib\libnet80211.a(ieee80211_regdomain.o)
 .text          0x40107ca8        0x0 c:/Espressif/ESP8266_SDK/lib\libnet80211.a(ieee80211_rfid.o)
 .text          0x40107ca8        0x0 c:/Espressif/ESP8266_SDK/lib\libnet80211.a(ieee80211_scan.o)
 .text          0x40107ca8        0x0 c:/Espressif/ESP8266_SDK/lib\libnet80211.a(ieee80211_sta.o)
 *fill*         0x40107ca8        0x0 
 .literal       0x40107ca8        0x0 c:/Espressif/ESP8266_SDK/lib\libnet80211.a(wl_chm.o)
 .text          0x40107ca8        0x0 c:/Espressif/ESP8266_SDK/lib\libnet80211.a(wl_cnx.o)
 .text          0x40107ca8        0x0 c:/Espressif/ESP8266_SDK/lib\libnet80211.a(ieee80211_action.o)
 .text          0x40107ca8        0x0 c:/Espressif/ESP8266_SDK/lib\libnet80211.a(ieee80211_action_vendor.o)
 .text          0x40107ca8        0x0 c:/Espressif/ESP8266_SDK/lib\libnet80211.a(ieee80211_crypto_ccmp.o)
 .text          0x40107ca8        0x0 c:/Espressif/ESP8266_SDK/lib\libnet80211.a(ieee80211_ie_vendor.o)
 .text          0x40107ca8        0x0 c:/Espressif/ESP8266_SDK/lib\liblwip.a(dhcp.o)
 .text          0x40107ca8        0x0 c:/Espressif/ESP8266_SDK/lib\liblwip.a(dhcpserver.o)
 .text          0x40107ca8        0x0 c:/Espressif/ESP8266_SDK/lib\liblwip.a(dns.o)
 .text          0x40107ca8        0x0 c:/Espressif/ESP8266_SDK/lib\liblwip.a(espconn.o)
 .text          0x40107ca8        0x0 c:/Espressif/ESP8266_SDK/lib\liblwip.a(espconn_tcp.o)
 .text          0x40107ca8        0x0 c:/Espressif/ESP8266_SDK/lib\liblwip.a(espconn_udp.o)
 *fill*         0x40107ca8        0x0 
 .literal       0x40107ca8        0x0 c:/Espressif/ESP8266_SDK/lib\liblwip.a(etharp.o)
 .text          0x40107ca8        0x0 c:/Espressif/ESP8266_SDK/lib\liblwip.a(igmp.o)
 .text          0x40107ca8        0x0 c:/Espressif/ESP8266_SDK/lib\liblwip.a(inet_chksum.o)
 .text          0x40107ca8        0x0 c:/Espressif/ESP8266_SDK/lib\liblwip.a(init.o)
 .text          0x40107ca8        0x0 c:/Espressif/ESP8266_SDK/lib\liblwip.a(ip_addr.o)
 .text          0x40107ca8        0x0 c:/Espressif/ESP8266_SDK/lib\liblwip.a(ip.o)
 .text          0x40107ca8        0x0 c:/Espressif/ESP8266_SDK/lib\liblwip.a(memp.o)
 .text          0x40107ca8        0x0 c:/Espressif/ESP8266_SDK/lib\liblwip.a(netif.o)
 .text          0x40107ca8        0x0 c:/Espressif/ESP8266_SDK/lib\liblwip.a(pbuf.o)
 .text          0x40107ca8        0x0 c:/Espressif/ESP8266_SDK/lib\liblwip.a(raw.o)
 *fill*         0x40107ca8        0x0 
 .literal       0x40107ca8        0x0 c:/Espressif/ESP8266_SDK/lib\liblwip.a(sntp.o)
 .text          0x40107ca8        0x0 c:/Espressif/ESP8266_SDK/lib\liblwip.a(tcp_in.o)
 .literal       0x40107ca8        0x0 c:/Espressif/ESP8266_SDK/lib\liblwip.a(tcp.o)
 *fill*         0x40107ca8        0x0 
 .literal       0x40107ca8        0x0 c:/Espressif/ESP8266_SDK/lib\liblwip.a(tcp_out.o)
 *fill*         0x40107ca8        0x0 
 .literal       0x40107ca8        0x0 c:/Espressif/ESP8266_SDK/lib\liblwip.a(timers.o)
 .text          0x40107ca8        0x0 c:/Espressif/ESP8266_SDK/lib\liblwip.a(udp.o)
 .literal       0x40107ca8        0x0 c:/Espressif/ESP8266_SDK/lib\liblwip.a(espconn_buf.o)
 .text          0x40107ca8        0x0 c:/Espressif/ESP8266_SDK/lib\liblwip.a(icmp.o)
 .text          0x40107ca8        0x0 c:/Espressif/ESP8266_SDK/lib\libwpa.a(ap_config.o)
 .text          0x40107ca8        0x0 c:/Espressif/ESP8266_SDK/lib\libwpa.a(common.o)
 .text          0x40107ca8        0x0 c:/Espressif/ESP8266_SDK/lib\libwpa.a(os_xtensa.o)
 *fill*         0x40107ca8        0x0 
 .literal       0x40107ca8        0x0 c:/Espressif/ESP8266_SDK/lib\libwpa.a(wpa_auth.o)
 .text          0x40107ca8       0x11 c:/Espressif/ESP8266_SDK/lib\libwpa.a(wpa_auth.o)
 .text          0x40107cb9        0x0 c:/Espressif/ESP8266_SDK/lib\libwpa.a(wpa_auth_ie.o)
 .text          0x40107cb9        0x0 c:/Espressif/ESP8266_SDK/lib\libwpa.a(wpa.o)
 .text          0x40107cb9        0x0 c:/Espressif/ESP8266_SDK/lib\libwpa.a(wpa_common.o)
 .text          0x40107cb9        0x0 c:/Espressif/ESP8266_SDK/lib\libwpa.a(wpa_debug.o)
 .text          0x40107cb9        0x0 c:/Espressif/ESP8266_SDK/lib\libwpa.a(wpa_ie.o)
 .text          0x40107cb9        0x0 c:/Espressif/ESP8266_SDK/lib\libwpa.a(wpa_main.o)
 .text          0x40107cb9        0x0 c:/Espressif/ESP8266_SDK/lib\libwpa.a(wpas_glue.o)
 *fill*         0x40107cb9        0x3 
 .literal       0x40107cbc        0x0 c:/Espressif/ESP8266_SDK/lib\libmain.a(time.o)
 .text          0x40107cbc        0x0 c:/Espressif/ESP8266_SDK/lib\libssl.a(espconn_secure.o)
 .text          0x40107cbc        0x0 c:/Espressif/ESP8266_SDK/lib\libssl.a(espconn_ssl.o)
 .text          0x40107cbc        0x0 c:/Espressif/ESP8266_SDK/lib\libssl.a(ssl_loader.o)
 .text          0x40107cbc        0x0 c:/Espressif/ESP8266_SDK/lib\libssl.a(ssl_md5.o)
 .text          0x40107cbc        0x0 c:/Espressif/ESP8266_SDK/lib\libssl.a(ssl_tls1_clnt.o)
 .text          0x40107cbc        0x0 c:/Espressif/ESP8266_SDK/lib\libssl.a(ssl_tls1.o)
 .text          0x40107cbc        0x0 c:/Espressif/ESP8266_SDK/lib\libssl.a(ssl_tls1_svr.o)
 .text          0x40107cbc        0x0 c:/Espressif/ESP8266_SDK/lib\libssl.a(ssl_x509.o)
 .text          0x40107cbc        0x0 c:/Espressif/ESP8266_SDK/lib\libssl.a(sha256.o)
 .text          0x40107cbc        0x0 c:/Espressif/ESP8266_SDK/lib\libssl.a(sha384.o)
 .text          0x40107cbc        0x0 c:/Espressif/ESP8266_SDK/lib\libssl.a(sha512.o)
 .text          0x40107cbc        0x0 c:/Espressif/ESP8266_SDK/lib\libssl.a(ssl_aes.o)
 .text          0x40107cbc        0x0 c:/Espressif/ESP8266_SDK/lib\libssl.a(ssl_asn1.o)
 .text          0x40107cbc        0x0 c:/Espressif/ESP8266_SDK/lib\libssl.a(ssl_bigint.o)
 .text          0x40107cbc        0x0 c:/Espressif/ESP8266_SDK/lib\libssl.a(ssl_crypto_misc.o)
 .text          0x40107cbc        0x0 c:/Espressif/ESP8266_SDK/lib\libssl.a(ssl_hmac.o)
 .text          0x40107cbc        0x0 c:/Espressif/ESP8266_SDK/lib\libssl.a(ssl_rc4.o)
 .text          0x40107cbc        0x0 c:/Espressif/ESP8266_SDK/lib\libssl.a(ssl_rsa.o)
 .text          0x40107cbc        0x0 c:/Espressif/ESP8266_SDK/lib\libssl.a(ssl_sha1.o)
 .text          0x40107cbc        0x0 c:/Espressif/ESP8266_SDK/lib\libcrypto.a(aes-wrap.o)
 .text          0x40107cbc        0x0 c:/Espressif/ESP8266_SDK/lib\libcrypto.a(aes-internal-enc.o)
 .text          0x40107cbc        0x0 c:/Espressif/ESP8266_SDK/lib\libcrypto.a(aes-internal.o)
 *fill*         0x40107cbc        0x0 
 .text          0x40107cbc       0x17 c:/espressif/xtensa-lx106-elf/bin/../lib/gcc/xtensa-lx106-elf/5.2.0/../../../../xtensa-lx106-elf/lib\libc.a(lib_a-memchr.o)
                0x40107cbc                memchr
 *fill*         0x40107cd3        0x1 
 .text          0x40107cd4       0x1f c:/espressif/xtensa-lx106-elf/bin/../lib/gcc/xtensa-lx106-elf/5.2.0/../../../../xtensa-lx106-elf/lib\libc.a(lib_a-memcmp.o)
                0x40107cd4                memcmp
 *fill*         0x40107cf3        0x0 
 .text          0x40107cf3        0x0 c:/espressif/xtensa-lx106-elf/bin/../lib/gcc/xtensa-lx106-elf/5.2.0/../../../../xtensa-lx106-elf/lib\libc.a(lib_a-impure.o)
 *fill*         0x40107cf3        0x1 
 .text          0x40107cf4       0x49 c:/Espressif/ESP8266_SDK/lib\libgcc.a(_modsi3.o)
                0x40107cf4                __modsi3
 *fill*         0x40107d3d        0x3 
 .text          0x40107d40       0x18 c:/Espressif/ESP8266_SDK/lib\libgcc.a(_ashrdi3.o)
                0x40107d40                __ashrdi3
 *fill*         0x40107d58        0x0 
 *fill*         0x40107d58        0x0 
 .text          0x40107d58        0x0 c:/Espressif/ESP8266_SDK/lib\libnet80211.a(ieee80211_crypto_tkip.o)
 .text          0x40107d58        0x0 c:/Espressif/ESP8266_SDK/lib\libnet80211.a(ieee80211_crypto_wep.o)
 *(.fini.literal)
 *(.fini)
 *(.gnu.version)
                0x40107d58                _text_end = ABSOLUTE (.)
                0x40107d58                _etext = .

.NMIExceptionVector.literal
                0x40107d58        0x0
 .NMIExceptionVector.literal
                0x40107d58        0x0 c:/Espressif/ESP8266_SDK/lib\libmain.a(nmi-vector.o)

.UserExceptionVector.literal
                0x40107d58        0x0
 .UserExceptionVector.literal
                0x40107d58        0x0 c:/Espressif/ESP8266_SDK/lib\libmain.a(user-vector.o)

.UserEnter.literal
                0x40107d58        0x0
 .UserEnter.literal
                0x40107d58        0x0 c:/Espressif/ESP8266_SDK/lib\libmain.a(vector.o)

.lit4           0x40107d58        0x0
                0x40107d58                _lit4_start = ABSOLUTE (.)
 *(*.lit4)
 *(.lit4.*)
 *(.gnu.linkonce.lit4.*)
                0x40107d58                _lit4_end = ABSOLUTE (.)
                0x400047f0                PROVIDE (Cache_Read_Disable, 0x400047f0)
                0x40004678                PROVIDE (Cache_Read_Enable, 0x40004678)
                [!provide]                PROVIDE (FilePacketSendReqMsgProc, 0x400035a0)
                [!provide]                PROVIDE (FlashDwnLdParamCfgMsgProc, 0x4000368c)
                [!provide]                PROVIDE (FlashDwnLdStartMsgProc, 0x40003538)
                [!provide]                PROVIDE (FlashDwnLdStopReqMsgProc, 0x40003658)
                [!provide]                PROVIDE (GetUartDevice, 0x40003f4c)
                [!provide]                PROVIDE (MD5Final, 0x40009900)
                [!provide]                PROVIDE (MD5Init, 0x40009818)
                [!provide]                PROVIDE (MD5Update, 0x40009834)
                [!provide]                PROVIDE (MemDwnLdStartMsgProc, 0x400036c4)
                [!provide]                PROVIDE (MemDwnLdStopReqMsgProc, 0x4000377c)
                [!provide]                PROVIDE (MemPacketSendReqMsgProc, 0x400036f0)
                [!provide]                PROVIDE (RcvMsg, 0x40003eac)
                [!provide]                PROVIDE (SHA1Final, 0x4000b648)
                [!provide]                PROVIDE (SHA1Init, 0x4000b584)
                [!provide]                PROVIDE (SHA1Transform, 0x4000a364)
                [!provide]                PROVIDE (SHA1Update, 0x4000b5a8)
                0x400043c8                PROVIDE (SPI_read_status, 0x400043c8)
                0x40004400                PROVIDE (SPI_write_status, 0x40004400)
                0x4000443c                PROVIDE (SPI_write_enable, 0x4000443c)
                0x4000448c                PROVIDE (Wait_SPI_Idle, 0x4000448c)
                0x400044c0                PROVIDE (Enable_QMode, 0x400044c0)
                [!provide]                PROVIDE (SPIEraseArea, 0x40004b44)
                [!provide]                PROVIDE (SPIEraseBlock, 0x400049b4)
                [!provide]                PROVIDE (SPIEraseChip, 0x40004984)
                0x40004a00                PROVIDE (SPIEraseSector, 0x40004a00)
                [!provide]                PROVIDE (SPILock, 0x400048a8)
                [!provide]                PROVIDE (SPIParamCfg, 0x40004c2c)
                0x40004b1c                PROVIDE (SPIRead, 0x40004b1c)
                [!provide]                PROVIDE (SPIReadModeCnfig, 0x400048ec)
                [!provide]                PROVIDE (SPIUnlock, 0x40004878)
                0x40004a4c                PROVIDE (SPIWrite, 0x40004a4c)
                [!provide]                PROVIDE (SelectSpiFunction, 0x40003f58)
                [!provide]                PROVIDE (SendMsg, 0x40003cf4)
                [!provide]                PROVIDE (UartConnCheck, 0x40003230)
                [!provide]                PROVIDE (UartConnectProc, 0x400037a0)
                [!provide]                PROVIDE (UartDwnLdProc, 0x40003368)
                [!provide]                PROVIDE (UartGetCmdLn, 0x40003ef4)
                [!provide]                PROVIDE (UartRegReadProc, 0x4000381c)
                [!provide]                PROVIDE (UartRegWriteProc, 0x400037ac)
                [!provide]                PROVIDE (UartRxString, 0x40003c30)
                0x40003a14                PROVIDE (Uart_Init, 0x40003a14)
                [!provide]                PROVIDE (_DebugExceptionVector, 0x40000010)
                [!provide]                PROVIDE (_DoubleExceptionVector, 0x40000070)
                [!provide]                PROVIDE (_KernelExceptionVector, 0x40000030)
                [!provide]                PROVIDE (_NMIExceptionVector, 0x40000020)
                [!provide]                PROVIDE (_ResetHandler, 0x400000a4)
                [!provide]                PROVIDE (_ResetVector, 0x40000080)
                [!provide]                PROVIDE (_UserExceptionVector, 0x40000050)
                [!provide]                PROVIDE (__adddf3, 0x4000c538)
                0x4000c180                PROVIDE (__addsf3, 0x4000c180)
                0x4000cb94                PROVIDE (__divdf3, 0x4000cb94)
                0x4000ce60                PROVIDE (__divdi3, 0x4000ce60)
                0x4000dc88                PROVIDE (__divsi3, 0x4000dc88)
                [!provide]                PROVIDE (__extendsfdf2, 0x4000cdfc)
                0x4000ccb8                PROVIDE (__fixdfsi, 0x4000ccb8)
                [!provide]                PROVIDE (__fixunsdfsi, 0x4000cd00)
                0x4000c4c4                PROVIDE (__fixunssfsi, 0x4000c4c4)
                0x4000e2f0                PROVIDE (__floatsidf, 0x4000e2f0)
                0x4000e2ac                PROVIDE (__floatsisf, 0x4000e2ac)
                0x4000e2e8                PROVIDE (__floatunsidf, 0x4000e2e8)
                0x4000e2a4                PROVIDE (__floatunsisf, 0x4000e2a4)
                0x4000c8f0                PROVIDE (__muldf3, 0x4000c8f0)
                0x40000650                PROVIDE (__muldi3, 0x40000650)
                [!provide]                PROVIDE (__mulsf3, 0x4000c3dc)
                [!provide]                PROVIDE (__subdf3, 0x4000c688)
                0x4000c268                PROVIDE (__subsf3, 0x4000c268)
                0x4000cd5c                PROVIDE (__truncdfsf2, 0x4000cd5c)
                0x4000d310                PROVIDE (__udivdi3, 0x4000d310)
                0x4000e21c                PROVIDE (__udivsi3, 0x4000e21c)
                0x4000d770                PROVIDE (__umoddi3, 0x4000d770)
                0x4000e268                PROVIDE (__umodsi3, 0x4000e268)
                0x4000dcf0                PROVIDE (__umulsidi3, 0x4000dcf0)
                [!provide]                PROVIDE (_rom_store, 0x4000e388)
                [!provide]                PROVIDE (_rom_store_table, 0x4000e328)
                [!provide]                PROVIDE (_start, 0x4000042c)
                [!provide]                PROVIDE (_xtos_alloca_handler, 0x4000dbe0)
                [!provide]                PROVIDE (_xtos_c_wrapper_handler, 0x40000598)
                [!provide]                PROVIDE (_xtos_cause3_handler, 0x40000590)
                [!provide]                PROVIDE (_xtos_ints_off, 0x4000bda4)
                [!provide]                PROVIDE (_xtos_ints_on, 0x4000bd84)
                [!provide]                PROVIDE (_xtos_l1int_handler, 0x4000048c)
                [!provide]                PROVIDE (_xtos_p_none, 0x4000dbf8)
                [!provide]                PROVIDE (_xtos_restore_intlevel, 0x4000056c)
                [!provide]                PROVIDE (_xtos_return_from_exc, 0x4000dc54)
                0x40000454                PROVIDE (_xtos_set_exception_handler, 0x40000454)
                [!provide]                PROVIDE (_xtos_set_interrupt_handler, 0x4000bd70)
                [!provide]                PROVIDE (_xtos_set_interrupt_handler_arg, 0x4000bd28)
                [!provide]                PROVIDE (_xtos_set_intlevel, 0x4000dbfc)
                [!provide]                PROVIDE (_xtos_set_min_intlevel, 0x4000dc18)
                [!provide]                PROVIDE (_xtos_set_vpri, 0x40000574)
                [!provide]                PROVIDE (_xtos_syscall_handler, 0x4000dbe4)
                [!provide]                PROVIDE (_xtos_unhandled_exception, 0x4000dc44)
                [!provide]                PROVIDE (_xtos_unhandled_interrupt, 0x4000dc3c)
                [!provide]                PROVIDE (aes_decrypt, 0x400092d4)
                [!provide]                PROVIDE (aes_decrypt_deinit, 0x400092e4)
                [!provide]                PROVIDE (aes_decrypt_init, 0x40008ea4)
                0x40009410                PROVIDE (aes_unwrap, 0x40009410)
                [!provide]                PROVIDE (base64_decode, 0x40009648)
                [!provide]                PROVIDE (base64_encode, 0x400094fc)
                [!provide]                PROVIDE (bzero, 0x4000de84)
                [!provide]                PROVIDE (cmd_parse, 0x40000814)
                [!provide]                PROVIDE (conv_str_decimal, 0x40000b24)
                [!provide]                PROVIDE (conv_str_hex, 0x40000cb8)
                [!provide]                PROVIDE (convert_para_str, 0x40000a60)
                [!provide]                PROVIDE (dtm_get_intr_mask, 0x400026d0)
                [!provide]                PROVIDE (dtm_params_init, 0x4000269c)
                [!provide]                PROVIDE (dtm_set_intr_mask, 0x400026c8)
                [!provide]                PROVIDE (dtm_set_params, 0x400026dc)
                [!provide]                PROVIDE (eprintf, 0x40001d14)
                [!provide]                PROVIDE (eprintf_init_buf, 0x40001cb8)
                [!provide]                PROVIDE (eprintf_to_host, 0x40001d48)
                [!provide]                PROVIDE (est_get_printf_buf_remain_len, 0x40002494)
                [!provide]                PROVIDE (est_reset_printf_buf_len, 0x4000249c)
                0x40002ae8                PROVIDE (ets_bzero, 0x40002ae8)
                [!provide]                PROVIDE (ets_char2xdigit, 0x40002b74)
                0x40002ecc                PROVIDE (ets_delay_us, 0x40002ecc)
                [!provide]                PROVIDE (ets_enter_sleep, 0x400027b8)
                [!provide]                PROVIDE (ets_external_printf, 0x40002578)
                0x40002f0c                PROVIDE (ets_get_cpu_frequency, 0x40002f0c)
                [!provide]                PROVIDE (ets_getc, 0x40002bcc)
                [!provide]                PROVIDE (ets_install_external_printf, 0x40002450)
                0x4000242c                PROVIDE (ets_install_putc1, 0x4000242c)
                [!provide]                PROVIDE (ets_install_putc2, 0x4000248c)
                [!provide]                PROVIDE (ets_install_uart_printf, 0x40002438)
                0x40000f74                PROVIDE (ets_intr_lock, 0x40000f74)
                0x40000f80                PROVIDE (ets_intr_unlock, 0x40000f80)
                0x40000f88                PROVIDE (ets_isr_attach, 0x40000f88)
                0x40000f98                PROVIDE (ets_isr_mask, 0x40000f98)
                0x40000fa8                PROVIDE (ets_isr_unmask, 0x40000fa8)
                0x400018d4                PROVIDE (ets_memcmp, 0x400018d4)
                0x400018b4                PROVIDE (ets_memcpy, 0x400018b4)
                [!provide]                PROVIDE (ets_memmove, 0x400018c4)
                0x400018a4                PROVIDE (ets_memset, 0x400018a4)
                0x40000e24                PROVIDE (ets_post, 0x40000e24)
                0x400024cc                PROVIDE (ets_printf, 0x400024cc)
                0x40002be8                PROVIDE (ets_putc, 0x40002be8)
                [!provide]                PROVIDE (ets_rtc_int_register, 0x40002a40)
                0x40000e04                PROVIDE (ets_run, 0x40000e04)
                0x40000dc0                PROVIDE (ets_set_idle_cb, 0x40000dc0)
                [!provide]                PROVIDE (ets_set_user_start, 0x40000fbc)
                [!provide]                PROVIDE (ets_str2macaddr, 0x40002af8)
                0x40002aa8                PROVIDE (ets_strcmp, 0x40002aa8)
                0x40002a88                PROVIDE (ets_strcpy, 0x40002a88)
                0x40002ac8                PROVIDE (ets_strlen, 0x40002ac8)
                0x40002ab8                PROVIDE (ets_strncmp, 0x40002ab8)
                0x40002a98                PROVIDE (ets_strncpy, 0x40002a98)
                0x40002ad8                PROVIDE (ets_strstr, 0x40002ad8)
                0x40000dd0                PROVIDE (ets_task, 0x40000dd0)
                [!provide]                PROVIDE (ets_timer_arm, 0x40002cc4)
                [!provide]                PROVIDE (ets_timer_disarm, 0x40002d40)
                [!provide]                PROVIDE (ets_timer_done, 0x40002d80)
                [!provide]                PROVIDE (ets_timer_handler_isr, 0x40002da8)
                [!provide]                PROVIDE (ets_timer_init, 0x40002e68)
                [!provide]                PROVIDE (ets_timer_setfn, 0x40002c48)
                [!provide]                PROVIDE (ets_uart_printf, 0x40002544)
                0x40002f04                PROVIDE (ets_update_cpu_frequency, 0x40002f04)
                0x40001f00                PROVIDE (ets_vprintf, 0x40001f00)
                [!provide]                PROVIDE (ets_wdt_disable, 0x400030f0)
                [!provide]                PROVIDE (ets_wdt_enable, 0x40002fa0)
                [!provide]                PROVIDE (ets_wdt_get_mode, 0x40002f34)
                [!provide]                PROVIDE (ets_wdt_init, 0x40003170)
                [!provide]                PROVIDE (ets_wdt_restore, 0x40003158)
                0x40001da0                PROVIDE (ets_write_char, 0x40001da0)
                [!provide]                PROVIDE (get_first_seg, 0x4000091c)
                [!provide]                PROVIDE (gpio_init, 0x40004c50)
                0x40004cf0                PROVIDE (gpio_input_get, 0x40004cf0)
                [!provide]                PROVIDE (gpio_intr_ack, 0x40004dcc)
                [!provide]                PROVIDE (gpio_intr_handler_register, 0x40004e28)
                [!provide]                PROVIDE (gpio_intr_pending, 0x40004d88)
                [!provide]                PROVIDE (gpio_intr_test, 0x40004efc)
                0x40004cd0                PROVIDE (gpio_output_set, 0x40004cd0)
                [!provide]                PROVIDE (gpio_pin_intr_state_set, 0x40004d90)
                0x40004ed4                PROVIDE (gpio_pin_wakeup_disable, 0x40004ed4)
                0x40004e90                PROVIDE (gpio_pin_wakeup_enable, 0x40004e90)
                [!provide]                PROVIDE (gpio_register_get, 0x40004d5c)
                [!provide]                PROVIDE (gpio_register_set, 0x40004d04)
                0x4000a2cc                PROVIDE (hmac_md5, 0x4000a2cc)
                [!provide]                PROVIDE (hmac_md5_vector, 0x4000a160)
                0x4000ba28                PROVIDE (hmac_sha1, 0x4000ba28)
                0x4000b8b4                PROVIDE (hmac_sha1_vector, 0x4000b8b4)
                0x40004f40                PROVIDE (lldesc_build_chain, 0x40004f40)
                0x40005050                PROVIDE (lldesc_num2link, 0x40005050)
                [!provide]                PROVIDE (lldesc_set_owner, 0x4000507c)
                [!provide]                PROVIDE (main, 0x40000fec)
                [!provide]                PROVIDE (md5_vector, 0x400097ac)
                [!provide]                PROVIDE (mem_calloc, 0x40001c2c)
                [!provide]                PROVIDE (mem_free, 0x400019e0)
                [!provide]                PROVIDE (mem_init, 0x40001998)
                [!provide]                PROVIDE (mem_malloc, 0x40001b40)
                [!provide]                PROVIDE (mem_realloc, 0x40001c6c)
                [!provide]                PROVIDE (mem_trim, 0x40001a14)
                [!provide]                PROVIDE (mem_zalloc, 0x40001c58)
                [!provide]                PROVIDE (memcmp, 0x4000dea8)
                [!provide]                PROVIDE (memcpy, 0x4000df48)
                [!provide]                PROVIDE (memmove, 0x4000e04c)
                [!provide]                PROVIDE (memset, 0x4000e190)
                [!provide]                PROVIDE (multofup, 0x400031c0)
                0x4000b840                PROVIDE (pbkdf2_sha1, 0x4000b840)
                0x40006b08                PROVIDE (phy_get_romfuncs, 0x40006b08)
                [!provide]                PROVIDE (rand, 0x40000600)
                0x4000dd68                PROVIDE (rc4_skip, 0x4000dd68)
                [!provide]                PROVIDE (recv_packet, 0x40003d08)
                [!provide]                PROVIDE (remove_head_space, 0x40000a04)
                [!provide]                PROVIDE (rijndaelKeySetupDec, 0x40008dd0)
                [!provide]                PROVIDE (rijndaelKeySetupEnc, 0x40009300)
                [!provide]                PROVIDE (rom_abs_temp, 0x400060c0)
                [!provide]                PROVIDE (rom_ana_inf_gating_en, 0x40006b10)
                [!provide]                PROVIDE (rom_cal_tos_v50, 0x40007a28)
                [!provide]                PROVIDE (rom_chip_50_set_channel, 0x40006f84)
                0x400060d0                PROVIDE (rom_chip_v5_disable_cca, 0x400060d0)
                0x400060ec                PROVIDE (rom_chip_v5_enable_cca, 0x400060ec)
                [!provide]                PROVIDE (rom_chip_v5_rx_init, 0x4000711c)
                [!provide]                PROVIDE (rom_chip_v5_sense_backoff, 0x4000610c)
                [!provide]                PROVIDE (rom_chip_v5_tx_init, 0x4000718c)
                [!provide]                PROVIDE (rom_dc_iq_est, 0x4000615c)
                [!provide]                PROVIDE (rom_en_pwdet, 0x400061b8)
                [!provide]                PROVIDE (rom_get_bb_atten, 0x40006238)
                [!provide]                PROVIDE (rom_get_corr_power, 0x40006260)
                [!provide]                PROVIDE (rom_get_fm_sar_dout, 0x400062dc)
                [!provide]                PROVIDE (rom_get_noisefloor, 0x40006394)
                [!provide]                PROVIDE (rom_get_power_db, 0x400063b0)
                [!provide]                PROVIDE (rom_i2c_readReg, 0x40007268)
                [!provide]                PROVIDE (rom_i2c_readReg_Mask, 0x4000729c)
                [!provide]                PROVIDE (rom_i2c_writeReg, 0x400072d8)
                [!provide]                PROVIDE (rom_i2c_writeReg_Mask, 0x4000730c)
                [!provide]                PROVIDE (rom_iq_est_disable, 0x40006400)
                [!provide]                PROVIDE (rom_iq_est_enable, 0x40006430)
                [!provide]                PROVIDE (rom_linear_to_db, 0x40006484)
                [!provide]                PROVIDE (rom_mhz2ieee, 0x400065a4)
                [!provide]                PROVIDE (rom_pbus_dco___SA2, 0x40007bf0)
                [!provide]                PROVIDE (rom_pbus_debugmode, 0x4000737c)
                [!provide]                PROVIDE (rom_pbus_enter_debugmode, 0x40007410)
                [!provide]                PROVIDE (rom_pbus_exit_debugmode, 0x40007448)
                [!provide]                PROVIDE (rom_pbus_force_test, 0x4000747c)
                [!provide]                PROVIDE (rom_pbus_rd, 0x400074d8)
                [!provide]                PROVIDE (rom_pbus_set_rxgain, 0x4000754c)
                [!provide]                PROVIDE (rom_pbus_set_txgain, 0x40007610)
                [!provide]                PROVIDE (rom_pbus_workmode, 0x40007648)
                [!provide]                PROVIDE (rom_pbus_xpd_rx_off, 0x40007688)
                [!provide]                PROVIDE (rom_pbus_xpd_rx_on, 0x400076cc)
                [!provide]                PROVIDE (rom_pbus_xpd_tx_off, 0x400076fc)
                [!provide]                PROVIDE (rom_pbus_xpd_tx_on, 0x40007740)
                [!provide]                PROVIDE (rom_pbus_xpd_tx_on__low_gain, 0x400077a0)
                [!provide]                PROVIDE (rom_phy_reset_req, 0x40007804)
                [!provide]                PROVIDE (rom_restart_cal, 0x4000781c)
                [!provide]                PROVIDE (rom_rfcal_pwrctrl, 0x40007eb4)
                [!provide]                PROVIDE (rom_rfcal_rxiq, 0x4000804c)
                [!provide]                PROVIDE (rom_rfcal_rxiq_set_reg, 0x40008264)
                [!provide]                PROVIDE (rom_rfcal_txcap, 0x40008388)
                [!provide]                PROVIDE (rom_rfcal_txiq, 0x40008610)
                [!provide]                PROVIDE (rom_rfcal_txiq_cover, 0x400088b8)
                [!provide]                PROVIDE (rom_rfcal_txiq_set_reg, 0x40008a70)
                [!provide]                PROVIDE (rom_rfpll_reset, 0x40007868)
                [!provide]                PROVIDE (rom_rfpll_set_freq, 0x40007968)
                [!provide]                PROVIDE (rom_rxiq_cover_mg_mp, 0x40008b6c)
                [!provide]                PROVIDE (rom_rxiq_get_mis, 0x40006628)
                [!provide]                PROVIDE (rom_sar_init, 0x40006738)
                [!provide]                PROVIDE (rom_set_ana_inf_tx_scale, 0x4000678c)
                [!provide]                PROVIDE (rom_set_channel_freq, 0x40006c50)
                [!provide]                PROVIDE (rom_set_loopback_gain, 0x400067c8)
                [!provide]                PROVIDE (rom_set_noise_floor, 0x40006830)
                [!provide]                PROVIDE (rom_set_rxclk_en, 0x40006550)
                [!provide]                PROVIDE (rom_set_txbb_atten, 0x40008c6c)
                [!provide]                PROVIDE (rom_set_txclk_en, 0x4000650c)
                [!provide]                PROVIDE (rom_set_txiq_cal, 0x40008d34)
                [!provide]                PROVIDE (rom_start_noisefloor, 0x40006874)
                [!provide]                PROVIDE (rom_start_tx_tone, 0x400068b4)
                [!provide]                PROVIDE (rom_stop_tx_tone, 0x4000698c)
                [!provide]                PROVIDE (rom_tx_mac_disable, 0x40006a98)
                [!provide]                PROVIDE (rom_tx_mac_enable, 0x40006ad4)
                [!provide]                PROVIDE (rom_txtone_linear_pwr, 0x40006a1c)
                [!provide]                PROVIDE (rom_write_rfpll_sdm, 0x400078dc)
                0x400031b4                PROVIDE (roundup2, 0x400031b4)
                [!provide]                PROVIDE (rtc_enter_sleep, 0x40002870)
                0x400025e0                PROVIDE (rtc_get_reset_reason, 0x400025e0)
                [!provide]                PROVIDE (rtc_intr_handler, 0x400029ec)
                [!provide]                PROVIDE (rtc_set_sleep_mode, 0x40002668)
                [!provide]                PROVIDE (save_rxbcn_mactime, 0x400027a4)
                [!provide]                PROVIDE (save_tsf_us, 0x400027ac)
                [!provide]                PROVIDE (send_packet, 0x40003c80)
                0x4000ba48                PROVIDE (sha1_prf, 0x4000ba48)
                [!provide]                PROVIDE (sha1_vector, 0x4000a2ec)
                [!provide]                PROVIDE (sip_alloc_to_host_evt, 0x40005180)
                [!provide]                PROVIDE (sip_get_ptr, 0x400058a8)
                [!provide]                PROVIDE (sip_get_state, 0x40005668)
                [!provide]                PROVIDE (sip_init_attach, 0x4000567c)
                [!provide]                PROVIDE (sip_install_rx_ctrl_cb, 0x4000544c)
                [!provide]                PROVIDE (sip_install_rx_data_cb, 0x4000545c)
                [!provide]                PROVIDE (sip_post, 0x400050fc)
                [!provide]                PROVIDE (sip_post_init, 0x400056c4)
                [!provide]                PROVIDE (sip_reclaim_from_host_cmd, 0x4000534c)
                [!provide]                PROVIDE (sip_reclaim_tx_data_pkt, 0x400052c0)
                [!provide]                PROVIDE (sip_send, 0x40005808)
                [!provide]                PROVIDE (sip_to_host_chain_append, 0x40005864)
                [!provide]                PROVIDE (sip_to_host_evt_send_done, 0x40005234)
                [!provide]                PROVIDE (slc_add_credits, 0x400060ac)
                [!provide]                PROVIDE (slc_enable, 0x40005d90)
                [!provide]                PROVIDE (slc_from_host_chain_fetch, 0x40005f24)
                [!provide]                PROVIDE (slc_from_host_chain_recycle, 0x40005e94)
                [!provide]                PROVIDE (slc_init_attach, 0x40005c50)
                [!provide]                PROVIDE (slc_init_credit, 0x4000608c)
                [!provide]                PROVIDE (slc_pause_from_host, 0x40006014)
                [!provide]                PROVIDE (slc_reattach, 0x40005c1c)
                [!provide]                PROVIDE (slc_resume_from_host, 0x4000603c)
                [!provide]                PROVIDE (slc_select_tohost_gpio, 0x40005dc0)
                [!provide]                PROVIDE (slc_select_tohost_gpio_mode, 0x40005db8)
                [!provide]                PROVIDE (slc_send_to_host_chain, 0x40005de4)
                [!provide]                PROVIDE (slc_set_host_io_max_window, 0x40006068)
                [!provide]                PROVIDE (slc_to_host_chain_recycle, 0x40005f10)
                [!provide]                PROVIDE (software_reset, 0x4000264c)
                [!provide]                PROVIDE (spi_flash_attach, 0x40004644)
                [!provide]                PROVIDE (srand, 0x400005f0)
                [!provide]                PROVIDE (strcmp, 0x4000bdc8)
                [!provide]                PROVIDE (strcpy, 0x4000bec8)
                [!provide]                PROVIDE (strlen, 0x4000bf4c)
                [!provide]                PROVIDE (strncmp, 0x4000bfa8)
                [!provide]                PROVIDE (strncpy, 0x4000c0a0)
                [!provide]                PROVIDE (strstr, 0x4000e1e0)
                [!provide]                PROVIDE (timer_insert, 0x40002c64)
                [!provide]                PROVIDE (uartAttach, 0x4000383c)
                [!provide]                PROVIDE (uart_baudrate_detect, 0x40003924)
                0x400038a4                PROVIDE (uart_buff_switch, 0x400038a4)
                0x400039d8                PROVIDE (uart_div_modify, 0x400039d8)
                [!provide]                PROVIDE (uart_rx_intr_handler, 0x40003bbc)
                [!provide]                PROVIDE (uart_rx_one_char, 0x40003b8c)
                [!provide]                PROVIDE (uart_rx_one_char_block, 0x40003b64)
                [!provide]                PROVIDE (uart_rx_readbuff, 0x40003ec8)
                [!provide]                PROVIDE (uart_tx_one_char, 0x40003b30)
                [!provide]                PROVIDE (wepkey_128, 0x4000bc40)
                [!provide]                PROVIDE (wepkey_64, 0x4000bb3c)
                [!provide]                PROVIDE (xthal_bcopy, 0x40000688)
                [!provide]                PROVIDE (xthal_copy123, 0x4000074c)
                [!provide]                PROVIDE (xthal_get_ccompare, 0x4000dd4c)
                [!provide]                PROVIDE (xthal_get_ccount, 0x4000dd38)
                [!provide]                PROVIDE (xthal_get_interrupt, 0x4000dd58)
                [!provide]                PROVIDE (xthal_get_intread, 0x4000dd58)
                [!provide]                PROVIDE (xthal_memcpy, 0x400006c4)
                [!provide]                PROVIDE (xthal_set_ccompare, 0x4000dd40)
                [!provide]                PROVIDE (xthal_set_intclear, 0x4000dd60)
                [!provide]                PROVIDE (xthal_spill_registers_into_stack_nw, 0x4000e320)
                [!provide]                PROVIDE (xthal_window_spill, 0x4000e324)
                [!provide]                PROVIDE (xthal_window_spill_nw, 0x4000e320)
                0x3fffccf0                PROVIDE (Te0, 0x3fffccf0)
                [!provide]                PROVIDE (Td0, 0x3fffd100)
                [!provide]                PROVIDE (Td4s, 0x3fffd500)
                0x3fffd0f0                PROVIDE (rcons, 0x3fffd0f0)
                0x3fffde10                PROVIDE (UartDev, 0x3fffde10)
                0x3fffc714                PROVIDE (flashchip, 0x3fffc714)
OUTPUT(build/app.out elf32-xtensa-le)

.xtensa.info    0x00000000       0x38
 .xtensa.info   0x00000000       0x38 c:/Espressif/ESP8266_SDK/lib\libmain.a(debug-vector.o)
 .xtensa.info   0x00000038        0x0 c:/Espressif/ESP8266_SDK/lib\libmain.a(double-vector.o)
 .xtensa.info   0x00000038        0x0 c:/Espressif/ESP8266_SDK/lib\libmain.a(kernel-vector.o)
 .xtensa.info   0x00000038        0x0 c:/Espressif/ESP8266_SDK/lib\libmain.a(nmi-vector.o)
 .xtensa.info   0x00000038        0x0 c:/Espressif/ESP8266_SDK/lib\libmain.a(user-vector.o)
 .xtensa.info   0x00000038        0x0 c:/Espressif/ESP8266_SDK/lib\libmain.a(vector.o)
 .xtensa.info   0x00000038        0x0 c:/Espressif/ESP8266_SDK/lib\libmain.a(app_main.o)
 .xtensa.info   0x00000038        0x0 c:/Espressif/ESP8266_SDK/lib\libmain.a(ets_timer.o)
 .xtensa.info   0x00000038        0x0 c:/Espressif/ESP8266_SDK/lib\libmain.a(mem_manager.o)
 .xtensa.info   0x00000038        0x0 c:/Espressif/ESP8266_SDK/lib\libmain.a(spi_flash.o)
 .xtensa.info   0x00000038        0x0 c:/Espressif/ESP8266_SDK/lib\libmain.a(user_interface.o)
 .xtensa.info   0x00000038        0x0 c:/Espressif/ESP8266_SDK/lib\libmain.a(eagle_lib.o)
 .xtensa.info   0x00000038        0x0 c:/Espressif/ESP8266_SDK/lib\libmain.a(eagle_lwip_if.o)
 .xtensa.info   0x00000038        0x0 build/app_app.a(user_main.o)
 .xtensa.info   0x00000038        0x0 build/app_app.a(wifi_connector.o)
 .xtensa.info   0x00000038        0x0 build/app_app.a(userconfig.o)
 .xtensa.info   0x00000038        0x0 build/app_app.a(uart.o)
 .xtensa.info   0x00000038        0x0 build/app_app.a(uartproto.o)
 .xtensa.info   0x00000038        0x0 build/app_app.a(cpp_req.o)
 .xtensa.info   0x00000038        0x0 build/app_app.a(sfifo.o)
 .xtensa.info   0x00000038        0x0 c:/espressif/xtensa-lx106-elf/bin/../lib/gcc/xtensa-lx106-elf/5.2.0/../../../../xtensa-lx106-elf/lib\libc.a(lib_a-memcpy.o)
 .xtensa.info   0x00000038        0x0 c:/espressif/xtensa-lx106-elf/bin/../lib/gcc/xtensa-lx106-elf/5.2.0/../../../../xtensa-lx106-elf/lib\libc.a(lib_a-stpcpy.o)
 .xtensa.info   0x00000038        0x0 c:/espressif/xtensa-lx106-elf/bin/../lib/gcc/xtensa-lx106-elf/5.2.0/../../../../xtensa-lx106-elf/lib\libc.a(lib_a-strlen.o)
 .xtensa.info   0x00000038        0x0 c:/espressif/xtensa-lx106-elf/bin/../lib/gcc/xtensa-lx106-elf/5.2.0/../../../../xtensa-lx106-elf/lib\libhal.a(int_asm--set_intclear.o)
 .xtensa.info   0x00000038        0x0 c:/Espressif/ESP8266_SDK/lib\libphy.a(phy.o)
 .xtensa.info   0x00000038        0x0 c:/Espressif/ESP8266_SDK/lib\libphy.a(phy_chip_v6_ana.o)
 .xtensa.info   0x00000038        0x0 c:/Espressif/ESP8266_SDK/lib\libphy.a(phy_chip_v6.o)
 .xtensa.info   0x00000038        0x0 c:/Espressif/ESP8266_SDK/lib\libphy.a(phy_chip_v6_cal.o)
 .xtensa.info   0x00000038        0x0 c:/Espressif/ESP8266_SDK/lib\libphy.a(phy_chip_v6_unused.o)
 .xtensa.info   0x00000038        0x0 c:/Espressif/ESP8266_SDK/lib\libphy.a(phy_sleep.o)
 .xtensa.info   0x00000038        0x0 c:/Espressif/ESP8266_SDK/lib\libpp.a(if_hwctrl.o)
 .xtensa.info   0x00000038        0x0 c:/Espressif/ESP8266_SDK/lib\libpp.a(lmac.o)
 .xtensa.info   0x00000038        0x0 c:/Espressif/ESP8266_SDK/lib\libpp.a(pm.o)
 .xtensa.info   0x00000038        0x0 c:/Espressif/ESP8266_SDK/lib\libpp.a(pm_for_bcn_only_mode.o)
 .xtensa.info   0x00000038        0x0 c:/Espressif/ESP8266_SDK/lib\libpp.a(pp.o)
 .xtensa.info   0x00000038        0x0 c:/Espressif/ESP8266_SDK/lib\libpp.a(rate_control.o)
 .xtensa.info   0x00000038        0x0 c:/Espressif/ESP8266_SDK/lib\libpp.a(trc.o)
 .xtensa.info   0x00000038        0x0 c:/Espressif/ESP8266_SDK/lib\libpp.a(wdev.o)
 .xtensa.info   0x00000038        0x0 c:/Espressif/ESP8266_SDK/lib\libpp.a(esf_buf.o)
 .xtensa.info   0x00000038        0x0 c:/Espressif/ESP8266_SDK/lib\libnet80211.a(ieee80211.o)
 .xtensa.info   0x00000038        0x0 c:/Espressif/ESP8266_SDK/lib\libnet80211.a(ieee80211_crypto.o)
 .xtensa.info   0x00000038        0x0 c:/Espressif/ESP8266_SDK/lib\libnet80211.a(ieee80211_ets.o)
 .xtensa.info   0x00000038        0x0 c:/Espressif/ESP8266_SDK/lib\libnet80211.a(ieee80211_hostap.o)
 .xtensa.info   0x00000038        0x0 c:/Espressif/ESP8266_SDK/lib\libnet80211.a(ieee80211_ht.o)
 .xtensa.info   0x00000038        0x0 c:/Espressif/ESP8266_SDK/lib\libnet80211.a(ieee80211_input.o)
 .xtensa.info   0x00000038        0x0 c:/Espressif/ESP8266_SDK/lib\libnet80211.a(ieee80211_mesh_quick.o)
 .xtensa.info   0x00000038        0x0 c:/Espressif/ESP8266_SDK/lib\libnet80211.a(ieee80211_output.o)
 .xtensa.info   0x00000038        0x0 c:/Espressif/ESP8266_SDK/lib\libnet80211.a(ieee80211_phy.o)
 .xtensa.info   0x00000038        0x0 c:/Espressif/ESP8266_SDK/lib\libnet80211.a(ieee80211_power.o)
 .xtensa.info   0x00000038        0x0 c:/Espressif/ESP8266_SDK/lib\libnet80211.a(ieee80211_proto.o)
 .xtensa.info   0x00000038        0x0 c:/Espressif/ESP8266_SDK/lib\libnet80211.a(ieee80211_regdomain.o)
 .xtensa.info   0x00000038        0x0 c:/Espressif/ESP8266_SDK/lib\libnet80211.a(ieee80211_rfid.o)
 .xtensa.info   0x00000038        0x0 c:/Espressif/ESP8266_SDK/lib\libnet80211.a(ieee80211_scan.o)
 .xtensa.info   0x00000038        0x0 c:/Espressif/ESP8266_SDK/lib\libnet80211.a(ieee80211_sta.o)
 .xtensa.info   0x00000038        0x0 c:/Espressif/ESP8266_SDK/lib\libnet80211.a(wl_chm.o)
 .xtensa.info   0x00000038        0x0 c:/Espressif/ESP8266_SDK/lib\libnet80211.a(wl_cnx.o)
 .xtensa.info   0x00000038        0x0 c:/Espressif/ESP8266_SDK/lib\libnet80211.a(ieee80211_action.o)
 .xtensa.info   0x00000038        0x0 c:/Espressif/ESP8266_SDK/lib\libnet80211.a(ieee80211_action_vendor.o)
 .xtensa.info   0x00000038        0x0 c:/Espressif/ESP8266_SDK/lib\libnet80211.a(ieee80211_crypto_ccmp.o)
 .xtensa.info   0x00000038        0x0 c:/Espressif/ESP8266_SDK/lib\libnet80211.a(ieee80211_ie_vendor.o)
 .xtensa.info   0x00000038        0x0 c:/Espressif/ESP8266_SDK/lib\liblwip.a(dhcp.o)
 .xtensa.info   0x00000038        0x0 c:/Espressif/ESP8266_SDK/lib\liblwip.a(dhcpserver.o)
 .xtensa.info   0x00000038        0x0 c:/Espressif/ESP8266_SDK/lib\liblwip.a(dns.o)
 .xtensa.info   0x00000038        0x0 c:/Espressif/ESP8266_SDK/lib\liblwip.a(espconn.o)
 .xtensa.info   0x00000038        0x0 c:/Espressif/ESP8266_SDK/lib\liblwip.a(espconn_tcp.o)
 .xtensa.info   0x00000038        0x0 c:/Espressif/ESP8266_SDK/lib\liblwip.a(espconn_udp.o)
 .xtensa.info   0x00000038        0x0 c:/Espressif/ESP8266_SDK/lib\liblwip.a(etharp.o)
 .xtensa.info   0x00000038        0x0 c:/Espressif/ESP8266_SDK/lib\liblwip.a(igmp.o)
 .xtensa.info   0x00000038        0x0 c:/Espressif/ESP8266_SDK/lib\liblwip.a(inet_chksum.o)
 .xtensa.info   0x00000038        0x0 c:/Espressif/ESP8266_SDK/lib\liblwip.a(init.o)
 .xtensa.info   0x00000038        0x0 c:/Espressif/ESP8266_SDK/lib\liblwip.a(ip_addr.o)
 .xtensa.info   0x00000038        0x0 c:/Espressif/ESP8266_SDK/lib\liblwip.a(ip.o)
 .xtensa.info   0x00000038        0x0 c:/Espressif/ESP8266_SDK/lib\liblwip.a(memp.o)
 .xtensa.info   0x00000038        0x0 c:/Espressif/ESP8266_SDK/lib\liblwip.a(netif.o)
 .xtensa.info   0x00000038        0x0 c:/Espressif/ESP8266_SDK/lib\liblwip.a(pbuf.o)
 .xtensa.info   0x00000038        0x0 c:/Espressif/ESP8266_SDK/lib\liblwip.a(raw.o)
 .xtensa.info   0x00000038        0x0 c:/Espressif/ESP8266_SDK/lib\liblwip.a(sntp.o)
 .xtensa.info   0x00000038        0x0 c:/Espressif/ESP8266_SDK/lib\liblwip.a(tcp_in.o)
 .xtensa.info   0x00000038        0x0 c:/Espressif/ESP8266_SDK/lib\liblwip.a(tcp.o)
 .xtensa.info   0x00000038        0x0 c:/Espressif/ESP8266_SDK/lib\liblwip.a(tcp_out.o)
 .xtensa.info   0x00000038        0x0 c:/Espressif/ESP8266_SDK/lib\liblwip.a(timers.o)
 .xtensa.info   0x00000038        0x0 c:/Espressif/ESP8266_SDK/lib\liblwip.a(udp.o)
 .xtensa.info   0x00000038        0x0 c:/Espressif/ESP8266_SDK/lib\liblwip.a(espconn_buf.o)
 .xtensa.info   0x00000038        0x0 c:/Espressif/ESP8266_SDK/lib\liblwip.a(icmp.o)
 .xtensa.info   0x00000038        0x0 c:/Espressif/ESP8266_SDK/lib\libwpa.a(ap_config.o)
 .xtensa.info   0x00000038        0x0 c:/Espressif/ESP8266_SDK/lib\libwpa.a(common.o)
 .xtensa.info   0x00000038        0x0 c:/Espressif/ESP8266_SDK/lib\libwpa.a(os_xtensa.o)
 .xtensa.info   0x00000038        0x0 c:/Espressif/ESP8266_SDK/lib\libwpa.a(wpa_auth.o)
 .xtensa.info   0x00000038        0x0 c:/Espressif/ESP8266_SDK/lib\libwpa.a(wpa_auth_ie.o)
 .xtensa.info   0x00000038        0x0 c:/Espressif/ESP8266_SDK/lib\libwpa.a(wpa.o)
 .xtensa.info   0x00000038        0x0 c:/Espressif/ESP8266_SDK/lib\libwpa.a(wpa_common.o)
 .xtensa.info   0x00000038        0x0 c:/Espressif/ESP8266_SDK/lib\libwpa.a(wpa_debug.o)
 .xtensa.info   0x00000038        0x0 c:/Espressif/ESP8266_SDK/lib\libwpa.a(wpa_ie.o)
 .xtensa.info   0x00000038        0x0 c:/Espressif/ESP8266_SDK/lib\libwpa.a(wpa_main.o)
 .xtensa.info   0x00000038        0x0 c:/Espressif/ESP8266_SDK/lib\libwpa.a(wpas_glue.o)
 .xtensa.info   0x00000038        0x0 c:/Espressif/ESP8266_SDK/lib\libmain.a(time.o)
 .xtensa.info   0x00000038        0x0 c:/Espressif/ESP8266_SDK/lib\libssl.a(espconn_secure.o)
 .xtensa.info   0x00000038        0x0 c:/Espressif/ESP8266_SDK/lib\libssl.a(espconn_ssl.o)
 .xtensa.info   0x00000038        0x0 c:/Espressif/ESP8266_SDK/lib\libssl.a(ssl_loader.o)
 .xtensa.info   0x00000038        0x0 c:/Espressif/ESP8266_SDK/lib\libssl.a(ssl_md5.o)
 .xtensa.info   0x00000038        0x0 c:/Espressif/ESP8266_SDK/lib\libssl.a(ssl_tls1_clnt.o)
 .xtensa.info   0x00000038        0x0 c:/Espressif/ESP8266_SDK/lib\libssl.a(ssl_tls1.o)
 .xtensa.info   0x00000038        0x0 c:/Espressif/ESP8266_SDK/lib\libssl.a(ssl_tls1_svr.o)
 .xtensa.info   0x00000038        0x0 c:/Espressif/ESP8266_SDK/lib\libssl.a(ssl_x509.o)
 .xtensa.info   0x00000038        0x0 c:/Espressif/ESP8266_SDK/lib\libssl.a(sha256.o)
 .xtensa.info   0x00000038        0x0 c:/Espressif/ESP8266_SDK/lib\libssl.a(sha384.o)
 .xtensa.info   0x00000038        0x0 c:/Espressif/ESP8266_SDK/lib\libssl.a(sha512.o)
 .xtensa.info   0x00000038        0x0 c:/Espressif/ESP8266_SDK/lib\libssl.a(ssl_aes.o)
 .xtensa.info   0x00000038        0x0 c:/Espressif/ESP8266_SDK/lib\libssl.a(ssl_asn1.o)
 .xtensa.info   0x00000038        0x0 c:/Espressif/ESP8266_SDK/lib\libssl.a(ssl_bigint.o)
 .xtensa.info   0x00000038        0x0 c:/Espressif/ESP8266_SDK/lib\libssl.a(ssl_crypto_misc.o)
 .xtensa.info   0x00000038        0x0 c:/Espressif/ESP8266_SDK/lib\libssl.a(ssl_hmac.o)
 .xtensa.info   0x00000038        0x0 c:/Espressif/ESP8266_SDK/lib\libssl.a(ssl_rc4.o)
 .xtensa.info   0x00000038        0x0 c:/Espressif/ESP8266_SDK/lib\libssl.a(ssl_rsa.o)
 .xtensa.info   0x00000038        0x0 c:/Espressif/ESP8266_SDK/lib\libssl.a(ssl_sha1.o)
 .xtensa.info   0x00000038        0x0 c:/Espressif/ESP8266_SDK/lib\libcrypto.a(aes-wrap.o)
 .xtensa.info   0x00000038        0x0 c:/Espressif/ESP8266_SDK/lib\libcrypto.a(aes-internal-enc.o)
 .xtensa.info   0x00000038        0x0 c:/Espressif/ESP8266_SDK/lib\libcrypto.a(aes-internal.o)
 .xtensa.info   0x00000038        0x0 c:/espressif/xtensa-lx106-elf/bin/../lib/gcc/xtensa-lx106-elf/5.2.0/../../../../xtensa-lx106-elf/lib\libc.a(lib_a-memchr.o)
 .xtensa.info   0x00000038        0x0 c:/espressif/xtensa-lx106-elf/bin/../lib/gcc/xtensa-lx106-elf/5.2.0/../../../../xtensa-lx106-elf/lib\libc.a(lib_a-memcmp.o)
 .xtensa.info   0x00000038        0x0 c:/espressif/xtensa-lx106-elf/bin/../lib/gcc/xtensa-lx106-elf/5.2.0/../../../../xtensa-lx106-elf/lib\libc.a(lib_a-sysgettod.o)
 .xtensa.info   0x00000038        0x0 c:/espressif/xtensa-lx106-elf/bin/../lib/gcc/xtensa-lx106-elf/5.2.0/../../../../xtensa-lx106-elf/lib\libc.a(lib_a-impure.o)
 .xtensa.info   0x00000038        0x0 c:/Espressif/ESP8266_SDK/lib\libgcc.a(_modsi3.o)
 .xtensa.info   0x00000038        0x0 c:/Espressif/ESP8266_SDK/lib\libgcc.a(_ashrdi3.o)
 .xtensa.info   0x00000038        0x0 c:/Espressif/ESP8266_SDK/lib\libgcc.a(_mulsf3.o)
 .xtensa.info   0x00000038        0x0 c:/Espressif/ESP8266_SDK/lib\libgcc.a(_divsf3.o)
 .xtensa.info   0x00000038        0x0 c:/Espressif/ESP8266_SDK/lib\libgcc.a(_fixsfsi.o)
 .xtensa.info   0x00000038        0x0 c:/Espressif/ESP8266_SDK/lib\libnet80211.a(ieee80211_crypto_tkip.o)
 .xtensa.info   0x00000038        0x0 c:/Espressif/ESP8266_SDK/lib\libnet80211.a(ieee80211_crypto_wep.o)

.xt.prop        0x00000000    0x30258
 .xt.prop       0x00000000       0x18 c:/Espressif/ESP8266_SDK/lib\libmain.a(debug-vector.o)
 .xt.prop       0x00000018       0x18 c:/Espressif/ESP8266_SDK/lib\libmain.a(double-vector.o)
 .xt.prop       0x00000030       0x18 c:/Espressif/ESP8266_SDK/lib\libmain.a(kernel-vector.o)
 .xt.prop       0x00000048       0x30 c:/Espressif/ESP8266_SDK/lib\libmain.a(nmi-vector.o)
                                 0x3c (size before relaxing)
 .xt.prop       0x00000078       0x30 c:/Espressif/ESP8266_SDK/lib\libmain.a(user-vector.o)
                                 0x3c (size before relaxing)
 .xt.prop       0x000000a8       0x18 c:/Espressif/ESP8266_SDK/lib\libmain.a(vector.o)
 .xt.prop       0x000000c0     0x10a4 c:/Espressif/ESP8266_SDK/lib\libmain.a(app_main.o)
                               0x114c (size before relaxing)
 .xt.prop       0x00001164      0x5e8 c:/Espressif/ESP8266_SDK/lib\libmain.a(ets_timer.o)
                                0x630 (size before relaxing)
 .xt.prop       0x0000174c      0x3e4 c:/Espressif/ESP8266_SDK/lib\libmain.a(mem_manager.o)
                                0x474 (size before relaxing)
 .xt.prop       0x00001b30      0x5ac c:/Espressif/ESP8266_SDK/lib\libmain.a(spi_flash.o)
                                0x5c4 (size before relaxing)
 .xt.prop       0x000020dc     0x3a68 c:/Espressif/ESP8266_SDK/lib\libmain.a(user_interface.o)
                               0x3bf4 (size before relaxing)
 .xt.prop       0x00005b44      0x858 c:/Espressif/ESP8266_SDK/lib\libmain.a(eagle_lib.o)
 .xt.prop       0x0000639c      0x270 c:/Espressif/ESP8266_SDK/lib\libmain.a(eagle_lwip_if.o)
                                0x2a0 (size before relaxing)
 .xt.prop       0x0000660c       0xa8 build/app_app.a(user_main.o)
 .xt.prop       0x000066b4      0x600 build/app_app.a(wifi_connector.o)
                                0x618 (size before relaxing)
 .xt.prop       0x00006cb4       0x78 build/app_app.a(userconfig.o)
 .xt.prop       0x00006d2c      0x2a0 build/app_app.a(uart.o)
 .xt.prop       0x00006fcc      0x39c build/app_app.a(uartproto.o)
                                0x3a8 (size before relaxing)
 .xt.prop       0x00007368      0x108 build/app_app.a(cpp_req.o)
 .xt.prop       0x00007470      0x174 build/app_app.a(sfifo.o)
 .xt.prop       0x000075e4      0x174 c:/espressif/xtensa-lx106-elf/bin/../lib/gcc/xtensa-lx106-elf/5.2.0/../../../../xtensa-lx106-elf/lib\libc.a(lib_a-memcpy.o)
 .xt.prop       0x00007758       0x24 c:/espressif/xtensa-lx106-elf/bin/../lib/gcc/xtensa-lx106-elf/5.2.0/../../../../xtensa-lx106-elf/lib\libc.a(lib_a-stpcpy.o)
 .xt.prop       0x0000777c       0xb4 c:/espressif/xtensa-lx106-elf/bin/../lib/gcc/xtensa-lx106-elf/5.2.0/../../../../xtensa-lx106-elf/lib\libc.a(lib_a-strlen.o)
 .xt.prop       0x00007830       0x24 c:/espressif/xtensa-lx106-elf/bin/../lib/gcc/xtensa-lx106-elf/5.2.0/../../../../xtensa-lx106-elf/lib\libhal.a(int_asm--set_intclear.o)
 .xt.prop       0x00007854      0x1d4 c:/Espressif/ESP8266_SDK/lib\libphy.a(phy.o)
                                0x1e0 (size before relaxing)
 .xt.prop       0x00007a28      0xdb0 c:/Espressif/ESP8266_SDK/lib\libphy.a(phy_chip_v6_ana.o)
                                0xdc8 (size before relaxing)
 .xt.prop       0x000087d8     0x20e8 c:/Espressif/ESP8266_SDK/lib\libphy.a(phy_chip_v6.o)
                               0x22a4 (size before relaxing)
 .xt.prop       0x0000a8c0     0x1098 c:/Espressif/ESP8266_SDK/lib\libphy.a(phy_chip_v6_cal.o)
                               0x10f8 (size before relaxing)
 .xt.prop       0x0000b958       0x60 c:/Espressif/ESP8266_SDK/lib\libphy.a(phy_chip_v6_unused.o)
                                 0x6c (size before relaxing)
 .xt.prop       0x0000b9b8      0x87c c:/Espressif/ESP8266_SDK/lib\libphy.a(phy_sleep.o)
                                0x8d0 (size before relaxing)
 .xt.prop       0x0000c234      0x528 c:/Espressif/ESP8266_SDK/lib\libpp.a(if_hwctrl.o)
                                0x558 (size before relaxing)
 .xt.prop       0x0000c75c     0x1500 c:/Espressif/ESP8266_SDK/lib\libpp.a(lmac.o)
                               0x1554 (size before relaxing)
 .xt.prop       0x0000dc5c     0x1728 c:/Espressif/ESP8266_SDK/lib\libpp.a(pm.o)
                               0x180c (size before relaxing)
 .xt.prop       0x0000f384      0x9d8 c:/Espressif/ESP8266_SDK/lib\libpp.a(pm_for_bcn_only_mode.o)
                                0xa08 (size before relaxing)
 .xt.prop       0x0000fd5c     0x195c c:/Espressif/ESP8266_SDK/lib\libpp.a(pp.o)
                               0x1b0c (size before relaxing)
 .xt.prop       0x000116b8      0x1bc c:/Espressif/ESP8266_SDK/lib\libpp.a(rate_control.o)
                                0x1d4 (size before relaxing)
 .xt.prop       0x00011874     0x1140 c:/Espressif/ESP8266_SDK/lib\libpp.a(trc.o)
                               0x11a0 (size before relaxing)
 .xt.prop       0x000129b4     0x1350 c:/Espressif/ESP8266_SDK/lib\libpp.a(wdev.o)
                               0x1428 (size before relaxing)
 .xt.prop       0x00013d04      0x264 c:/Espressif/ESP8266_SDK/lib\libpp.a(esf_buf.o)
                                0x2e8 (size before relaxing)
 .xt.prop       0x00013f68      0x4a4 c:/Espressif/ESP8266_SDK/lib\libnet80211.a(ieee80211.o)
                                0x4c8 (size before relaxing)
 .xt.prop       0x0001440c      0x15c c:/Espressif/ESP8266_SDK/lib\libnet80211.a(ieee80211_crypto.o)
 .xt.prop       0x00014568       0x48 c:/Espressif/ESP8266_SDK/lib\libnet80211.a(ieee80211_ets.o)
 .xt.prop       0x000145b0      0xe70 c:/Espressif/ESP8266_SDK/lib\libnet80211.a(ieee80211_hostap.o)
                                0xf54 (size before relaxing)
 .xt.prop       0x00015420      0x684 c:/Espressif/ESP8266_SDK/lib\libnet80211.a(ieee80211_ht.o)
                                0x690 (size before relaxing)
 .xt.prop       0x00015aa4      0x900 c:/Espressif/ESP8266_SDK/lib\libnet80211.a(ieee80211_input.o)
                                0x90c (size before relaxing)
 .xt.prop       0x000163a4      0x468 c:/Espressif/ESP8266_SDK/lib\libnet80211.a(ieee80211_mesh_quick.o)
 .xt.prop       0x0001680c     0x1314 c:/Espressif/ESP8266_SDK/lib\libnet80211.a(ieee80211_output.o)
                               0x1320 (size before relaxing)
 .xt.prop       0x00017b20      0x108 c:/Espressif/ESP8266_SDK/lib\libnet80211.a(ieee80211_phy.o)
 .xt.prop       0x00017c28      0x1bc c:/Espressif/ESP8266_SDK/lib\libnet80211.a(ieee80211_power.o)
 .xt.prop       0x00017de4      0x12c c:/Espressif/ESP8266_SDK/lib\libnet80211.a(ieee80211_proto.o)
                                0x138 (size before relaxing)
 .xt.prop       0x00017f10      0x234 c:/Espressif/ESP8266_SDK/lib\libnet80211.a(ieee80211_regdomain.o)
 .xt.prop       0x00018144      0x12c c:/Espressif/ESP8266_SDK/lib\libnet80211.a(ieee80211_rfid.o)
 .xt.prop       0x00018270      0xc60 c:/Espressif/ESP8266_SDK/lib\libnet80211.a(ieee80211_scan.o)
                                0xcfc (size before relaxing)
 .xt.prop       0x00018ed0      0xab0 c:/Espressif/ESP8266_SDK/lib\libnet80211.a(ieee80211_sta.o)
                                0xaec (size before relaxing)
 .xt.prop       0x00019980      0x2dc c:/Espressif/ESP8266_SDK/lib\libnet80211.a(wl_chm.o)
                                0x2e8 (size before relaxing)
 .xt.prop       0x00019c5c     0x1260 c:/Espressif/ESP8266_SDK/lib\libnet80211.a(wl_cnx.o)
                               0x12d8 (size before relaxing)
 .xt.prop       0x0001aebc      0x33c c:/Espressif/ESP8266_SDK/lib\libnet80211.a(ieee80211_action.o)
 .xt.prop       0x0001b1f8      0x480 c:/Espressif/ESP8266_SDK/lib\libnet80211.a(ieee80211_action_vendor.o)
                                0x4c8 (size before relaxing)
 .xt.prop       0x0001b678       0xcc c:/Espressif/ESP8266_SDK/lib\libnet80211.a(ieee80211_crypto_ccmp.o)
                                 0xd8 (size before relaxing)
 .xt.prop       0x0001b744      0x114 c:/Espressif/ESP8266_SDK/lib\libnet80211.a(ieee80211_ie_vendor.o)
 .xt.prop       0x0001b858      0xd98 c:/Espressif/ESP8266_SDK/lib\liblwip.a(dhcp.o)
                                0xdbc (size before relaxing)
 .xt.prop       0x0001c5f0      0xad4 c:/Espressif/ESP8266_SDK/lib\liblwip.a(dhcpserver.o)
                                0xb34 (size before relaxing)
 .xt.prop       0x0001d0c4      0x45c c:/Espressif/ESP8266_SDK/lib\liblwip.a(dns.o)
                                0x4c8 (size before relaxing)
 .xt.prop       0x0001d520      0xf90 c:/Espressif/ESP8266_SDK/lib\liblwip.a(espconn.o)
                                0xff0 (size before relaxing)
 .xt.prop       0x0001e4b0      0xee8 c:/Espressif/ESP8266_SDK/lib\liblwip.a(espconn_tcp.o)
                                0xef4 (size before relaxing)
 .xt.prop       0x0001f398      0x330 c:/Espressif/ESP8266_SDK/lib\liblwip.a(espconn_udp.o)
                                0x33c (size before relaxing)
 .xt.prop       0x0001f6c8      0x708 c:/Espressif/ESP8266_SDK/lib\liblwip.a(etharp.o)
                                0x750 (size before relaxing)
 .xt.prop       0x0001fdd0      0x63c c:/Espressif/ESP8266_SDK/lib\liblwip.a(igmp.o)
                                0x66c (size before relaxing)
 .xt.prop       0x0002040c      0x168 c:/Espressif/ESP8266_SDK/lib\liblwip.a(inet_chksum.o)
 .xt.prop       0x00020574       0x24 c:/Espressif/ESP8266_SDK/lib\liblwip.a(init.o)
 .xt.prop       0x00020598      0x324 c:/Espressif/ESP8266_SDK/lib\liblwip.a(ip_addr.o)
                                0x330 (size before relaxing)
 .xt.prop       0x000208bc      0x438 c:/Espressif/ESP8266_SDK/lib\liblwip.a(ip.o)
                                0x480 (size before relaxing)
 .xt.prop       0x00020cf4        0x0 c:/Espressif/ESP8266_SDK/lib\liblwip.a(memp.o)
                                 0x18 (size before relaxing)
 .xt.prop       0x00020cf4      0x33c c:/Espressif/ESP8266_SDK/lib\liblwip.a(netif.o)
                                0x360 (size before relaxing)
 .xt.prop       0x00021030      0x7a4 c:/Espressif/ESP8266_SDK/lib\liblwip.a(pbuf.o)
                                0x7b0 (size before relaxing)
 .xt.prop       0x000217d4      0x294 c:/Espressif/ESP8266_SDK/lib\liblwip.a(raw.o)
                                0x2ac (size before relaxing)
 .xt.prop       0x00021a68      0x93c c:/Espressif/ESP8266_SDK/lib\liblwip.a(sntp.o)
                                0xa08 (size before relaxing)
 .xt.prop       0x000223a4      0xc6c c:/Espressif/ESP8266_SDK/lib\liblwip.a(tcp_in.o)
                                0xcfc (size before relaxing)
 .xt.prop       0x00023010      0xcfc c:/Espressif/ESP8266_SDK/lib\liblwip.a(tcp.o)
                                0xd68 (size before relaxing)
 .xt.prop       0x00023d0c      0x960 c:/Espressif/ESP8266_SDK/lib\liblwip.a(tcp_out.o)
                                0x96c (size before relaxing)
 .xt.prop       0x0002466c      0x354 c:/Espressif/ESP8266_SDK/lib\liblwip.a(timers.o)
                                0x384 (size before relaxing)
 .xt.prop       0x000249c0      0x5a0 c:/Espressif/ESP8266_SDK/lib\liblwip.a(udp.o)
                                0x5b8 (size before relaxing)
 .xt.prop       0x00024f60      0x5c4 c:/Espressif/ESP8266_SDK/lib\liblwip.a(espconn_buf.o)
                                0x5d0 (size before relaxing)
 .xt.prop       0x00025524      0x114 c:/Espressif/ESP8266_SDK/lib\liblwip.a(icmp.o)
 .xt.prop       0x00025638      0x2e8 c:/Espressif/ESP8266_SDK/lib\libwpa.a(ap_config.o)
                                0x2f4 (size before relaxing)
 .xt.prop       0x00025920      0x21c c:/Espressif/ESP8266_SDK/lib\libwpa.a(common.o)
                                0x228 (size before relaxing)
 .xt.prop       0x00025b3c       0xf0 c:/Espressif/ESP8266_SDK/lib\libwpa.a(os_xtensa.o)
                                 0xfc (size before relaxing)
 .xt.prop       0x00025c2c     0x1668 c:/Espressif/ESP8266_SDK/lib\libwpa.a(wpa_auth.o)
 .xt.prop       0x00027294      0x480 c:/Espressif/ESP8266_SDK/lib\libwpa.a(wpa_auth_ie.o)
                                0x48c (size before relaxing)
 .xt.prop       0x00027714      0xd8c c:/Espressif/ESP8266_SDK/lib\libwpa.a(wpa.o)
                                0xdb0 (size before relaxing)
 .xt.prop       0x000284a0      0x7a4 c:/Espressif/ESP8266_SDK/lib\libwpa.a(wpa_common.o)
 .xt.prop       0x00028c44       0xc0 c:/Espressif/ESP8266_SDK/lib\libwpa.a(wpa_debug.o)
 .xt.prop       0x00028d04      0x378 c:/Espressif/ESP8266_SDK/lib\libwpa.a(wpa_ie.o)
 .xt.prop       0x0002907c      0x330 c:/Espressif/ESP8266_SDK/lib\libwpa.a(wpa_main.o)
                                0x33c (size before relaxing)
 .xt.prop       0x000293ac      0x12c c:/Espressif/ESP8266_SDK/lib\libwpa.a(wpas_glue.o)
 .xt.prop       0x000294d8      0x288 c:/Espressif/ESP8266_SDK/lib\libmain.a(time.o)
                                0x2ac (size before relaxing)
 .xt.prop       0x00029760      0x51c c:/Espressif/ESP8266_SDK/lib\libssl.a(espconn_secure.o)
                                0x564 (size before relaxing)
 .xt.prop       0x00029c7c     0x1140 c:/Espressif/ESP8266_SDK/lib\libssl.a(espconn_ssl.o)
                               0x11a0 (size before relaxing)
 .xt.prop       0x0002adbc      0x408 c:/Espressif/ESP8266_SDK/lib\libssl.a(ssl_loader.o)
                                0x420 (size before relaxing)
 .xt.prop       0x0002b1c4      0x15c c:/Espressif/ESP8266_SDK/lib\libssl.a(ssl_md5.o)
                                0x168 (size before relaxing)
 .xt.prop       0x0002b320      0x33c c:/Espressif/ESP8266_SDK/lib\libssl.a(ssl_tls1_clnt.o)
 .xt.prop       0x0002b65c     0x1980 c:/Espressif/ESP8266_SDK/lib\libssl.a(ssl_tls1.o)
                               0x19e0 (size before relaxing)
 .xt.prop       0x0002cfdc      0x390 c:/Espressif/ESP8266_SDK/lib\libssl.a(ssl_tls1_svr.o)
 .xt.prop       0x0002d36c      0x594 c:/Espressif/ESP8266_SDK/lib\libssl.a(ssl_x509.o)
                                0x5a0 (size before relaxing)
 .xt.prop       0x0002d900       0xe4 c:/Espressif/ESP8266_SDK/lib\libssl.a(sha256.o)
                                 0xf0 (size before relaxing)
 .xt.prop       0x0002d9e4       0x78 c:/Espressif/ESP8266_SDK/lib\libssl.a(sha384.o)
 .xt.prop       0x0002da5c      0x210 c:/Espressif/ESP8266_SDK/lib\libssl.a(sha512.o)
 .xt.prop       0x0002dc6c      0x300 c:/Espressif/ESP8266_SDK/lib\libssl.a(ssl_aes.o)
                                0x30c (size before relaxing)
 .xt.prop       0x0002df6c      0x804 c:/Espressif/ESP8266_SDK/lib\libssl.a(ssl_asn1.o)
 .xt.prop       0x0002e770      0xc0c c:/Espressif/ESP8266_SDK/lib\libssl.a(ssl_bigint.o)
                                0xc18 (size before relaxing)
 .xt.prop       0x0002f37c      0x234 c:/Espressif/ESP8266_SDK/lib\libssl.a(ssl_crypto_misc.o)
                                0x258 (size before relaxing)
 .xt.prop       0x0002f5b0       0x60 c:/Espressif/ESP8266_SDK/lib\libssl.a(ssl_hmac.o)
 .xt.prop       0x0002f610       0x6c c:/Espressif/ESP8266_SDK/lib\libssl.a(ssl_rc4.o)
 .xt.prop       0x0002f67c      0x24c c:/Espressif/ESP8266_SDK/lib\libssl.a(ssl_rsa.o)
                                0x258 (size before relaxing)
 .xt.prop       0x0002f8c8      0x174 c:/Espressif/ESP8266_SDK/lib\libssl.a(ssl_sha1.o)
                                0x180 (size before relaxing)
 .xt.prop       0x0002fa3c       0x6c c:/Espressif/ESP8266_SDK/lib\libcrypto.a(aes-wrap.o)
 .xt.prop       0x0002faa8       0xd8 c:/Espressif/ESP8266_SDK/lib\libcrypto.a(aes-internal-enc.o)
                                 0xe4 (size before relaxing)
 .xt.prop       0x0002fb80       0xb4 c:/Espressif/ESP8266_SDK/lib\libcrypto.a(aes-internal.o)
 .xt.prop       0x0002fc34       0x48 c:/espressif/xtensa-lx106-elf/bin/../lib/gcc/xtensa-lx106-elf/5.2.0/../../../../xtensa-lx106-elf/lib\libc.a(lib_a-memchr.o)
 .xt.prop       0x0002fc7c       0x54 c:/espressif/xtensa-lx106-elf/bin/../lib/gcc/xtensa-lx106-elf/5.2.0/../../../../xtensa-lx106-elf/lib\libc.a(lib_a-memcmp.o)
 .xt.prop       0x0002fcd0       0x30 c:/espressif/xtensa-lx106-elf/bin/../lib/gcc/xtensa-lx106-elf/5.2.0/../../../../xtensa-lx106-elf/lib\libc.a(lib_a-sysgettod.o)
 .xt.prop       0x0002fd00       0x24 c:/espressif/xtensa-lx106-elf/bin/../lib/gcc/xtensa-lx106-elf/5.2.0/../../../../xtensa-lx106-elf/lib\libc.a(lib_a-impure.o)
 .xt.prop       0x0002fd24       0x84 c:/Espressif/ESP8266_SDK/lib\libgcc.a(_modsi3.o)
 .xt.prop       0x0002fda8       0x3c c:/Espressif/ESP8266_SDK/lib\libgcc.a(_ashrdi3.o)
 .xt.prop       0x0002fde4      0x168 c:/Espressif/ESP8266_SDK/lib\libgcc.a(_mulsf3.o)
 .xt.prop       0x0002ff4c      0x15c c:/Espressif/ESP8266_SDK/lib\libgcc.a(_divsf3.o)
                                0x168 (size before relaxing)
 .xt.prop       0x000300a8       0x60 c:/Espressif/ESP8266_SDK/lib\libgcc.a(_fixsfsi.o)
                                 0x6c (size before relaxing)
 .xt.prop       0x00030108       0xe4 c:/Espressif/ESP8266_SDK/lib\libnet80211.a(ieee80211_crypto_tkip.o)
                                 0xfc (size before relaxing)
 .xt.prop       0x000301ec       0x6c c:/Espressif/ESP8266_SDK/lib\libnet80211.a(ieee80211_crypto_wep.o)
                                 0x78 (size before relaxing)

.xt.lit         0x00000000     0x1728
 .xt.lit        0x00000000        0x8 c:/Espressif/ESP8266_SDK/lib\libmain.a(nmi-vector.o)
                                 0x10 (size before relaxing)
 .xt.lit        0x00000008        0x8 c:/Espressif/ESP8266_SDK/lib\libmain.a(user-vector.o)
                                 0x10 (size before relaxing)
 .xt.lit        0x00000010        0x8 c:/Espressif/ESP8266_SDK/lib\libmain.a(vector.o)
 .xt.lit        0x00000018       0xa8 c:/Espressif/ESP8266_SDK/lib\libmain.a(app_main.o)
                                 0xb0 (size before relaxing)
 .xt.lit        0x000000c0       0x48 c:/Espressif/ESP8266_SDK/lib\libmain.a(ets_timer.o)
 .xt.lit        0x00000108       0x40 c:/Espressif/ESP8266_SDK/lib\libmain.a(mem_manager.o)
                                 0x60 (size before relaxing)
 .xt.lit        0x00000148       0x80 c:/Espressif/ESP8266_SDK/lib\libmain.a(spi_flash.o)
 .xt.lit        0x000001c8      0x230 c:/Espressif/ESP8266_SDK/lib\libmain.a(user_interface.o)
                                0x4e8 (size before relaxing)
 .xt.lit        0x000003f8       0x18 c:/Espressif/ESP8266_SDK/lib\libmain.a(eagle_lib.o)
 .xt.lit        0x00000410        0x8 c:/Espressif/ESP8266_SDK/lib\libmain.a(eagle_lwip_if.o)
                                 0x28 (size before relaxing)
 .xt.lit        0x00000418       0x18 build/app_app.a(user_main.o)
 .xt.lit        0x00000430       0xa0 build/app_app.a(wifi_connector.o)
                                 0xa8 (size before relaxing)
 .xt.lit        0x000004d0        0x8 build/app_app.a(userconfig.o)
                                 0x10 (size before relaxing)
 .xt.lit        0x000004d8       0x28 build/app_app.a(uart.o)
                                 0x48 (size before relaxing)
 .xt.lit        0x00000500       0x20 build/app_app.a(uartproto.o)
                                 0x28 (size before relaxing)
 .xt.lit        0x00000520       0x10 build/app_app.a(cpp_req.o)
                                 0x18 (size before relaxing)
 .xt.lit        0x00000530        0x8 c:/espressif/xtensa-lx106-elf/bin/../lib/gcc/xtensa-lx106-elf/5.2.0/../../../../xtensa-lx106-elf/lib\libc.a(lib_a-strlen.o)
 .xt.lit        0x00000538       0x10 c:/Espressif/ESP8266_SDK/lib\libphy.a(phy.o)
                                 0x68 (size before relaxing)
 .xt.lit        0x00000548       0x98 c:/Espressif/ESP8266_SDK/lib\libphy.a(phy_chip_v6_ana.o)
                                 0xc8 (size before relaxing)
 .xt.lit        0x000005e0      0x160 c:/Espressif/ESP8266_SDK/lib\libphy.a(phy_chip_v6.o)
                                0x248 (size before relaxing)
 .xt.lit        0x00000740       0x88 c:/Espressif/ESP8266_SDK/lib\libphy.a(phy_chip_v6_cal.o)
                                 0xf0 (size before relaxing)
 .xt.lit        0x000007c8       0x78 c:/Espressif/ESP8266_SDK/lib\libphy.a(phy_sleep.o)
                                 0xd0 (size before relaxing)
 .xt.lit        0x00000840       0x30 c:/Espressif/ESP8266_SDK/lib\libpp.a(if_hwctrl.o)
                                 0xa0 (size before relaxing)
 .xt.lit        0x00000870       0x70 c:/Espressif/ESP8266_SDK/lib\libpp.a(lmac.o)
                                0x130 (size before relaxing)
 .xt.lit        0x000008e0       0xe8 c:/Espressif/ESP8266_SDK/lib\libpp.a(pm.o)
                                0x1a8 (size before relaxing)
 .xt.lit        0x000009c8       0x50 c:/Espressif/ESP8266_SDK/lib\libpp.a(pm_for_bcn_only_mode.o)
                                 0xa8 (size before relaxing)
 .xt.lit        0x00000a18       0xe0 c:/Espressif/ESP8266_SDK/lib\libpp.a(pp.o)
                                0x1b0 (size before relaxing)
 .xt.lit        0x00000af8       0x18 c:/Espressif/ESP8266_SDK/lib\libpp.a(rate_control.o)
                                 0x38 (size before relaxing)
 .xt.lit        0x00000b10       0x68 c:/Espressif/ESP8266_SDK/lib\libpp.a(trc.o)
                                 0xa8 (size before relaxing)
 .xt.lit        0x00000b78       0xe0 c:/Espressif/ESP8266_SDK/lib\libpp.a(wdev.o)
                                0x1b0 (size before relaxing)
 .xt.lit        0x00000c58       0x18 c:/Espressif/ESP8266_SDK/lib\libpp.a(esf_buf.o)
                                 0x20 (size before relaxing)
 .xt.lit        0x00000c70       0x30 c:/Espressif/ESP8266_SDK/lib\libnet80211.a(ieee80211.o)
                                 0x50 (size before relaxing)
 .xt.lit        0x00000ca0        0x0 c:/Espressif/ESP8266_SDK/lib\libnet80211.a(ieee80211_crypto.o)
                                 0x10 (size before relaxing)
 .xt.lit        0x00000ca0        0x8 c:/Espressif/ESP8266_SDK/lib\libnet80211.a(ieee80211_ets.o)
 .xt.lit        0x00000ca8       0x68 c:/Espressif/ESP8266_SDK/lib\libnet80211.a(ieee80211_hostap.o)
                                 0x78 (size before relaxing)
 .xt.lit        0x00000d10       0x40 c:/Espressif/ESP8266_SDK/lib\libnet80211.a(ieee80211_ht.o)
                                 0x70 (size before relaxing)
 .xt.lit        0x00000d50       0x38 c:/Espressif/ESP8266_SDK/lib\libnet80211.a(ieee80211_input.o)
                                 0x60 (size before relaxing)
 .xt.lit        0x00000d88       0x18 c:/Espressif/ESP8266_SDK/lib\libnet80211.a(ieee80211_mesh_quick.o)
                                 0x28 (size before relaxing)
 .xt.lit        0x00000da0       0x40 c:/Espressif/ESP8266_SDK/lib\libnet80211.a(ieee80211_output.o)
                                 0xb8 (size before relaxing)
 .xt.lit        0x00000de0        0x8 c:/Espressif/ESP8266_SDK/lib\libnet80211.a(ieee80211_phy.o)
                                 0x18 (size before relaxing)
 .xt.lit        0x00000de8        0x8 c:/Espressif/ESP8266_SDK/lib\libnet80211.a(ieee80211_power.o)
                                 0x20 (size before relaxing)
 .xt.lit        0x00000df0       0x18 c:/Espressif/ESP8266_SDK/lib\libnet80211.a(ieee80211_proto.o)
 .xt.lit        0x00000e08       0x10 c:/Espressif/ESP8266_SDK/lib\libnet80211.a(ieee80211_regdomain.o)
                                 0x20 (size before relaxing)
 .xt.lit        0x00000e18        0x0 c:/Espressif/ESP8266_SDK/lib\libnet80211.a(ieee80211_rfid.o)
                                 0x30 (size before relaxing)
 .xt.lit        0x00000e18       0x50 c:/Espressif/ESP8266_SDK/lib\libnet80211.a(ieee80211_scan.o)
                                 0xd8 (size before relaxing)
 .xt.lit        0x00000e68       0x38 c:/Espressif/ESP8266_SDK/lib\libnet80211.a(ieee80211_sta.o)
                                 0x68 (size before relaxing)
 .xt.lit        0x00000ea0       0x20 c:/Espressif/ESP8266_SDK/lib\libnet80211.a(wl_chm.o)
                                 0x60 (size before relaxing)
 .xt.lit        0x00000ec0       0x98 c:/Espressif/ESP8266_SDK/lib\libnet80211.a(wl_cnx.o)
                                0x140 (size before relaxing)
 .xt.lit        0x00000f58       0x20 c:/Espressif/ESP8266_SDK/lib\libnet80211.a(ieee80211_action.o)
                                 0x30 (size before relaxing)
 .xt.lit        0x00000f78       0x20 c:/Espressif/ESP8266_SDK/lib\libnet80211.a(ieee80211_action_vendor.o)
                                 0x60 (size before relaxing)
 .xt.lit        0x00000f98        0x0 c:/Espressif/ESP8266_SDK/lib\libnet80211.a(ieee80211_crypto_ccmp.o)
                                 0x10 (size before relaxing)
 .xt.lit        0x00000f98        0x8 c:/Espressif/ESP8266_SDK/lib\libnet80211.a(ieee80211_ie_vendor.o)
                                 0x38 (size before relaxing)
 .xt.lit        0x00000fa0       0x48 c:/Espressif/ESP8266_SDK/lib\liblwip.a(dhcp.o)
                                 0xc0 (size before relaxing)
 .xt.lit        0x00000fe8       0x30 c:/Espressif/ESP8266_SDK/lib\liblwip.a(dhcpserver.o)
                                 0xa8 (size before relaxing)
 .xt.lit        0x00001018       0x20 c:/Espressif/ESP8266_SDK/lib\liblwip.a(dns.o)
                                 0x48 (size before relaxing)
 .xt.lit        0x00001038       0x30 c:/Espressif/ESP8266_SDK/lib\liblwip.a(espconn.o)
                                 0xf0 (size before relaxing)
 .xt.lit        0x00001068       0x80 c:/Espressif/ESP8266_SDK/lib\liblwip.a(espconn_tcp.o)
                                 0xd0 (size before relaxing)
 .xt.lit        0x000010e8       0x18 c:/Espressif/ESP8266_SDK/lib\liblwip.a(espconn_udp.o)
                                 0x38 (size before relaxing)
 .xt.lit        0x00001100       0x30 c:/Espressif/ESP8266_SDK/lib\liblwip.a(etharp.o)
                                 0x78 (size before relaxing)
 .xt.lit        0x00001130       0x18 c:/Espressif/ESP8266_SDK/lib\liblwip.a(igmp.o)
                                 0x70 (size before relaxing)
 .xt.lit        0x00001148        0x8 c:/Espressif/ESP8266_SDK/lib\liblwip.a(init.o)
 .xt.lit        0x00001150        0x8 c:/Espressif/ESP8266_SDK/lib\liblwip.a(ip_addr.o)
                                 0x20 (size before relaxing)
 .xt.lit        0x00001158       0x10 c:/Espressif/ESP8266_SDK/lib\liblwip.a(ip.o)
                                 0x20 (size before relaxing)
 .xt.lit        0x00001168       0x10 c:/Espressif/ESP8266_SDK/lib\liblwip.a(netif.o)
                                 0x40 (size before relaxing)
 .xt.lit        0x00001178       0x10 c:/Espressif/ESP8266_SDK/lib\liblwip.a(pbuf.o)
                                 0x48 (size before relaxing)
 .xt.lit        0x00001188       0x10 c:/Espressif/ESP8266_SDK/lib\liblwip.a(raw.o)
                                 0x20 (size before relaxing)
 .xt.lit        0x00001198       0x78 c:/Espressif/ESP8266_SDK/lib\liblwip.a(sntp.o)
                                 0xe8 (size before relaxing)
 .xt.lit        0x00001210       0x18 c:/Espressif/ESP8266_SDK/lib\liblwip.a(tcp_in.o)
                                 0x38 (size before relaxing)
 .xt.lit        0x00001228       0x50 c:/Espressif/ESP8266_SDK/lib\liblwip.a(tcp.o)
                                 0xb8 (size before relaxing)
 .xt.lit        0x00001278       0x28 c:/Espressif/ESP8266_SDK/lib\liblwip.a(tcp_out.o)
                                 0x68 (size before relaxing)
 .xt.lit        0x000012a0       0x48 c:/Espressif/ESP8266_SDK/lib\liblwip.a(timers.o)
                                 0x68 (size before relaxing)
 .xt.lit        0x000012e8       0x18 c:/Espressif/ESP8266_SDK/lib\liblwip.a(udp.o)
                                 0x38 (size before relaxing)
 .xt.lit        0x00001300       0x38 c:/Espressif/ESP8266_SDK/lib\liblwip.a(espconn_buf.o)
 .xt.lit        0x00001338        0x8 c:/Espressif/ESP8266_SDK/lib\liblwip.a(icmp.o)
                                 0x10 (size before relaxing)
 .xt.lit        0x00001340       0x10 c:/Espressif/ESP8266_SDK/lib\libwpa.a(ap_config.o)
                                 0x40 (size before relaxing)
 .xt.lit        0x00001350       0x10 c:/Espressif/ESP8266_SDK/lib\libwpa.a(common.o)
                                 0x18 (size before relaxing)
 .xt.lit        0x00001360        0x8 c:/Espressif/ESP8266_SDK/lib\libwpa.a(os_xtensa.o)
                                 0x10 (size before relaxing)
 .xt.lit        0x00001368       0x70 c:/Espressif/ESP8266_SDK/lib\libwpa.a(wpa_auth.o)
                                0x100 (size before relaxing)
 .xt.lit        0x000013d8       0x10 c:/Espressif/ESP8266_SDK/lib\libwpa.a(wpa_auth_ie.o)
                                 0x38 (size before relaxing)
 .xt.lit        0x000013e8       0x38 c:/Espressif/ESP8266_SDK/lib\libwpa.a(wpa.o)
                                0x110 (size before relaxing)
 .xt.lit        0x00001420       0x28 c:/Espressif/ESP8266_SDK/lib\libwpa.a(wpa_common.o)
                                 0x58 (size before relaxing)
 .xt.lit        0x00001448        0x8 c:/Espressif/ESP8266_SDK/lib\libwpa.a(wpa_debug.o)
 .xt.lit        0x00001450        0x0 c:/Espressif/ESP8266_SDK/lib\libwpa.a(wpa_ie.o)
                                 0x18 (size before relaxing)
 .xt.lit        0x00001450       0x18 c:/Espressif/ESP8266_SDK/lib\libwpa.a(wpa_main.o)
                                 0x48 (size before relaxing)
 .xt.lit        0x00001468        0x0 c:/Espressif/ESP8266_SDK/lib\libwpa.a(wpas_glue.o)
                                 0x10 (size before relaxing)
 .xt.lit        0x00001468       0x38 c:/Espressif/ESP8266_SDK/lib\libmain.a(time.o)
                                 0x60 (size before relaxing)
 .xt.lit        0x000014a0       0x10 c:/Espressif/ESP8266_SDK/lib\libssl.a(espconn_secure.o)
                                 0x68 (size before relaxing)
 .xt.lit        0x000014b0       0x68 c:/Espressif/ESP8266_SDK/lib\libssl.a(espconn_ssl.o)
                                 0xf8 (size before relaxing)
 .xt.lit        0x00001518       0x28 c:/Espressif/ESP8266_SDK/lib\libssl.a(ssl_loader.o)
                                 0x40 (size before relaxing)
 .xt.lit        0x00001540       0x18 c:/Espressif/ESP8266_SDK/lib\libssl.a(ssl_md5.o)
                                 0x20 (size before relaxing)
 .xt.lit        0x00001558        0x8 c:/Espressif/ESP8266_SDK/lib\libssl.a(ssl_tls1_clnt.o)
                                 0x30 (size before relaxing)
 .xt.lit        0x00001560       0x68 c:/Espressif/ESP8266_SDK/lib\libssl.a(ssl_tls1.o)
                                0x130 (size before relaxing)
 .xt.lit        0x000015c8       0x18 c:/Espressif/ESP8266_SDK/lib\libssl.a(ssl_tls1_svr.o)
                                 0x48 (size before relaxing)
 .xt.lit        0x000015e0       0x18 c:/Espressif/ESP8266_SDK/lib\libssl.a(ssl_x509.o)
                                 0x30 (size before relaxing)
 .xt.lit        0x000015f8       0x18 c:/Espressif/ESP8266_SDK/lib\libssl.a(sha256.o)
                                 0x20 (size before relaxing)
 .xt.lit        0x00001610        0x8 c:/Espressif/ESP8266_SDK/lib\libssl.a(sha384.o)
                                 0x18 (size before relaxing)
 .xt.lit        0x00001618       0x18 c:/Espressif/ESP8266_SDK/lib\libssl.a(sha512.o)
                                 0x20 (size before relaxing)
 .xt.lit        0x00001630       0x18 c:/Espressif/ESP8266_SDK/lib\libssl.a(ssl_aes.o)
                                 0x30 (size before relaxing)
 .xt.lit        0x00001648       0x40 c:/Espressif/ESP8266_SDK/lib\libssl.a(ssl_asn1.o)
                                 0x70 (size before relaxing)
 .xt.lit        0x00001688       0x28 c:/Espressif/ESP8266_SDK/lib\libssl.a(ssl_bigint.o)
                                 0xc8 (size before relaxing)
 .xt.lit        0x000016b0       0x10 c:/Espressif/ESP8266_SDK/lib\libssl.a(ssl_crypto_misc.o)
                                 0x20 (size before relaxing)
 .xt.lit        0x000016c0        0x8 c:/Espressif/ESP8266_SDK/lib\libssl.a(ssl_hmac.o)
                                 0x10 (size before relaxing)
 .xt.lit        0x000016c8       0x18 c:/Espressif/ESP8266_SDK/lib\libssl.a(ssl_rsa.o)
                                 0x40 (size before relaxing)
 .xt.lit        0x000016e0       0x10 c:/Espressif/ESP8266_SDK/lib\libssl.a(ssl_sha1.o)
                                 0x18 (size before relaxing)
 .xt.lit        0x000016f0        0x0 c:/Espressif/ESP8266_SDK/lib\libcrypto.a(aes-wrap.o)
                                  0x8 (size before relaxing)
 .xt.lit        0x000016f0       0x10 c:/Espressif/ESP8266_SDK/lib\libcrypto.a(aes-internal-enc.o)
                                 0x18 (size before relaxing)
 .xt.lit        0x00001700        0x8 c:/Espressif/ESP8266_SDK/lib\libcrypto.a(aes-internal.o)
 .xt.lit        0x00001708        0x8 c:/espressif/xtensa-lx106-elf/bin/../lib/gcc/xtensa-lx106-elf/5.2.0/../../../../xtensa-lx106-elf/lib\libc.a(lib_a-sysgettod.o)
 .xt.lit        0x00001710        0x8 c:/Espressif/ESP8266_SDK/lib\libgcc.a(_mulsf3.o)
 .xt.lit        0x00001718        0x0 c:/Espressif/ESP8266_SDK/lib\libgcc.a(_divsf3.o)
                                  0x8 (size before relaxing)
 .xt.lit        0x00001718        0x0 c:/Espressif/ESP8266_SDK/lib\libgcc.a(_fixsfsi.o)
                                  0x8 (size before relaxing)
 .xt.lit        0x00001718       0x10 c:/Espressif/ESP8266_SDK/lib\libnet80211.a(ieee80211_crypto_tkip.o)
 .xt.lit        0x00001728        0x0 c:/Espressif/ESP8266_SDK/lib\libnet80211.a(ieee80211_crypto_wep.o)
                                  0x8 (size before relaxing)

.comment        0x00000000     0x2298
 .comment       0x00000000       0x55 c:/Espressif/ESP8266_SDK/lib\libmain.a(app_main.o)
                                 0x56 (size before relaxing)
 .comment       0x00000055       0x56 c:/Espressif/ESP8266_SDK/lib\libmain.a(ets_timer.o)
                                 0x57 (size before relaxing)
 .comment       0x000000ab       0x58 c:/Espressif/ESP8266_SDK/lib\libmain.a(mem_manager.o)
                                 0x59 (size before relaxing)
 .comment       0x00000103       0x56 c:/Espressif/ESP8266_SDK/lib\libmain.a(spi_flash.o)
                                 0x57 (size before relaxing)
 .comment       0x00000159       0x5b c:/Espressif/ESP8266_SDK/lib\libmain.a(user_interface.o)
                                 0x5c (size before relaxing)
 .comment       0x000001b4       0x56 c:/Espressif/ESP8266_SDK/lib\libmain.a(eagle_lib.o)
                                 0x57 (size before relaxing)
 .comment       0x0000020a       0x5a c:/Espressif/ESP8266_SDK/lib\libmain.a(eagle_lwip_if.o)
                                 0x5b (size before relaxing)
 .comment       0x00000264       0x11 build/app_app.a(user_main.o)
                                 0x12 (size before relaxing)
 .comment       0x00000275       0x12 build/app_app.a(wifi_connector.o)
 .comment       0x00000275       0x12 build/app_app.a(userconfig.o)
 .comment       0x00000275       0x12 build/app_app.a(uart.o)
 .comment       0x00000275       0x12 build/app_app.a(uartproto.o)
 .comment       0x00000275       0x12 build/app_app.a(cpp_req.o)
 .comment       0x00000275       0x12 build/app_app.a(sfifo.o)
 .comment       0x00000275       0x12 c:/espressif/xtensa-lx106-elf/bin/../lib/gcc/xtensa-lx106-elf/5.2.0/../../../../xtensa-lx106-elf/lib\libc.a(lib_a-stpcpy.o)
 .comment       0x00000275       0x41 c:/Espressif/ESP8266_SDK/lib\libphy.a(phy.o)
 .comment       0x000002b6       0x4d c:/Espressif/ESP8266_SDK/lib\libphy.a(phy_chip_v6_ana.o)
 .comment       0x00000303       0x49 c:/Espressif/ESP8266_SDK/lib\libphy.a(phy_chip_v6.o)
 .comment       0x0000034c       0x4d c:/Espressif/ESP8266_SDK/lib\libphy.a(phy_chip_v6_cal.o)
 .comment       0x00000399       0x50 c:/Espressif/ESP8266_SDK/lib\libphy.a(phy_chip_v6_unused.o)
 .comment       0x000003e9       0x47 c:/Espressif/ESP8266_SDK/lib\libphy.a(phy_sleep.o)
 .comment       0x00000430       0x56 c:/Espressif/ESP8266_SDK/lib\libpp.a(if_hwctrl.o)
                                 0x57 (size before relaxing)
 .comment       0x00000486       0x51 c:/Espressif/ESP8266_SDK/lib\libpp.a(lmac.o)
                                 0x52 (size before relaxing)
 .comment       0x000004d7       0x4f c:/Espressif/ESP8266_SDK/lib\libpp.a(pm.o)
                                 0x50 (size before relaxing)
 .comment       0x00000526       0x61 c:/Espressif/ESP8266_SDK/lib\libpp.a(pm_for_bcn_only_mode.o)
                                 0x62 (size before relaxing)
 .comment       0x00000587       0x4f c:/Espressif/ESP8266_SDK/lib\libpp.a(pp.o)
                                 0x50 (size before relaxing)
 .comment       0x000005d6       0x59 c:/Espressif/ESP8266_SDK/lib\libpp.a(rate_control.o)
                                 0x5a (size before relaxing)
 .comment       0x0000062f       0x50 c:/Espressif/ESP8266_SDK/lib\libpp.a(trc.o)
                                 0x51 (size before relaxing)
 .comment       0x0000067f       0x51 c:/Espressif/ESP8266_SDK/lib\libpp.a(wdev.o)
                                 0x52 (size before relaxing)
 .comment       0x000006d0       0x54 c:/Espressif/ESP8266_SDK/lib\libpp.a(esf_buf.o)
                                 0x55 (size before relaxing)
 .comment       0x00000724       0x56 c:/Espressif/ESP8266_SDK/lib\libnet80211.a(ieee80211.o)
                                 0x57 (size before relaxing)
 .comment       0x0000077a       0x5d c:/Espressif/ESP8266_SDK/lib\libnet80211.a(ieee80211_crypto.o)
                                 0x5e (size before relaxing)
 .comment       0x000007d7       0x5a c:/Espressif/ESP8266_SDK/lib\libnet80211.a(ieee80211_ets.o)
                                 0x5b (size before relaxing)
 .comment       0x00000831       0x5d c:/Espressif/ESP8266_SDK/lib\libnet80211.a(ieee80211_hostap.o)
                                 0x5e (size before relaxing)
 .comment       0x0000088e       0x59 c:/Espressif/ESP8266_SDK/lib\libnet80211.a(ieee80211_ht.o)
                                 0x5a (size before relaxing)
 .comment       0x000008e7       0x5c c:/Espressif/ESP8266_SDK/lib\libnet80211.a(ieee80211_input.o)
                                 0x5d (size before relaxing)
 .comment       0x00000943       0x61 c:/Espressif/ESP8266_SDK/lib\libnet80211.a(ieee80211_mesh_quick.o)
                                 0x62 (size before relaxing)
 .comment       0x000009a4       0x5d c:/Espressif/ESP8266_SDK/lib\libnet80211.a(ieee80211_output.o)
                                 0x5e (size before relaxing)
 .comment       0x00000a01       0x5a c:/Espressif/ESP8266_SDK/lib\libnet80211.a(ieee80211_phy.o)
                                 0x5b (size before relaxing)
 .comment       0x00000a5b       0x5c c:/Espressif/ESP8266_SDK/lib\libnet80211.a(ieee80211_power.o)
                                 0x5d (size before relaxing)
 .comment       0x00000ab7       0x5c c:/Espressif/ESP8266_SDK/lib\libnet80211.a(ieee80211_proto.o)
                                 0x5d (size before relaxing)
 .comment       0x00000b13       0x60 c:/Espressif/ESP8266_SDK/lib\libnet80211.a(ieee80211_regdomain.o)
                                 0x61 (size before relaxing)
 .comment       0x00000b73       0x5b c:/Espressif/ESP8266_SDK/lib\libnet80211.a(ieee80211_rfid.o)
                                 0x5c (size before relaxing)
 .comment       0x00000bce       0x5b c:/Espressif/ESP8266_SDK/lib\libnet80211.a(ieee80211_scan.o)
                                 0x5c (size before relaxing)
 .comment       0x00000c29       0x5a c:/Espressif/ESP8266_SDK/lib\libnet80211.a(ieee80211_sta.o)
                                 0x5b (size before relaxing)
 .comment       0x00000c83       0x53 c:/Espressif/ESP8266_SDK/lib\libnet80211.a(wl_chm.o)
                                 0x54 (size before relaxing)
 .comment       0x00000cd6       0x53 c:/Espressif/ESP8266_SDK/lib\libnet80211.a(wl_cnx.o)
                                 0x54 (size before relaxing)
 .comment       0x00000d29       0x5d c:/Espressif/ESP8266_SDK/lib\libnet80211.a(ieee80211_action.o)
                                 0x5e (size before relaxing)
 .comment       0x00000d86       0x64 c:/Espressif/ESP8266_SDK/lib\libnet80211.a(ieee80211_action_vendor.o)
                                 0x65 (size before relaxing)
 .comment       0x00000dea       0x62 c:/Espressif/ESP8266_SDK/lib\libnet80211.a(ieee80211_crypto_ccmp.o)
                                 0x63 (size before relaxing)
 .comment       0x00000e4c       0x60 c:/Espressif/ESP8266_SDK/lib\libnet80211.a(ieee80211_ie_vendor.o)
                                 0x61 (size before relaxing)
 .comment       0x00000eac       0x51 c:/Espressif/ESP8266_SDK/lib\liblwip.a(dhcp.o)
                                 0x52 (size before relaxing)
 .comment       0x00000efd       0x57 c:/Espressif/ESP8266_SDK/lib\liblwip.a(dhcpserver.o)
                                 0x58 (size before relaxing)
 .comment       0x00000f54       0x50 c:/Espressif/ESP8266_SDK/lib\liblwip.a(dns.o)
                                 0x51 (size before relaxing)
 .comment       0x00000fa4       0x54 c:/Espressif/ESP8266_SDK/lib\liblwip.a(espconn.o)
                                 0x55 (size before relaxing)
 .comment       0x00000ff8       0x58 c:/Espressif/ESP8266_SDK/lib\liblwip.a(espconn_tcp.o)
                                 0x59 (size before relaxing)
 .comment       0x00001050       0x58 c:/Espressif/ESP8266_SDK/lib\liblwip.a(espconn_udp.o)
                                 0x59 (size before relaxing)
 .comment       0x000010a8       0x53 c:/Espressif/ESP8266_SDK/lib\liblwip.a(etharp.o)
                                 0x54 (size before relaxing)
 .comment       0x000010fb       0x51 c:/Espressif/ESP8266_SDK/lib\liblwip.a(igmp.o)
                                 0x52 (size before relaxing)
 .comment       0x0000114c       0x58 c:/Espressif/ESP8266_SDK/lib\liblwip.a(inet_chksum.o)
                                 0x59 (size before relaxing)
 .comment       0x000011a4       0x51 c:/Espressif/ESP8266_SDK/lib\liblwip.a(init.o)
                                 0x52 (size before relaxing)
 .comment       0x000011f5       0x54 c:/Espressif/ESP8266_SDK/lib\liblwip.a(ip_addr.o)
                                 0x55 (size before relaxing)
 .comment       0x00001249       0x4f c:/Espressif/ESP8266_SDK/lib\liblwip.a(ip.o)
                                 0x50 (size before relaxing)
 .comment       0x00001298       0x51 c:/Espressif/ESP8266_SDK/lib\liblwip.a(memp.o)
                                 0x52 (size before relaxing)
 .comment       0x000012e9       0x52 c:/Espressif/ESP8266_SDK/lib\liblwip.a(netif.o)
                                 0x53 (size before relaxing)
 .comment       0x0000133b       0x51 c:/Espressif/ESP8266_SDK/lib\liblwip.a(pbuf.o)
                                 0x52 (size before relaxing)
 .comment       0x0000138c       0x50 c:/Espressif/ESP8266_SDK/lib\liblwip.a(raw.o)
                                 0x51 (size before relaxing)
 .comment       0x000013dc       0x51 c:/Espressif/ESP8266_SDK/lib\liblwip.a(sntp.o)
                                 0x52 (size before relaxing)
 .comment       0x0000142d       0x53 c:/Espressif/ESP8266_SDK/lib\liblwip.a(tcp_in.o)
                                 0x54 (size before relaxing)
 .comment       0x00001480       0x50 c:/Espressif/ESP8266_SDK/lib\liblwip.a(tcp.o)
                                 0x51 (size before relaxing)
 .comment       0x000014d0       0x54 c:/Espressif/ESP8266_SDK/lib\liblwip.a(tcp_out.o)
                                 0x55 (size before relaxing)
 .comment       0x00001524       0x53 c:/Espressif/ESP8266_SDK/lib\liblwip.a(timers.o)
                                 0x54 (size before relaxing)
 .comment       0x00001577       0x50 c:/Espressif/ESP8266_SDK/lib\liblwip.a(udp.o)
                                 0x51 (size before relaxing)
 .comment       0x000015c7       0x58 c:/Espressif/ESP8266_SDK/lib\liblwip.a(espconn_buf.o)
                                 0x59 (size before relaxing)
 .comment       0x0000161f       0x51 c:/Espressif/ESP8266_SDK/lib\liblwip.a(icmp.o)
                                 0x52 (size before relaxing)
 .comment       0x00001670       0x56 c:/Espressif/ESP8266_SDK/lib\libwpa.a(ap_config.o)
                                 0x57 (size before relaxing)
 .comment       0x000016c6       0x53 c:/Espressif/ESP8266_SDK/lib\libwpa.a(common.o)
                                 0x54 (size before relaxing)
 .comment       0x00001719       0x56 c:/Espressif/ESP8266_SDK/lib\libwpa.a(os_xtensa.o)
                                 0x57 (size before relaxing)
 .comment       0x0000176f       0x55 c:/Espressif/ESP8266_SDK/lib\libwpa.a(wpa_auth.o)
                                 0x56 (size before relaxing)
 .comment       0x000017c4       0x58 c:/Espressif/ESP8266_SDK/lib\libwpa.a(wpa_auth_ie.o)
                                 0x59 (size before relaxing)
 .comment       0x0000181c       0x50 c:/Espressif/ESP8266_SDK/lib\libwpa.a(wpa.o)
                                 0x51 (size before relaxing)
 .comment       0x0000186c       0x57 c:/Espressif/ESP8266_SDK/lib\libwpa.a(wpa_common.o)
                                 0x58 (size before relaxing)
 .comment       0x000018c3       0x56 c:/Espressif/ESP8266_SDK/lib\libwpa.a(wpa_debug.o)
                                 0x57 (size before relaxing)
 .comment       0x00001919       0x53 c:/Espressif/ESP8266_SDK/lib\libwpa.a(wpa_ie.o)
                                 0x54 (size before relaxing)
 .comment       0x0000196c       0x55 c:/Espressif/ESP8266_SDK/lib\libwpa.a(wpa_main.o)
                                 0x56 (size before relaxing)
 .comment       0x000019c1       0x56 c:/Espressif/ESP8266_SDK/lib\libwpa.a(wpas_glue.o)
                                 0x57 (size before relaxing)
 .comment       0x00001a17       0x51 c:/Espressif/ESP8266_SDK/lib\libmain.a(time.o)
                                 0x52 (size before relaxing)
 .comment       0x00001a68       0x5b c:/Espressif/ESP8266_SDK/lib\libssl.a(espconn_secure.o)
                                 0x5c (size before relaxing)
 .comment       0x00001ac3       0x58 c:/Espressif/ESP8266_SDK/lib\libssl.a(espconn_ssl.o)
                                 0x59 (size before relaxing)
 .comment       0x00001b1b       0x57 c:/Espressif/ESP8266_SDK/lib\libssl.a(ssl_loader.o)
                                 0x58 (size before relaxing)
 .comment       0x00001b72       0x54 c:/Espressif/ESP8266_SDK/lib\libssl.a(ssl_md5.o)
                                 0x55 (size before relaxing)
 .comment       0x00001bc6       0x5a c:/Espressif/ESP8266_SDK/lib\libssl.a(ssl_tls1_clnt.o)
                                 0x5b (size before relaxing)
 .comment       0x00001c20       0x55 c:/Espressif/ESP8266_SDK/lib\libssl.a(ssl_tls1.o)
                                 0x56 (size before relaxing)
 .comment       0x00001c75       0x59 c:/Espressif/ESP8266_SDK/lib\libssl.a(ssl_tls1_svr.o)
                                 0x5a (size before relaxing)
 .comment       0x00001cce       0x55 c:/Espressif/ESP8266_SDK/lib\libssl.a(ssl_x509.o)
                                 0x56 (size before relaxing)
 .comment       0x00001d23       0x53 c:/Espressif/ESP8266_SDK/lib\libssl.a(sha256.o)
                                 0x54 (size before relaxing)
 .comment       0x00001d76       0x53 c:/Espressif/ESP8266_SDK/lib\libssl.a(sha384.o)
                                 0x54 (size before relaxing)
 .comment       0x00001dc9       0x53 c:/Espressif/ESP8266_SDK/lib\libssl.a(sha512.o)
                                 0x54 (size before relaxing)
 .comment       0x00001e1c       0x54 c:/Espressif/ESP8266_SDK/lib\libssl.a(ssl_aes.o)
                                 0x55 (size before relaxing)
 .comment       0x00001e70       0x55 c:/Espressif/ESP8266_SDK/lib\libssl.a(ssl_asn1.o)
                                 0x56 (size before relaxing)
 .comment       0x00001ec5       0x57 c:/Espressif/ESP8266_SDK/lib\libssl.a(ssl_bigint.o)
                                 0x58 (size before relaxing)
 .comment       0x00001f1c       0x5c c:/Espressif/ESP8266_SDK/lib\libssl.a(ssl_crypto_misc.o)
                                 0x5d (size before relaxing)
 .comment       0x00001f78       0x55 c:/Espressif/ESP8266_SDK/lib\libssl.a(ssl_hmac.o)
                                 0x56 (size before relaxing)
 .comment       0x00001fcd       0x54 c:/Espressif/ESP8266_SDK/lib\libssl.a(ssl_rc4.o)
                                 0x55 (size before relaxing)
 .comment       0x00002021       0x54 c:/Espressif/ESP8266_SDK/lib\libssl.a(ssl_rsa.o)
                                 0x55 (size before relaxing)
 .comment       0x00002075       0x55 c:/Espressif/ESP8266_SDK/lib\libssl.a(ssl_sha1.o)
                                 0x56 (size before relaxing)
 .comment       0x000020ca       0x55 c:/Espressif/ESP8266_SDK/lib\libcrypto.a(aes-wrap.o)
                                 0x56 (size before relaxing)
 .comment       0x0000211f       0x5d c:/Espressif/ESP8266_SDK/lib\libcrypto.a(aes-internal-enc.o)
                                 0x5e (size before relaxing)
 .comment       0x0000217c       0x59 c:/Espressif/ESP8266_SDK/lib\libcrypto.a(aes-internal.o)
                                 0x5a (size before relaxing)
 .comment       0x000021d5       0x12 c:/espressif/xtensa-lx106-elf/bin/../lib/gcc/xtensa-lx106-elf/5.2.0/../../../../xtensa-lx106-elf/lib\libc.a(lib_a-memchr.o)
 .comment       0x000021d5       0x12 c:/espressif/xtensa-lx106-elf/bin/../lib/gcc/xtensa-lx106-elf/5.2.0/../../../../xtensa-lx106-elf/lib\libc.a(lib_a-memcmp.o)
 .comment       0x000021d5       0x12 c:/espressif/xtensa-lx106-elf/bin/../lib/gcc/xtensa-lx106-elf/5.2.0/../../../../xtensa-lx106-elf/lib\libc.a(lib_a-sysgettod.o)
 .comment       0x000021d5       0x12 c:/espressif/xtensa-lx106-elf/bin/../lib/gcc/xtensa-lx106-elf/5.2.0/../../../../xtensa-lx106-elf/lib\libc.a(lib_a-impure.o)
 .comment       0x000021d5       0x62 c:/Espressif/ESP8266_SDK/lib\libnet80211.a(ieee80211_crypto_tkip.o)
                                 0x63 (size before relaxing)
 .comment       0x00002237       0x61 c:/Espressif/ESP8266_SDK/lib\libnet80211.a(ieee80211_crypto_wep.o)
                                 0x62 (size before relaxing)

.debug_frame    0x00000000      0x7c4
 .debug_frame   0x00000000       0x80 build/app_app.a(user_main.o)
 .debug_frame   0x00000080      0x348 build/app_app.a(wifi_connector.o)
 .debug_frame   0x000003c8       0x5c build/app_app.a(userconfig.o)
 .debug_frame   0x00000424       0xfc build/app_app.a(uart.o)
 .debug_frame   0x00000520       0xdc build/app_app.a(uartproto.o)
 .debug_frame   0x000005fc       0xe8 build/app_app.a(cpp_req.o)
 .debug_frame   0x000006e4       0x50 build/app_app.a(sfifo.o)
 .debug_frame   0x00000734       0x20 c:/espressif/xtensa-lx106-elf/bin/../lib/gcc/xtensa-lx106-elf/5.2.0/../../../../xtensa-lx106-elf/lib\libc.a(lib_a-stpcpy.o)
 .debug_frame   0x00000754       0x20 c:/espressif/xtensa-lx106-elf/bin/../lib/gcc/xtensa-lx106-elf/5.2.0/../../../../xtensa-lx106-elf/lib\libc.a(lib_a-memchr.o)
 .debug_frame   0x00000774       0x20 c:/espressif/xtensa-lx106-elf/bin/../lib/gcc/xtensa-lx106-elf/5.2.0/../../../../xtensa-lx106-elf/lib\libc.a(lib_a-memcmp.o)
 .debug_frame   0x00000794       0x30 c:/espressif/xtensa-lx106-elf/bin/../lib/gcc/xtensa-lx106-elf/5.2.0/../../../../xtensa-lx106-elf/lib\libc.a(lib_a-sysgettod.o)

.debug_info     0x00000000     0x636a
 .debug_info    0x00000000      0x351 build/app_app.a(user_main.o)
 .debug_info    0x00000351     0x291e build/app_app.a(wifi_connector.o)
 .debug_info    0x00002c6f      0x395 build/app_app.a(userconfig.o)
 .debug_info    0x00003004      0x9d5 build/app_app.a(uart.o)
 .debug_info    0x000039d9      0xb61 build/app_app.a(uartproto.o)
 .debug_info    0x0000453a      0x1c2 build/app_app.a(cpp_req.o)
 .debug_info    0x000046fc      0x1c4 build/app_app.a(sfifo.o)
 .debug_info    0x000048c0       0xd0 c:/espressif/xtensa-lx106-elf/bin/../lib/gcc/xtensa-lx106-elf/5.2.0/../../../../xtensa-lx106-elf/lib\libc.a(lib_a-memcpy.o)
 .debug_info    0x00004990       0xbb c:/espressif/xtensa-lx106-elf/bin/../lib/gcc/xtensa-lx106-elf/5.2.0/../../../../xtensa-lx106-elf/lib\libc.a(lib_a-stpcpy.o)
 .debug_info    0x00004a4b       0xd0 c:/espressif/xtensa-lx106-elf/bin/../lib/gcc/xtensa-lx106-elf/5.2.0/../../../../xtensa-lx106-elf/lib\libc.a(lib_a-strlen.o)
 .debug_info    0x00004b1b       0xf8 c:/espressif/xtensa-lx106-elf/bin/../lib/gcc/xtensa-lx106-elf/5.2.0/../../../../xtensa-lx106-elf/lib\libc.a(lib_a-memchr.o)
 .debug_info    0x00004c13       0xef c:/espressif/xtensa-lx106-elf/bin/../lib/gcc/xtensa-lx106-elf/5.2.0/../../../../xtensa-lx106-elf/lib\libc.a(lib_a-memcmp.o)
 .debug_info    0x00004d02      0x912 c:/espressif/xtensa-lx106-elf/bin/../lib/gcc/xtensa-lx106-elf/5.2.0/../../../../xtensa-lx106-elf/lib\libc.a(lib_a-sysgettod.o)
 .debug_info    0x00005614      0x894 c:/espressif/xtensa-lx106-elf/bin/../lib/gcc/xtensa-lx106-elf/5.2.0/../../../../xtensa-lx106-elf/lib\libc.a(lib_a-impure.o)
 .debug_info    0x00005ea8       0xf3 c:/Espressif/ESP8266_SDK/lib\libgcc.a(_modsi3.o)
 .debug_info    0x00005f9b       0xf3 c:/Espressif/ESP8266_SDK/lib\libgcc.a(_ashrdi3.o)
 .debug_info    0x0000608e       0xf4 c:/Espressif/ESP8266_SDK/lib\libgcc.a(_mulsf3.o)
 .debug_info    0x00006182       0xf4 c:/Espressif/ESP8266_SDK/lib\libgcc.a(_divsf3.o)
 .debug_info    0x00006276       0xf4 c:/Espressif/ESP8266_SDK/lib\libgcc.a(_fixsfsi.o)

.debug_abbrev   0x00000000     0x12c2
 .debug_abbrev  0x00000000      0x11e build/app_app.a(user_main.o)
 .debug_abbrev  0x0000011e      0x3ad build/app_app.a(wifi_connector.o)
 .debug_abbrev  0x000004cb      0x101 build/app_app.a(userconfig.o)
 .debug_abbrev  0x000005cc      0x2d9 build/app_app.a(uart.o)
 .debug_abbrev  0x000008a5      0x257 build/app_app.a(uartproto.o)
 .debug_abbrev  0x00000afc      0x13d build/app_app.a(cpp_req.o)
 .debug_abbrev  0x00000c39      0x10c build/app_app.a(sfifo.o)
 .debug_abbrev  0x00000d45       0x14 c:/espressif/xtensa-lx106-elf/bin/../lib/gcc/xtensa-lx106-elf/5.2.0/../../../../xtensa-lx106-elf/lib\libc.a(lib_a-memcpy.o)
 .debug_abbrev  0x00000d59       0x70 c:/espressif/xtensa-lx106-elf/bin/../lib/gcc/xtensa-lx106-elf/5.2.0/../../../../xtensa-lx106-elf/lib\libc.a(lib_a-stpcpy.o)
 .debug_abbrev  0x00000dc9       0x14 c:/espressif/xtensa-lx106-elf/bin/../lib/gcc/xtensa-lx106-elf/5.2.0/../../../../xtensa-lx106-elf/lib\libc.a(lib_a-strlen.o)
 .debug_abbrev  0x00000ddd       0xab c:/espressif/xtensa-lx106-elf/bin/../lib/gcc/xtensa-lx106-elf/5.2.0/../../../../xtensa-lx106-elf/lib\libc.a(lib_a-memchr.o)
 .debug_abbrev  0x00000e88       0x8e c:/espressif/xtensa-lx106-elf/bin/../lib/gcc/xtensa-lx106-elf/5.2.0/../../../../xtensa-lx106-elf/lib\libc.a(lib_a-memcmp.o)
 .debug_abbrev  0x00000f16      0x1c8 c:/espressif/xtensa-lx106-elf/bin/../lib/gcc/xtensa-lx106-elf/5.2.0/../../../../xtensa-lx106-elf/lib\libc.a(lib_a-sysgettod.o)
 .debug_abbrev  0x000010de      0x180 c:/espressif/xtensa-lx106-elf/bin/../lib/gcc/xtensa-lx106-elf/5.2.0/../../../../xtensa-lx106-elf/lib\libc.a(lib_a-impure.o)
 .debug_abbrev  0x0000125e       0x14 c:/Espressif/ESP8266_SDK/lib\libgcc.a(_modsi3.o)
 .debug_abbrev  0x00001272       0x14 c:/Espressif/ESP8266_SDK/lib\libgcc.a(_ashrdi3.o)
 .debug_abbrev  0x00001286       0x14 c:/Espressif/ESP8266_SDK/lib\libgcc.a(_mulsf3.o)
 .debug_abbrev  0x0000129a       0x14 c:/Espressif/ESP8266_SDK/lib\libgcc.a(_divsf3.o)
 .debug_abbrev  0x000012ae       0x14 c:/Espressif/ESP8266_SDK/lib\libgcc.a(_fixsfsi.o)

.debug_loc      0x00000000     0x114f
 .debug_loc     0x00000000       0x3d build/app_app.a(user_main.o)
 .debug_loc     0x0000003d      0x67a build/app_app.a(wifi_connector.o)
 .debug_loc     0x000006b7      0x2e8 build/app_app.a(uart.o)
 .debug_loc     0x0000099f      0x297 build/app_app.a(uartproto.o)
 .debug_loc     0x00000c36       0x6d build/app_app.a(cpp_req.o)
 .debug_loc     0x00000ca3      0x2e8 build/app_app.a(sfifo.o)
 .debug_loc     0x00000f8b       0x36 c:/espressif/xtensa-lx106-elf/bin/../lib/gcc/xtensa-lx106-elf/5.2.0/../../../../xtensa-lx106-elf/lib\libc.a(lib_a-stpcpy.o)
 .debug_loc     0x00000fc1       0x8b c:/espressif/xtensa-lx106-elf/bin/../lib/gcc/xtensa-lx106-elf/5.2.0/../../../../xtensa-lx106-elf/lib\libc.a(lib_a-memchr.o)
 .debug_loc     0x0000104c       0xab c:/espressif/xtensa-lx106-elf/bin/../lib/gcc/xtensa-lx106-elf/5.2.0/../../../../xtensa-lx106-elf/lib\libc.a(lib_a-memcmp.o)
 .debug_loc     0x000010f7       0x58 c:/espressif/xtensa-lx106-elf/bin/../lib/gcc/xtensa-lx106-elf/5.2.0/../../../../xtensa-lx106-elf/lib\libc.a(lib_a-sysgettod.o)

.debug_aranges  0x00000000      0x2f0
 .debug_aranges
                0x00000000       0x28 build/app_app.a(user_main.o)
 .debug_aranges
                0x00000028       0x78 build/app_app.a(wifi_connector.o)
 .debug_aranges
                0x000000a0       0x20 build/app_app.a(userconfig.o)
 .debug_aranges
                0x000000c0       0x38 build/app_app.a(uart.o)
 .debug_aranges
                0x000000f8       0x40 build/app_app.a(uartproto.o)
 .debug_aranges
                0x00000138       0x20 build/app_app.a(cpp_req.o)
 .debug_aranges
                0x00000158       0x20 build/app_app.a(sfifo.o)
 .debug_aranges
                0x00000178       0x20 c:/espressif/xtensa-lx106-elf/bin/../lib/gcc/xtensa-lx106-elf/5.2.0/../../../../xtensa-lx106-elf/lib\libc.a(lib_a-memcpy.o)
 .debug_aranges
                0x00000198       0x20 c:/espressif/xtensa-lx106-elf/bin/../lib/gcc/xtensa-lx106-elf/5.2.0/../../../../xtensa-lx106-elf/lib\libc.a(lib_a-stpcpy.o)
 .debug_aranges
                0x000001b8       0x20 c:/espressif/xtensa-lx106-elf/bin/../lib/gcc/xtensa-lx106-elf/5.2.0/../../../../xtensa-lx106-elf/lib\libc.a(lib_a-strlen.o)
 .debug_aranges
                0x000001d8       0x20 c:/espressif/xtensa-lx106-elf/bin/../lib/gcc/xtensa-lx106-elf/5.2.0/../../../../xtensa-lx106-elf/lib\libc.a(lib_a-memchr.o)
 .debug_aranges
                0x000001f8       0x20 c:/espressif/xtensa-lx106-elf/bin/../lib/gcc/xtensa-lx106-elf/5.2.0/../../../../xtensa-lx106-elf/lib\libc.a(lib_a-memcmp.o)
 .debug_aranges
                0x00000218       0x20 c:/espressif/xtensa-lx106-elf/bin/../lib/gcc/xtensa-lx106-elf/5.2.0/../../../../xtensa-lx106-elf/lib\libc.a(lib_a-sysgettod.o)
 .debug_aranges
                0x00000238       0x18 c:/espressif/xtensa-lx106-elf/bin/../lib/gcc/xtensa-lx106-elf/5.2.0/../../../../xtensa-lx106-elf/lib\libc.a(lib_a-impure.o)
 .debug_aranges
                0x00000250       0x20 c:/Espressif/ESP8266_SDK/lib\libgcc.a(_modsi3.o)
 .debug_aranges
                0x00000270       0x20 c:/Espressif/ESP8266_SDK/lib\libgcc.a(_ashrdi3.o)
 .debug_aranges
                0x00000290       0x20 c:/Espressif/ESP8266_SDK/lib\libgcc.a(_mulsf3.o)
 .debug_aranges
                0x000002b0       0x20 c:/Espressif/ESP8266_SDK/lib\libgcc.a(_divsf3.o)
 .debug_aranges
                0x000002d0       0x20 c:/Espressif/ESP8266_SDK/lib\libgcc.a(_fixsfsi.o)

.debug_ranges   0x00000000      0x208
 .debug_ranges  0x00000000       0x18 build/app_app.a(user_main.o)
 .debug_ranges  0x00000018       0xb0 build/app_app.a(wifi_connector.o)
 .debug_ranges  0x000000c8       0xe0 build/app_app.a(uart.o)
 .debug_ranges  0x000001a8       0x60 build/app_app.a(uartproto.o)

.debug_line     0x00000000     0x3075
 .debug_line    0x00000000      0x188 build/app_app.a(user_main.o)
 .debug_line    0x00000188      0xbc3 build/app_app.a(wifi_connector.o)
 .debug_line    0x00000d4b      0x1e8 build/app_app.a(userconfig.o)
 .debug_line    0x00000f33      0x3a2 build/app_app.a(uart.o)
 .debug_line    0x000012d5      0x678 build/app_app.a(uartproto.o)
 .debug_line    0x0000194d      0x133 build/app_app.a(cpp_req.o)
 .debug_line    0x00001a80      0x152 build/app_app.a(sfifo.o)
 .debug_line    0x00001bd2      0x355 c:/espressif/xtensa-lx106-elf/bin/../lib/gcc/xtensa-lx106-elf/5.2.0/../../../../xtensa-lx106-elf/lib\libc.a(lib_a-memcpy.o)
 .debug_line    0x00001f27       0xcc c:/espressif/xtensa-lx106-elf/bin/../lib/gcc/xtensa-lx106-elf/5.2.0/../../../../xtensa-lx106-elf/lib\libc.a(lib_a-stpcpy.o)
 .debug_line    0x00001ff3      0x12c c:/espressif/xtensa-lx106-elf/bin/../lib/gcc/xtensa-lx106-elf/5.2.0/../../../../xtensa-lx106-elf/lib\libc.a(lib_a-strlen.o)
 .debug_line    0x0000211f      0x15a c:/espressif/xtensa-lx106-elf/bin/../lib/gcc/xtensa-lx106-elf/5.2.0/../../../../xtensa-lx106-elf/lib\libc.a(lib_a-memchr.o)
 .debug_line    0x00002279      0x15f c:/espressif/xtensa-lx106-elf/bin/../lib/gcc/xtensa-lx106-elf/5.2.0/../../../../xtensa-lx106-elf/lib\libc.a(lib_a-memcmp.o)
 .debug_line    0x000023d8      0x1e5 c:/espressif/xtensa-lx106-elf/bin/../lib/gcc/xtensa-lx106-elf/5.2.0/../../../../xtensa-lx106-elf/lib\libc.a(lib_a-sysgettod.o)
 .debug_line    0x000025bd      0x137 c:/espressif/xtensa-lx106-elf/bin/../lib/gcc/xtensa-lx106-elf/5.2.0/../../../../xtensa-lx106-elf/lib\libc.a(lib_a-impure.o)
 .debug_line    0x000026f4      0x11a c:/Espressif/ESP8266_SDK/lib\libgcc.a(_modsi3.o)
 .debug_line    0x0000280e       0xba c:/Espressif/ESP8266_SDK/lib\libgcc.a(_ashrdi3.o)
 .debug_line    0x000028c8      0x37f c:/Espressif/ESP8266_SDK/lib\libgcc.a(_mulsf3.o)
 .debug_line    0x00002c47      0x319 c:/Espressif/ESP8266_SDK/lib\libgcc.a(_divsf3.o)
 .debug_line    0x00002f60      0x115 c:/Espressif/ESP8266_SDK/lib\libgcc.a(_fixsfsi.o)

.debug_str      0x00000000     0x237a
 .debug_str     0x00000000      0x41c build/app_app.a(user_main.o)
                                0x481 (size before relaxing)
 .debug_str     0x0000041c      0xfde build/app_app.a(wifi_connector.o)
                               0x139f (size before relaxing)
 .debug_str     0x000013fa       0x67 build/app_app.a(userconfig.o)
                                0x31b (size before relaxing)
 .debug_str     0x00001461      0x4b1 build/app_app.a(uart.o)
                                0x6cc (size before relaxing)
 .debug_str     0x00001912      0x344 build/app_app.a(uartproto.o)
                                0x897 (size before relaxing)
 .debug_str     0x00001c56       0xa8 build/app_app.a(cpp_req.o)
                                0x22a (size before relaxing)
 .debug_str     0x00001cfe       0x16 build/app_app.a(sfifo.o)
                                0x178 (size before relaxing)
 .debug_str     0x00001d14       0xc7 c:/espressif/xtensa-lx106-elf/bin/../lib/gcc/xtensa-lx106-elf/5.2.0/../../../../xtensa-lx106-elf/lib\libc.a(lib_a-stpcpy.o)
                                0x160 (size before relaxing)
 .debug_str     0x00001ddb       0x42 c:/espressif/xtensa-lx106-elf/bin/../lib/gcc/xtensa-lx106-elf/5.2.0/../../../../xtensa-lx106-elf/lib\libc.a(lib_a-memchr.o)
                                0x177 (size before relaxing)
 .debug_str     0x00001e1d       0x32 c:/espressif/xtensa-lx106-elf/bin/../lib/gcc/xtensa-lx106-elf/5.2.0/../../../../xtensa-lx106-elf/lib\libc.a(lib_a-memcmp.o)
                                0x167 (size before relaxing)
 .debug_str     0x00001e4f      0x479 c:/espressif/xtensa-lx106-elf/bin/../lib/gcc/xtensa-lx106-elf/5.2.0/../../../../xtensa-lx106-elf/lib\libc.a(lib_a-sysgettod.o)
                                0x588 (size before relaxing)
 .debug_str     0x000022c8       0xb2 c:/espressif/xtensa-lx106-elf/bin/../lib/gcc/xtensa-lx106-elf/5.2.0/../../../../xtensa-lx106-elf/lib\libc.a(lib_a-impure.o)
                                0x538 (size before relaxing)

Cross Reference Table

Symbol                                            File
AES_cbc_decrypt                                   c:/Espressif/ESP8266_SDK/lib\libssl.a(ssl_aes.o)
                                                  c:/Espressif/ESP8266_SDK/lib\libssl.a(ssl_tls1.o)
                                                  c:/Espressif/ESP8266_SDK/lib\libssl.a(ssl_loader.o)
AES_cbc_encrypt                                   c:/Espressif/ESP8266_SDK/lib\libssl.a(ssl_aes.o)
                                                  c:/Espressif/ESP8266_SDK/lib\libssl.a(ssl_tls1.o)
AES_convert_key                                   c:/Espressif/ESP8266_SDK/lib\libssl.a(ssl_aes.o)
                                                  c:/Espressif/ESP8266_SDK/lib\libssl.a(ssl_tls1.o)
                                                  c:/Espressif/ESP8266_SDK/lib\libssl.a(ssl_loader.o)
AES_set_key                                       c:/Espressif/ESP8266_SDK/lib\libssl.a(ssl_aes.o)
                                                  c:/Espressif/ESP8266_SDK/lib\libssl.a(ssl_tls1.o)
                                                  c:/Espressif/ESP8266_SDK/lib\libssl.a(ssl_loader.o)
APRecvBcnStartTick                                c:/Espressif/ESP8266_SDK/lib\libnet80211.a(ieee80211_hostap.o)
                                                  c:/Espressif/ESP8266_SDK/lib\libpp.a(pp.o)
ApFreqCalTimer                                    c:/Espressif/ESP8266_SDK/lib\libnet80211.a(ieee80211_hostap.o)
AutoDiscoverySendTimerCallback                    build/app_app.a(wifi_connector.o)
BcnEb_update                                      c:/Espressif/ESP8266_SDK/lib\libnet80211.a(ieee80211_hostap.o)
                                                  c:/Espressif/ESP8266_SDK/lib\libnet80211.a(wl_cnx.o)
                                                  c:/Espressif/ESP8266_SDK/lib\libnet80211.a(wl_chm.o)
                                                  c:/Espressif/ESP8266_SDK/lib\libnet80211.a(ieee80211_mesh_quick.o)
                                                  c:/Espressif/ESP8266_SDK/lib\libmain.a(user_interface.o)
BcnWithMcastSendCnt                               c:/Espressif/ESP8266_SDK/lib\libnet80211.a(ieee80211_hostap.o)
                                                  c:/Espressif/ESP8266_SDK/lib\libpp.a(pp.o)
BcnWithMcastSendStart                             c:/Espressif/ESP8266_SDK/lib\libnet80211.a(ieee80211_hostap.o)
Cache_Read_Disable                                c:/Espressif/ESP8266_SDK/lib\libmain.a(user_interface.o)
                                                  c:/Espressif/ESP8266_SDK/lib\libmain.a(spi_flash.o)
Cache_Read_Disable_2                              c:/Espressif/ESP8266_SDK/lib\libmain.a(spi_flash.o)
Cache_Read_Enable                                 c:/Espressif/ESP8266_SDK/lib\libmain.a(app_main.o)
Cache_Read_Enable_2                               c:/Espressif/ESP8266_SDK/lib\libmain.a(spi_flash.o)
Cache_Read_Enable_New                             c:/Espressif/ESP8266_SDK/lib\libmain.a(app_main.o)
                                                  c:/Espressif/ESP8266_SDK/lib\libpp.a(pp.o)
                                                  c:/Espressif/ESP8266_SDK/lib\libmain.a(spi_flash.o)
                                                  c:/Espressif/ESP8266_SDK/lib\libmain.a(mem_manager.o)
CanDoFreqCal                                      c:/Espressif/ESP8266_SDK/lib\libpp.a(pp.o)
                                                  c:/Espressif/ESP8266_SDK/lib\libnet80211.a(ieee80211_hostap.o)
ConfigLoad()                                      build/app_app.a(userconfig.o)
                                                  build/app_app.a(user_main.o)
ConfigSave()                                      build/app_app.a(userconfig.o)
                                                  build/app_app.a(uartproto.o)
DISPLAY_ALERT                                     c:/Espressif/ESP8266_SDK/lib\libssl.a(ssl_tls1.o)
DISPLAY_BYTES                                     c:/Espressif/ESP8266_SDK/lib\libssl.a(ssl_tls1.o)
DISPLAY_RSA                                       c:/Espressif/ESP8266_SDK/lib\libssl.a(ssl_tls1.o)
DISPLAY_STATE                                     c:/Espressif/ESP8266_SDK/lib\libssl.a(ssl_tls1.o)
DefFreqCalTimer                                   c:/Espressif/ESP8266_SDK/lib\libpp.a(pp.o)
                                                  c:/Espressif/ESP8266_SDK/lib\libnet80211.a(ieee80211_hostap.o)
DefFreqCalTimerCB                                 c:/Espressif/ESP8266_SDK/lib\libpp.a(pp.o)
                                                  c:/Espressif/ESP8266_SDK/lib\libnet80211.a(ieee80211_hostap.o)
Enable_QMode                                      c:/Espressif/ESP8266_SDK/lib\libmain.a(spi_flash.o)
FreqCalCntForScan                                 c:/Espressif/ESP8266_SDK/lib\libnet80211.a(ieee80211_scan.o)
                                                  c:/Espressif/ESP8266_SDK/lib\libnet80211.a(ieee80211_sta.o)
GetAccess                                         c:/Espressif/ESP8266_SDK/lib\libpp.a(lmac.o)
                                                  c:/Espressif/ESP8266_SDK/lib\libpp.a(pp.o)
HdlAllBuffedEb                                    c:/Espressif/ESP8266_SDK/lib\libpp.a(pp.o)
                                                  c:/Espressif/ESP8266_SDK/lib\libnet80211.a(ieee80211_hostap.o)
HighestFreqOffsetInOneChk                         c:/Espressif/ESP8266_SDK/lib\libpp.a(pp.o)
                                                  c:/Espressif/ESP8266_SDK/lib\libnet80211.a(ieee80211_hostap.o)
LightSleepWakedCbSetFunc                          c:/Espressif/ESP8266_SDK/lib\libpp.a(pm.o)
LowestFreqOffsetInOneChk                          c:/Espressif/ESP8266_SDK/lib\libpp.a(pp.o)
                                                  c:/Espressif/ESP8266_SDK/lib\libnet80211.a(ieee80211_hostap.o)
MD5_Final                                         c:/Espressif/ESP8266_SDK/lib\libssl.a(ssl_md5.o)
                                                  c:/Espressif/ESP8266_SDK/lib\libssl.a(ssl_hmac.o)
                                                  c:/Espressif/ESP8266_SDK/lib\libssl.a(ssl_x509.o)
                                                  c:/Espressif/ESP8266_SDK/lib\libssl.a(ssl_tls1.o)
                                                  c:/Espressif/ESP8266_SDK/lib\libssl.a(ssl_loader.o)
MD5_Init                                          c:/Espressif/ESP8266_SDK/lib\libssl.a(ssl_md5.o)
                                                  c:/Espressif/ESP8266_SDK/lib\libssl.a(ssl_hmac.o)
                                                  c:/Espressif/ESP8266_SDK/lib\libssl.a(ssl_x509.o)
                                                  c:/Espressif/ESP8266_SDK/lib\libssl.a(ssl_tls1.o)
                                                  c:/Espressif/ESP8266_SDK/lib\libssl.a(ssl_loader.o)
MD5_Update                                        c:/Espressif/ESP8266_SDK/lib\libssl.a(ssl_md5.o)
                                                  c:/Espressif/ESP8266_SDK/lib\libssl.a(ssl_hmac.o)
                                                  c:/Espressif/ESP8266_SDK/lib\libssl.a(ssl_x509.o)
                                                  c:/Espressif/ESP8266_SDK/lib\libssl.a(ssl_tls1.o)
                                                  c:/Espressif/ESP8266_SDK/lib\libssl.a(ssl_loader.o)
NMI_Handler                                       c:/Espressif/ESP8266_SDK/lib\libmain.a(app_main.o)
                                                  c:/Espressif/ESP8266_SDK/lib\libmain.a(nmi-vector.o)
NmiTimSetFunc                                     c:/Espressif/ESP8266_SDK/lib\libmain.a(app_main.o)
NoiseTimerInterval                                c:/Espressif/ESP8266_SDK/lib\libpp.a(pp.o)
                                                  c:/Espressif/ESP8266_SDK/lib\libnet80211.a(ieee80211_hostap.o)
OnSystemInitDone                                  build/app_app.a(user_main.o)
OpmodChgIsOnGoing                                 c:/Espressif/ESP8266_SDK/lib\libmain.a(user_interface.o)
PPWdtReset                                        c:/Espressif/ESP8266_SDK/lib\libpp.a(pp.o)
                                                  c:/Espressif/ESP8266_SDK/lib\libpp.a(wdev.o)
PendFreeBcnEb                                     c:/Espressif/ESP8266_SDK/lib\libnet80211.a(ieee80211_hostap.o)
                                                  c:/Espressif/ESP8266_SDK/lib\libpp.a(pp.o)
PktNumInOneChk                                    c:/Espressif/ESP8266_SDK/lib\libpp.a(pp.o)
                                                  c:/Espressif/ESP8266_SDK/lib\libnet80211.a(ieee80211_hostap.o)
RC4_crypt                                         c:/Espressif/ESP8266_SDK/lib\libssl.a(ssl_rc4.o)
                                                  c:/Espressif/ESP8266_SDK/lib\libssl.a(ssl_tls1.o)
RC4_setup                                         c:/Espressif/ESP8266_SDK/lib\libssl.a(ssl_rc4.o)
                                                  c:/Espressif/ESP8266_SDK/lib\libssl.a(ssl_tls1.o)
RC_GetAckRate                                     c:/Espressif/ESP8266_SDK/lib\libpp.a(rate_control.o)
RC_GetAckTime                                     c:/Espressif/ESP8266_SDK/lib\libpp.a(rate_control.o)
                                                  c:/Espressif/ESP8266_SDK/lib\libpp.a(pp.o)
                                                  c:/Espressif/ESP8266_SDK/lib\libpp.a(lmac.o)
RC_GetBlockAckTime                                c:/Espressif/ESP8266_SDK/lib\libpp.a(rate_control.o)
                                                  c:/Espressif/ESP8266_SDK/lib\libpp.a(pp.o)
RC_GetCtsTime                                     c:/Espressif/ESP8266_SDK/lib\libpp.a(rate_control.o)
                                                  c:/Espressif/ESP8266_SDK/lib\libpp.a(pp.o)
RC_GetRtsRate                                     c:/Espressif/ESP8266_SDK/lib\libpp.a(rate_control.o)
RC_SetBasicRate                                   c:/Espressif/ESP8266_SDK/lib\libpp.a(rate_control.o)
                                                  c:/Espressif/ESP8266_SDK/lib\libpp.a(lmac.o)
RFChannelSel                                      c:/Espressif/ESP8266_SDK/lib\libphy.a(phy.o)
RNG_custom_init                                   c:/Espressif/ESP8266_SDK/lib\libssl.a(ssl_crypto_misc.o)
                                                  c:/Espressif/ESP8266_SDK/lib\libssl.a(ssl_asn1.o)
RNG_initialize                                    c:/Espressif/ESP8266_SDK/lib\libssl.a(ssl_crypto_misc.o)
                                                  c:/Espressif/ESP8266_SDK/lib\libssl.a(ssl_tls1.o)
RNG_terminate                                     c:/Espressif/ESP8266_SDK/lib\libssl.a(ssl_crypto_misc.o)
                                                  c:/Espressif/ESP8266_SDK/lib\libssl.a(ssl_tls1.o)
RSA_decrypt                                       c:/Espressif/ESP8266_SDK/lib\libssl.a(ssl_rsa.o)
                                                  c:/Espressif/ESP8266_SDK/lib\libssl.a(ssl_tls1_svr.o)
RSA_encrypt                                       c:/Espressif/ESP8266_SDK/lib\libssl.a(ssl_rsa.o)
                                                  c:/Espressif/ESP8266_SDK/lib\libssl.a(ssl_tls1_clnt.o)
RSA_free                                          c:/Espressif/ESP8266_SDK/lib\libssl.a(ssl_rsa.o)
                                                  c:/Espressif/ESP8266_SDK/lib\libssl.a(ssl_x509.o)
                                                  c:/Espressif/ESP8266_SDK/lib\libssl.a(ssl_tls1.o)
RSA_print                                         c:/Espressif/ESP8266_SDK/lib\libssl.a(ssl_rsa.o)
                                                  c:/Espressif/ESP8266_SDK/lib\libssl.a(ssl_tls1.o)
RSA_priv_key_new                                  c:/Espressif/ESP8266_SDK/lib\libssl.a(ssl_rsa.o)
                                                  c:/Espressif/ESP8266_SDK/lib\libssl.a(ssl_asn1.o)
RSA_private                                       c:/Espressif/ESP8266_SDK/lib\libssl.a(ssl_rsa.o)
RSA_pub_key_new                                   c:/Espressif/ESP8266_SDK/lib\libssl.a(ssl_rsa.o)
                                                  c:/Espressif/ESP8266_SDK/lib\libssl.a(ssl_asn1.o)
RSA_public                                        c:/Espressif/ESP8266_SDK/lib\libssl.a(ssl_rsa.o)
RxNodeNum                                         c:/Espressif/ESP8266_SDK/lib\libpp.a(pp.o)
                                                  c:/Espressif/ESP8266_SDK/lib\liblwip.a(tcp_in.o)
                                                  c:/Espressif/ESP8266_SDK/lib\libnet80211.a(ieee80211_hostap.o)
SDIO_slp_reject                                   c:/Espressif/ESP8266_SDK/lib\libphy.a(phy_sleep.o)
SDK_VERSION                                       c:/Espressif/ESP8266_SDK/lib\libmain.a(app_main.o)
                                                  c:/Espressif/ESP8266_SDK/lib\libmain.a(user_interface.o)
SHA1_Final                                        c:/Espressif/ESP8266_SDK/lib\libssl.a(ssl_sha1.o)
                                                  c:/Espressif/ESP8266_SDK/lib\libssl.a(ssl_hmac.o)
                                                  c:/Espressif/ESP8266_SDK/lib\libssl.a(ssl_x509.o)
                                                  c:/Espressif/ESP8266_SDK/lib\libssl.a(ssl_tls1.o)
SHA1_Init                                         c:/Espressif/ESP8266_SDK/lib\libssl.a(ssl_sha1.o)
                                                  c:/Espressif/ESP8266_SDK/lib\libssl.a(ssl_hmac.o)
                                                  c:/Espressif/ESP8266_SDK/lib\libssl.a(ssl_x509.o)
                                                  c:/Espressif/ESP8266_SDK/lib\libssl.a(ssl_tls1.o)
SHA1_Update                                       c:/Espressif/ESP8266_SDK/lib\libssl.a(ssl_sha1.o)
                                                  c:/Espressif/ESP8266_SDK/lib\libssl.a(ssl_hmac.o)
                                                  c:/Espressif/ESP8266_SDK/lib\libssl.a(ssl_x509.o)
                                                  c:/Espressif/ESP8266_SDK/lib\libssl.a(ssl_tls1.o)
SHA256_Final                                      c:/Espressif/ESP8266_SDK/lib\libssl.a(sha256.o)
                                                  c:/Espressif/ESP8266_SDK/lib\libssl.a(ssl_x509.o)
SHA256_Init                                       c:/Espressif/ESP8266_SDK/lib\libssl.a(sha256.o)
                                                  c:/Espressif/ESP8266_SDK/lib\libssl.a(ssl_x509.o)
SHA256_Update                                     c:/Espressif/ESP8266_SDK/lib\libssl.a(sha256.o)
                                                  c:/Espressif/ESP8266_SDK/lib\libssl.a(ssl_x509.o)
SHA384_Final                                      c:/Espressif/ESP8266_SDK/lib\libssl.a(sha384.o)
                                                  c:/Espressif/ESP8266_SDK/lib\libssl.a(ssl_x509.o)
SHA384_Init                                       c:/Espressif/ESP8266_SDK/lib\libssl.a(sha384.o)
                                                  c:/Espressif/ESP8266_SDK/lib\libssl.a(ssl_x509.o)
SHA384_Update                                     c:/Espressif/ESP8266_SDK/lib\libssl.a(sha384.o)
                                                  c:/Espressif/ESP8266_SDK/lib\libssl.a(ssl_x509.o)
SHA512_Final                                      c:/Espressif/ESP8266_SDK/lib\libssl.a(sha512.o)
                                                  c:/Espressif/ESP8266_SDK/lib\libssl.a(sha384.o)
                                                  c:/Espressif/ESP8266_SDK/lib\libssl.a(ssl_x509.o)
SHA512_Init                                       c:/Espressif/ESP8266_SDK/lib\libssl.a(sha512.o)
                                                  c:/Espressif/ESP8266_SDK/lib\libssl.a(ssl_x509.o)
SHA512_Update                                     c:/Espressif/ESP8266_SDK/lib\libssl.a(sha512.o)
                                                  c:/Espressif/ESP8266_SDK/lib\libssl.a(sha384.o)
                                                  c:/Espressif/ESP8266_SDK/lib\libssl.a(ssl_x509.o)
SPIEraseSector                                    c:/Espressif/ESP8266_SDK/lib\libmain.a(spi_flash.o)
SPIRead                                           c:/Espressif/ESP8266_SDK/lib\libmain.a(spi_flash.o)
                                                  c:/Espressif/ESP8266_SDK/lib\libmain.a(app_main.o)
SPIWrite                                          c:/Espressif/ESP8266_SDK/lib\libmain.a(spi_flash.o)
SPI_read_status                                   c:/Espressif/ESP8266_SDK/lib\libmain.a(spi_flash.o)
SPI_write_enable                                  c:/Espressif/ESP8266_SDK/lib\libmain.a(spi_flash.o)
SPI_write_status                                  c:/Espressif/ESP8266_SDK/lib\libmain.a(spi_flash.o)
SSLClient_new                                     c:/Espressif/ESP8266_SDK/lib\libssl.a(ssl_tls1_clnt.o)
                                                  c:/Espressif/ESP8266_SDK/lib\libssl.a(espconn_ssl.o)
StopLightSleepSetFunc                             c:/Espressif/ESP8266_SDK/lib\libpp.a(pm.o)
TcpConnect                                        build/app_app.a(wifi_connector.o)
TcpConnectCallback                                build/app_app.a(wifi_connector.o)
TcpDisconnectCallback                             build/app_app.a(wifi_connector.o)
TcpKeepAliveTimerCallback                         build/app_app.a(wifi_connector.o)
TcpPingerTimerCallback                            build/app_app.a(wifi_connector.o)
TcpProcessCommand()                               build/app_app.a(wifi_connector.o)
TcpReceiveCallback                                build/app_app.a(wifi_connector.o)
TcpReconnectCallback                              build/app_app.a(wifi_connector.o)
TcpReconnectTimerCallback                         build/app_app.a(wifi_connector.o)
TcpSendCommand(char const*)                       build/app_app.a(wifi_connector.o)
TcpSendCommand(char const*, char const*)          build/app_app.a(wifi_connector.o)
TcpSendData(unsigned char*, unsigned short)       build/app_app.a(wifi_connector.o)
                                                  build/app_app.a(uartproto.o)
TcpSentCallback                                   build/app_app.a(wifi_connector.o)
Te0                                               c:/Espressif/ESP8266_SDK/lib\libcrypto.a(aes-internal.o)
                                                  c:/Espressif/ESP8266_SDK/lib\libcrypto.a(aes-internal-enc.o)
TestStaFreqCalValInput                            c:/Espressif/ESP8266_SDK/lib\libnet80211.a(ieee80211_scan.o)
                                                  c:/Espressif/ESP8266_SDK/lib\libnet80211.a(ieee80211_output.o)
                                                  c:/Espressif/ESP8266_SDK/lib\libnet80211.a(ieee80211_hostap.o)
                                                  c:/Espressif/ESP8266_SDK/lib\libpp.a(pp.o)
                                                  c:/Espressif/ESP8266_SDK/lib\libmain.a(app_main.o)
TmpSTAAPCloseAP                                   c:/Espressif/ESP8266_SDK/lib\libnet80211.a(ieee80211_hostap.o)
                                                  c:/Espressif/ESP8266_SDK/lib\libpp.a(pp.o)
TxNodeNum                                         c:/Espressif/ESP8266_SDK/lib\libpp.a(pp.o)
Tx_Copy2Queue                                     c:/Espressif/ESP8266_SDK/lib\libpp.a(wdev.o)
                                                  c:/Espressif/ESP8266_SDK/lib\libpp.a(lmac.o)
UartDev                                           build/app_app.a(uart.o)
UartProcessByte(unsigned char)                    build/app_app.a(uartproto.o)
UartProcessFifoTask                               build/app_app.a(uartproto.o)
UartProcessFullPacket()                           build/app_app.a(uartproto.o)
UartTaskInit()                                    build/app_app.a(uartproto.o)
                                                  build/app_app.a(user_main.o)
Uart_Init                                         c:/Espressif/ESP8266_SDK/lib\libphy.a(phy_chip_v6.o)
UdpReceiveCallback                                build/app_app.a(wifi_connector.o)
Wait_SPI_Idle                                     c:/Espressif/ESP8266_SDK/lib\libpp.a(pp.o)
                                                  c:/Espressif/ESP8266_SDK/lib\libmain.a(user_interface.o)
                                                  c:/Espressif/ESP8266_SDK/lib\libmain.a(spi_flash.o)
                                                  c:/Espressif/ESP8266_SDK/lib\libmain.a(mem_manager.o)
                                                  c:/Espressif/ESP8266_SDK/lib\libmain.a(app_main.o)
WdevTimOffSet                                     c:/Espressif/ESP8266_SDK/lib\libpp.a(wdev.o)
                                                  c:/Espressif/ESP8266_SDK/lib\libpp.a(pm_for_bcn_only_mode.o)
                                                  c:/Espressif/ESP8266_SDK/lib\libpp.a(pm.o)
                                                  c:/Espressif/ESP8266_SDK/lib\libmain.a(user_interface.o)
WiFiMode                                          build/app_app.a(wifi_connector.o)
WifiConnectorInit()                               build/app_app.a(wifi_connector.o)
                                                  build/app_app.a(user_main.o)
WifiEnterConfigMode()                             build/app_app.a(wifi_connector.o)
                                                  build/app_app.a(uartproto.o)
WifiEnterWorkMode()                               build/app_app.a(wifi_connector.o)
                                                  build/app_app.a(uartproto.o)
WifiIsValidServerAddress()                        build/app_app.a(wifi_connector.o)
WifiStationReconnect()                            build/app_app.a(wifi_connector.o)
                                                  build/app_app.a(uartproto.o)
_DebugExceptionVector                             c:/Espressif/ESP8266_SDK/lib\libmain.a(debug-vector.o)
_DoubleExceptionVector                            c:/Espressif/ESP8266_SDK/lib\libmain.a(double-vector.o)
_KernelExceptionVector                            c:/Espressif/ESP8266_SDK/lib\libmain.a(kernel-vector.o)
_NMIExceptionVector                               c:/Espressif/ESP8266_SDK/lib\libmain.a(nmi-vector.o)
_NMILevelVector                                   c:/Espressif/ESP8266_SDK/lib\libmain.a(nmi-vector.o)
_Pri_3_HandlerAddress                             c:/Espressif/ESP8266_SDK/lib\libmain.a(nmi-vector.o)
_UserExceptionVector                              c:/Espressif/ESP8266_SDK/lib\libmain.a(user-vector.o)
_UserExceptionVector_1                            c:/Espressif/ESP8266_SDK/lib\libmain.a(user-vector.o)
__addsf3                                          c:/Espressif/ESP8266_SDK/lib\libphy.a(phy_chip_v6_ana.o)
__ashrdi3                                         c:/Espressif/ESP8266_SDK/lib\libgcc.a(_ashrdi3.o)
                                                  c:/Espressif/ESP8266_SDK/lib\libphy.a(phy_chip_v6.o)
__cxa_deleted_virtual                             build/app_app.a(cpp_req.o)
__cxa_pure_virtual                                build/app_app.a(cpp_req.o)
__divdf3                                          c:/Espressif/ESP8266_SDK/lib\libphy.a(phy_chip_v6.o)
                                                  c:/Espressif/ESP8266_SDK/lib\libphy.a(phy_chip_v6_ana.o)
__divdi3                                          c:/Espressif/ESP8266_SDK/lib\libphy.a(phy_chip_v6_cal.o)
__divsf3                                          c:/Espressif/ESP8266_SDK/lib\libgcc.a(_divsf3.o)
                                                  c:/Espressif/ESP8266_SDK/lib\libphy.a(phy_chip_v6.o)
                                                  c:/Espressif/ESP8266_SDK/lib\libphy.a(phy_chip_v6_ana.o)
__divsi3                                          c:/Espressif/ESP8266_SDK/lib\libssl.a(ssl_bigint.o)
                                                  c:/Espressif/ESP8266_SDK/lib\libwpa.a(wpa_auth.o)
                                                  c:/Espressif/ESP8266_SDK/lib\liblwip.a(tcp_in.o)
                                                  c:/Espressif/ESP8266_SDK/lib\liblwip.a(sntp.o)
                                                  c:/Espressif/ESP8266_SDK/lib\liblwip.a(dhcp.o)
                                                  c:/Espressif/ESP8266_SDK/lib\libnet80211.a(ieee80211_regdomain.o)
                                                  c:/Espressif/ESP8266_SDK/lib\libnet80211.a(ieee80211.o)
                                                  c:/Espressif/ESP8266_SDK/lib\libpp.a(pp.o)
                                                  c:/Espressif/ESP8266_SDK/lib\libpp.a(pm.o)
                                                  c:/Espressif/ESP8266_SDK/lib\libphy.a(phy_chip_v6_cal.o)
                                                  c:/Espressif/ESP8266_SDK/lib\libphy.a(phy_chip_v6.o)
                                                  c:/Espressif/ESP8266_SDK/lib\libphy.a(phy_chip_v6_ana.o)
                                                  c:/Espressif/ESP8266_SDK/lib\libmain.a(user_interface.o)
__fixdfsi                                         c:/Espressif/ESP8266_SDK/lib\libphy.a(phy_chip_v6.o)
__fixsfsi                                         c:/Espressif/ESP8266_SDK/lib\libgcc.a(_fixsfsi.o)
                                                  c:/Espressif/ESP8266_SDK/lib\libphy.a(phy_chip_v6.o)
__fixunssfsi                                      c:/Espressif/ESP8266_SDK/lib\libphy.a(phy_chip_v6_ana.o)
__floatsidf                                       c:/Espressif/ESP8266_SDK/lib\libphy.a(phy_chip_v6.o)
__floatsisf                                       c:/Espressif/ESP8266_SDK/lib\libphy.a(phy_chip_v6.o)
                                                  c:/Espressif/ESP8266_SDK/lib\libphy.a(phy_chip_v6_ana.o)
__floatunsidf                                     c:/Espressif/ESP8266_SDK/lib\libphy.a(phy_chip_v6_ana.o)
__floatunsisf                                     c:/Espressif/ESP8266_SDK/lib\libphy.a(phy_chip_v6.o)
__init_array_end                                  build/app_app.a(cpp_req.o)
__init_array_start                                build/app_app.a(cpp_req.o)
__modsi3                                          c:/Espressif/ESP8266_SDK/lib\libgcc.a(_modsi3.o)
                                                  c:/Espressif/ESP8266_SDK/lib\libssl.a(ssl_bigint.o)
                                                  c:/Espressif/ESP8266_SDK/lib\libssl.a(ssl_aes.o)
                                                  c:/Espressif/ESP8266_SDK/lib\libssl.a(ssl_tls1.o)
                                                  c:/Espressif/ESP8266_SDK/lib\libssl.a(espconn_ssl.o)
                                                  c:/Espressif/ESP8266_SDK/lib\libwpa.a(wpa_auth.o)
                                                  c:/Espressif/ESP8266_SDK/lib\liblwip.a(sntp.o)
                                                  c:/Espressif/ESP8266_SDK/lib\libnet80211.a(ieee80211_ht.o)
                                                  c:/Espressif/ESP8266_SDK/lib\libphy.a(phy_chip_v6.o)
__muldf3                                          c:/Espressif/ESP8266_SDK/lib\libphy.a(phy_chip_v6.o)
__muldi3                                          c:/Espressif/ESP8266_SDK/lib\libssl.a(ssl_bigint.o)
                                                  c:/Espressif/ESP8266_SDK/lib\libssl.a(sha512.o)
                                                  c:/Espressif/ESP8266_SDK/lib\libmain.a(time.o)
                                                  c:/Espressif/ESP8266_SDK/lib\libphy.a(phy_chip_v6_cal.o)
                                                  c:/Espressif/ESP8266_SDK/lib\libphy.a(phy_chip_v6.o)
                                                  c:/Espressif/ESP8266_SDK/lib\libmain.a(user_interface.o)
__mulsf3                                          c:/Espressif/ESP8266_SDK/lib\libgcc.a(_mulsf3.o)
                                                  c:/Espressif/ESP8266_SDK/lib\libphy.a(phy_chip_v6.o)
                                                  c:/Espressif/ESP8266_SDK/lib\libphy.a(phy_chip_v6_ana.o)
__subsf3                                          c:/Espressif/ESP8266_SDK/lib\libphy.a(phy_chip_v6_ana.o)
__truncdfsf2                                      c:/Espressif/ESP8266_SDK/lib\libphy.a(phy_chip_v6_ana.o)
__tznorth                                         c:/Espressif/ESP8266_SDK/lib\liblwip.a(sntp.o)
__tzyear                                          c:/Espressif/ESP8266_SDK/lib\liblwip.a(sntp.o)
__udivdi3                                         c:/Espressif/ESP8266_SDK/lib\libssl.a(ssl_bigint.o)
                                                  c:/Espressif/ESP8266_SDK/lib\libmain.a(time.o)
__udivsi3                                         c:/Espressif/ESP8266_SDK/lib\libmain.a(time.o)
                                                  c:/Espressif/ESP8266_SDK/lib\liblwip.a(timers.o)
                                                  c:/Espressif/ESP8266_SDK/lib\liblwip.a(tcp.o)
                                                  c:/Espressif/ESP8266_SDK/lib\liblwip.a(sntp.o)
                                                  c:/Espressif/ESP8266_SDK/lib\liblwip.a(ip_addr.o)
                                                  c:/Espressif/ESP8266_SDK/lib\liblwip.a(espconn.o)
                                                  c:/Espressif/ESP8266_SDK/lib\liblwip.a(dhcp.o)
                                                  c:/Espressif/ESP8266_SDK/lib\libnet80211.a(ieee80211_hostap.o)
                                                  c:/Espressif/ESP8266_SDK/lib\libnet80211.a(ieee80211.o)
                                                  c:/Espressif/ESP8266_SDK/lib\libpp.a(wdev.o)
                                                  c:/Espressif/ESP8266_SDK/lib\libpp.a(trc.o)
                                                  c:/Espressif/ESP8266_SDK/lib\libpp.a(pp.o)
                                                  c:/Espressif/ESP8266_SDK/lib\libpp.a(pm_for_bcn_only_mode.o)
                                                  c:/Espressif/ESP8266_SDK/lib\libpp.a(pm.o)
                                                  c:/Espressif/ESP8266_SDK/lib\libphy.a(phy_sleep.o)
                                                  c:/Espressif/ESP8266_SDK/lib\libphy.a(phy_chip_v6_cal.o)
                                                  c:/Espressif/ESP8266_SDK/lib\libphy.a(phy_chip_v6.o)
                                                  build/app_app.a(uart.o)
                                                  c:/Espressif/ESP8266_SDK/lib\libmain.a(eagle_lib.o)
                                                  c:/Espressif/ESP8266_SDK/lib\libmain.a(user_interface.o)
                                                  c:/Espressif/ESP8266_SDK/lib\libmain.a(ets_timer.o)
                                                  c:/Espressif/ESP8266_SDK/lib\libmain.a(app_main.o)
__umoddi3                                         c:/Espressif/ESP8266_SDK/lib\libssl.a(ssl_bigint.o)
                                                  c:/Espressif/ESP8266_SDK/lib\libmain.a(time.o)
                                                  c:/Espressif/ESP8266_SDK/lib\libpp.a(pm.o)
__umodsi3                                         c:/Espressif/ESP8266_SDK/lib\liblwip.a(espconn_buf.o)
                                                  c:/Espressif/ESP8266_SDK/lib\liblwip.a(tcp.o)
                                                  c:/Espressif/ESP8266_SDK/lib\liblwip.a(ip_addr.o)
                                                  c:/Espressif/ESP8266_SDK/lib\liblwip.a(igmp.o)
                                                  c:/Espressif/ESP8266_SDK/lib\liblwip.a(espconn.o)
                                                  c:/Espressif/ESP8266_SDK/lib\libmain.a(eagle_lib.o)
__umulsidi3                                       c:/Espressif/ESP8266_SDK/lib\libssl.a(ssl_bigint.o)
__wpa_send_eapol                                  c:/Espressif/ESP8266_SDK/lib\libwpa.a(wpa_auth.o)
_bss_end                                          c:/Espressif/ESP8266_SDK/lib\libmain.a(user_interface.o)
                                                  c:/Espressif/ESP8266_SDK/lib\libmain.a(app_main.o)
_bss_start                                        c:/Espressif/ESP8266_SDK/lib\libmain.a(user_interface.o)
                                                  c:/Espressif/ESP8266_SDK/lib\libmain.a(app_main.o)
_data_end                                         c:/Espressif/ESP8266_SDK/lib\libmain.a(user_interface.o)
_data_start                                       c:/Espressif/ESP8266_SDK/lib\libmain.a(user_interface.o)
_gettimeofday_r                                   c:/Espressif/ESP8266_SDK/lib\libmain.a(time.o)
                                                  c:/espressif/xtensa-lx106-elf/bin/../lib/gcc/xtensa-lx106-elf/5.2.0/../../../../xtensa-lx106-elf/lib\libc.a(lib_a-sysgettod.o)
_global_impure_ptr                                c:/espressif/xtensa-lx106-elf/bin/../lib/gcc/xtensa-lx106-elf/5.2.0/../../../../xtensa-lx106-elf/lib\libc.a(lib_a-impure.o)
_heap_start                                       c:/Espressif/ESP8266_SDK/lib\libmain.a(user_interface.o)
                                                  c:/Espressif/ESP8266_SDK/lib\libmain.a(mem_manager.o)
_impure_ptr                                       c:/espressif/xtensa-lx106-elf/bin/../lib/gcc/xtensa-lx106-elf/5.2.0/../../../../xtensa-lx106-elf/lib\libc.a(lib_a-impure.o)
                                                  c:/espressif/xtensa-lx106-elf/bin/../lib/gcc/xtensa-lx106-elf/5.2.0/../../../../xtensa-lx106-elf/lib\libc.a(lib_a-sysgettod.o)
_rodata_end                                       c:/Espressif/ESP8266_SDK/lib\libmain.a(user_interface.o)
_rodata_start                                     c:/Espressif/ESP8266_SDK/lib\libmain.a(user_interface.o)
_xtos_set_exception_handler                       c:/Espressif/ESP8266_SDK/lib\libmain.a(app_main.o)
abort                                             build/app_app.a(cpp_req.o)
adc_rand_noise                                    c:/Espressif/ESP8266_SDK/lib\libphy.a(phy_chip_v6.o)
                                                  c:/Espressif/ESP8266_SDK/lib\libphy.a(phy_sleep.o)
add_cert                                          c:/Espressif/ESP8266_SDK/lib\libssl.a(ssl_tls1.o)
                                                  c:/Espressif/ESP8266_SDK/lib\libssl.a(ssl_loader.o)
add_cert_auth                                     c:/Espressif/ESP8266_SDK/lib\libssl.a(ssl_tls1.o)
                                                  c:/Espressif/ESP8266_SDK/lib\libssl.a(ssl_loader.o)
add_packet                                        c:/Espressif/ESP8266_SDK/lib\libssl.a(ssl_tls1.o)
                                                  c:/Espressif/ESP8266_SDK/lib\libssl.a(ssl_tls1_svr.o)
add_private_key                                   c:/Espressif/ESP8266_SDK/lib\libssl.a(ssl_tls1.o)
                                                  c:/Espressif/ESP8266_SDK/lib\libssl.a(ssl_loader.o)
aes_encrypt                                       c:/Espressif/ESP8266_SDK/lib\libcrypto.a(aes-internal-enc.o)
                                                  c:/Espressif/ESP8266_SDK/lib\libcrypto.a(aes-wrap.o)
aes_encrypt_deinit                                c:/Espressif/ESP8266_SDK/lib\libcrypto.a(aes-internal-enc.o)
                                                  c:/Espressif/ESP8266_SDK/lib\libcrypto.a(aes-wrap.o)
aes_encrypt_init                                  c:/Espressif/ESP8266_SDK/lib\libcrypto.a(aes-internal-enc.o)
                                                  c:/Espressif/ESP8266_SDK/lib\libcrypto.a(aes-wrap.o)
aes_unwrap                                        c:/Espressif/ESP8266_SDK/lib\libwpa.a(wpa.o)
aes_wrap                                          c:/Espressif/ESP8266_SDK/lib\libcrypto.a(aes-wrap.o)
                                                  c:/Espressif/ESP8266_SDK/lib\libwpa.a(wpa_auth.o)
ant_switch_init                                   c:/Espressif/ESP8266_SDK/lib\libphy.a(phy_chip_v6.o)
asn1_compare_dn                                   c:/Espressif/ESP8266_SDK/lib\libssl.a(ssl_asn1.o)
                                                  c:/Espressif/ESP8266_SDK/lib\libssl.a(ssl_x509.o)
asn1_find_oid                                     c:/Espressif/ESP8266_SDK/lib\libssl.a(ssl_asn1.o)
asn1_find_subjectaltname                          c:/Espressif/ESP8266_SDK/lib\libssl.a(ssl_asn1.o)
                                                  c:/Espressif/ESP8266_SDK/lib\libssl.a(ssl_x509.o)
asn1_get_int                                      c:/Espressif/ESP8266_SDK/lib\libssl.a(ssl_asn1.o)
asn1_get_private_key                              c:/Espressif/ESP8266_SDK/lib\libssl.a(ssl_asn1.o)
                                                  c:/Espressif/ESP8266_SDK/lib\libssl.a(ssl_tls1.o)
asn1_name                                         c:/Espressif/ESP8266_SDK/lib\libssl.a(ssl_asn1.o)
                                                  c:/Espressif/ESP8266_SDK/lib\libssl.a(ssl_x509.o)
asn1_next_obj                                     c:/Espressif/ESP8266_SDK/lib\libssl.a(ssl_asn1.o)
                                                  c:/Espressif/ESP8266_SDK/lib\libssl.a(ssl_x509.o)
asn1_public_key                                   c:/Espressif/ESP8266_SDK/lib\libssl.a(ssl_asn1.o)
                                                  c:/Espressif/ESP8266_SDK/lib\libssl.a(ssl_x509.o)
asn1_signature                                    c:/Espressif/ESP8266_SDK/lib\libssl.a(ssl_asn1.o)
                                                  c:/Espressif/ESP8266_SDK/lib\libssl.a(ssl_x509.o)
asn1_signature_type                               c:/Espressif/ESP8266_SDK/lib\libssl.a(ssl_asn1.o)
                                                  c:/Espressif/ESP8266_SDK/lib\libssl.a(ssl_x509.o)
asn1_skip_obj                                     c:/Espressif/ESP8266_SDK/lib\libssl.a(ssl_asn1.o)
                                                  c:/Espressif/ESP8266_SDK/lib\libssl.a(ssl_x509.o)
asn1_validity                                     c:/Espressif/ESP8266_SDK/lib\libssl.a(ssl_asn1.o)
                                                  c:/Espressif/ESP8266_SDK/lib\libssl.a(ssl_x509.o)
asn1_version                                      c:/Espressif/ESP8266_SDK/lib\libssl.a(ssl_asn1.o)
                                                  c:/Espressif/ESP8266_SDK/lib\libssl.a(ssl_x509.o)
auth_type                                         c:/Espressif/ESP8266_SDK/lib\libnet80211.a(ieee80211_scan.o)
                                                  c:/Espressif/ESP8266_SDK/lib\libnet80211.a(wl_cnx.o)
backup_ni_connect_status                          c:/Espressif/ESP8266_SDK/lib\libnet80211.a(wl_cnx.o)
base64_decode                                     c:/Espressif/ESP8266_SDK/lib\libssl.a(ssl_crypto_misc.o)
                                                  c:/Espressif/ESP8266_SDK/lib\libssl.a(ssl_loader.o)
basic_read                                        c:/Espressif/ESP8266_SDK/lib\libssl.a(ssl_tls1.o)
bb_init                                           c:/Espressif/ESP8266_SDK/lib\libphy.a(phy.o)
bbpll_cal                                         c:/Espressif/ESP8266_SDK/lib\libphy.a(phy_chip_v6.o)
                                                  c:/Espressif/ESP8266_SDK/lib\libphy.a(phy_chip_v6_ana.o)
bbpll_cal_flag                                    c:/Espressif/ESP8266_SDK/lib\libphy.a(phy_chip_v6.o)
                                                  c:/Espressif/ESP8266_SDK/lib\libphy.a(phy_sleep.o)
bi_add                                            c:/Espressif/ESP8266_SDK/lib\libssl.a(ssl_bigint.o)
bi_barrett                                        c:/Espressif/ESP8266_SDK/lib\libssl.a(ssl_bigint.o)
bi_clear_cache                                    c:/Espressif/ESP8266_SDK/lib\libssl.a(ssl_bigint.o)
                                                  c:/Espressif/ESP8266_SDK/lib\libssl.a(ssl_rsa.o)
                                                  c:/Espressif/ESP8266_SDK/lib\libssl.a(ssl_x509.o)
bi_clone                                          c:/Espressif/ESP8266_SDK/lib\libssl.a(ssl_bigint.o)
                                                  c:/Espressif/ESP8266_SDK/lib\libssl.a(ssl_x509.o)
bi_compare                                        c:/Espressif/ESP8266_SDK/lib\libssl.a(ssl_bigint.o)
                                                  c:/Espressif/ESP8266_SDK/lib\libssl.a(ssl_x509.o)
bi_copy                                           c:/Espressif/ESP8266_SDK/lib\libssl.a(ssl_bigint.o)
bi_crt                                            c:/Espressif/ESP8266_SDK/lib\libssl.a(ssl_bigint.o)
                                                  c:/Espressif/ESP8266_SDK/lib\libssl.a(ssl_rsa.o)
bi_depermanent                                    c:/Espressif/ESP8266_SDK/lib\libssl.a(ssl_bigint.o)
                                                  c:/Espressif/ESP8266_SDK/lib\libssl.a(ssl_rsa.o)
bi_divide                                         c:/Espressif/ESP8266_SDK/lib\libssl.a(ssl_bigint.o)
bi_export                                         c:/Espressif/ESP8266_SDK/lib\libssl.a(ssl_bigint.o)
                                                  c:/Espressif/ESP8266_SDK/lib\libssl.a(ssl_rsa.o)
                                                  c:/Espressif/ESP8266_SDK/lib\libssl.a(ssl_x509.o)
bi_free                                           c:/Espressif/ESP8266_SDK/lib\libssl.a(ssl_bigint.o)
                                                  c:/Espressif/ESP8266_SDK/lib\libssl.a(ssl_rsa.o)
                                                  c:/Espressif/ESP8266_SDK/lib\libssl.a(ssl_x509.o)
bi_free_mod                                       c:/Espressif/ESP8266_SDK/lib\libssl.a(ssl_bigint.o)
                                                  c:/Espressif/ESP8266_SDK/lib\libssl.a(ssl_rsa.o)
bi_import                                         c:/Espressif/ESP8266_SDK/lib\libssl.a(ssl_bigint.o)
                                                  c:/Espressif/ESP8266_SDK/lib\libssl.a(ssl_rsa.o)
                                                  c:/Espressif/ESP8266_SDK/lib\libssl.a(ssl_x509.o)
bi_initialize                                     c:/Espressif/ESP8266_SDK/lib\libssl.a(ssl_bigint.o)
                                                  c:/Espressif/ESP8266_SDK/lib\libssl.a(ssl_rsa.o)
bi_mod_power                                      c:/Espressif/ESP8266_SDK/lib\libssl.a(ssl_bigint.o)
                                                  c:/Espressif/ESP8266_SDK/lib\libssl.a(ssl_rsa.o)
bi_mod_power2                                     c:/Espressif/ESP8266_SDK/lib\libssl.a(ssl_bigint.o)
                                                  c:/Espressif/ESP8266_SDK/lib\libssl.a(ssl_x509.o)
bi_multiply                                       c:/Espressif/ESP8266_SDK/lib\libssl.a(ssl_bigint.o)
bi_permanent                                      c:/Espressif/ESP8266_SDK/lib\libssl.a(ssl_bigint.o)
                                                  c:/Espressif/ESP8266_SDK/lib\libssl.a(ssl_rsa.o)
bi_print                                          c:/Espressif/ESP8266_SDK/lib\libssl.a(ssl_bigint.o)
                                                  c:/Espressif/ESP8266_SDK/lib\libssl.a(ssl_rsa.o)
bi_set_mod                                        c:/Espressif/ESP8266_SDK/lib\libssl.a(ssl_bigint.o)
                                                  c:/Espressif/ESP8266_SDK/lib\libssl.a(ssl_rsa.o)
bi_square                                         c:/Espressif/ESP8266_SDK/lib\libssl.a(ssl_bigint.o)
bi_str_import                                     c:/Espressif/ESP8266_SDK/lib\libssl.a(ssl_bigint.o)
bi_subtract                                       c:/Espressif/ESP8266_SDK/lib\libssl.a(ssl_bigint.o)
bi_terminate                                      c:/Espressif/ESP8266_SDK/lib\libssl.a(ssl_bigint.o)
                                                  c:/Espressif/ESP8266_SDK/lib\libssl.a(ssl_rsa.o)
bit_popcount                                      c:/Espressif/ESP8266_SDK/lib\libmain.a(eagle_lib.o)
                                                  c:/Espressif/ESP8266_SDK/lib\libpp.a(trc.o)
                                                  c:/Espressif/ESP8266_SDK/lib\libpp.a(if_hwctrl.o)
buffed_eb_arr                                     c:/Espressif/ESP8266_SDK/lib\libpp.a(pp.o)
cal_rf_ana_gain                                   c:/Espressif/ESP8266_SDK/lib\libphy.a(phy_chip_v6_cal.o)
                                                  c:/Espressif/ESP8266_SDK/lib\libphy.a(phy_chip_v6.o)
call_user_start                                   c:/Espressif/ESP8266_SDK/lib\libmain.a(vector.o)
call_user_start_local                             c:/Espressif/ESP8266_SDK/lib\libmain.a(app_main.o)
                                                  c:/Espressif/ESP8266_SDK/lib\libmain.a(vector.o)
cannel_scan_connect_state                         c:/Espressif/ESP8266_SDK/lib\libnet80211.a(ieee80211_scan.o)
ccmp                                              c:/Espressif/ESP8266_SDK/lib\libnet80211.a(ieee80211_crypto_ccmp.o)
                                                  c:/Espressif/ESP8266_SDK/lib\libwpa.a(wpa_main.o)
                                                  c:/Espressif/ESP8266_SDK/lib\libwpa.a(wpa_auth.o)
                                                  c:/Espressif/ESP8266_SDK/lib\libnet80211.a(ieee80211_action_vendor.o)
                                                  c:/Espressif/ESP8266_SDK/lib\libnet80211.a(ieee80211_action.o)
                                                  c:/Espressif/ESP8266_SDK/lib\libnet80211.a(ieee80211_input.o)
change_bbpll160                                   c:/Espressif/ESP8266_SDK/lib\libphy.a(phy_chip_v6.o)
                                                  c:/Espressif/ESP8266_SDK/lib\libphy.a(phy_sleep.o)
change_bbpll160_sleep                             c:/Espressif/ESP8266_SDK/lib\libphy.a(phy_chip_v6.o)
check_data_flag                                   c:/Espressif/ESP8266_SDK/lib\libphy.a(phy_chip_v6_ana.o)
check_data_func                                   c:/Espressif/ESP8266_SDK/lib\libphy.a(phy_chip_v6.o)
check_memleak_debug_enable                        c:/Espressif/ESP8266_SDK/lib\libmain.a(mem_manager.o)
check_result                                      c:/Espressif/ESP8266_SDK/lib\libphy.a(phy_chip_v6.o)
                                                  c:/Espressif/ESP8266_SDK/lib\libphy.a(phy_chip_v6_cal.o)
check_timeouts_timer                              c:/Espressif/ESP8266_SDK/lib\libmain.a(app_main.o)
                                                  c:/Espressif/ESP8266_SDK/lib\libpp.a(pm_for_bcn_only_mode.o)
                                                  c:/Espressif/ESP8266_SDK/lib\libpp.a(pm.o)
check_tx_pwr_cal                                  c:/Espressif/ESP8266_SDK/lib\libphy.a(phy_chip_v6.o)
chg_lslp_mem_opt_8266                             c:/Espressif/ESP8266_SDK/lib\libphy.a(phy_sleep.o)
chip6_phy_init_ctrl                               c:/Espressif/ESP8266_SDK/lib\libphy.a(phy_chip_v6.o)
                                                  c:/Espressif/ESP8266_SDK/lib\libpp.a(pp.o)
                                                  c:/Espressif/ESP8266_SDK/lib\libphy.a(phy_sleep.o)
                                                  c:/Espressif/ESP8266_SDK/lib\libphy.a(phy_chip_v6_cal.o)
                                                  c:/Espressif/ESP8266_SDK/lib\libphy.a(phy_chip_v6_ana.o)
chip6_sleep_params                                c:/Espressif/ESP8266_SDK/lib\libphy.a(phy_chip_v6.o)
                                                  c:/Espressif/ESP8266_SDK/lib\libphy.a(phy_sleep.o)
                                                  c:/Espressif/ESP8266_SDK/lib\libphy.a(phy_chip_v6_cal.o)
                                                  c:/Espressif/ESP8266_SDK/lib\libphy.a(phy_chip_v6_ana.o)
chip_60_set_channel                               c:/Espressif/ESP8266_SDK/lib\libphy.a(phy_chip_v6_ana.o)
                                                  c:/Espressif/ESP8266_SDK/lib\libphy.a(phy_chip_v6.o)
chip_v6_get_sense                                 c:/Espressif/ESP8266_SDK/lib\libphy.a(phy_chip_v6_unused.o)
chip_v6_initialize_bb                             c:/Espressif/ESP8266_SDK/lib\libphy.a(phy_chip_v6.o)
chip_v6_rf_init                                   c:/Espressif/ESP8266_SDK/lib\libphy.a(phy_chip_v6_ana.o)
                                                  c:/Espressif/ESP8266_SDK/lib\libphy.a(phy_chip_v6.o)
chip_v6_rxmax_ext                                 c:/Espressif/ESP8266_SDK/lib\libphy.a(phy_chip_v6.o)
                                                  c:/Espressif/ESP8266_SDK/lib\libnet80211.a(ieee80211_sta.o)
chip_v6_rxmax_ext_ana                             c:/Espressif/ESP8266_SDK/lib\libphy.a(phy_chip_v6_ana.o)
                                                  c:/Espressif/ESP8266_SDK/lib\libphy.a(phy_chip_v6.o)
chip_v6_rxmax_ext_dig                             c:/Espressif/ESP8266_SDK/lib\libphy.a(phy_chip_v6.o)
chip_v6_set_chan                                  c:/Espressif/ESP8266_SDK/lib\libphy.a(phy_chip_v6_ana.o)
                                                  c:/Espressif/ESP8266_SDK/lib\libphy.a(phy_chip_v6.o)
chip_v6_set_chan_misc                             c:/Espressif/ESP8266_SDK/lib\libphy.a(phy_chip_v6.o)
                                                  c:/Espressif/ESP8266_SDK/lib\libphy.a(phy_chip_v6_ana.o)
chip_v6_set_chan_offset                           c:/Espressif/ESP8266_SDK/lib\libphy.a(phy_chip_v6_ana.o)
                                                  c:/Espressif/ESP8266_SDK/lib\libnet80211.a(ieee80211_scan.o)
                                                  c:/Espressif/ESP8266_SDK/lib\libnet80211.a(ieee80211_hostap.o)
                                                  c:/Espressif/ESP8266_SDK/lib\libpp.a(pp.o)
                                                  c:/Espressif/ESP8266_SDK/lib\libmain.a(app_main.o)
chip_v6_set_chan_rx_cmp                           c:/Espressif/ESP8266_SDK/lib\libphy.a(phy_chip_v6.o)
chip_v6_set_chan_wakeup                           c:/Espressif/ESP8266_SDK/lib\libphy.a(phy_chip_v6_ana.o)
chip_v6_set_chanfreq                              c:/Espressif/ESP8266_SDK/lib\libphy.a(phy_chip_v6.o)
chip_v6_set_sense                                 c:/Espressif/ESP8266_SDK/lib\libphy.a(phy_chip_v6_unused.o)
                                                  c:/Espressif/ESP8266_SDK/lib\libphy.a(phy_chip_v6.o)
chip_v6_unset_chanfreq                            c:/Espressif/ESP8266_SDK/lib\libphy.a(phy_chip_v6_unused.o)
                                                  c:/Espressif/ESP8266_SDK/lib\libphy.a(phy_chip_v6.o)
chip_version                                      c:/Espressif/ESP8266_SDK/lib\libphy.a(phy_sleep.o)
chm_acquire_lock                                  c:/Espressif/ESP8266_SDK/lib\libnet80211.a(wl_chm.o)
                                                  c:/Espressif/ESP8266_SDK/lib\libnet80211.a(wl_cnx.o)
                                                  c:/Espressif/ESP8266_SDK/lib\libnet80211.a(ieee80211_scan.o)
chm_cancel_op                                     c:/Espressif/ESP8266_SDK/lib\libnet80211.a(wl_chm.o)
                                                  c:/Espressif/ESP8266_SDK/lib\libnet80211.a(ieee80211_scan.o)
chm_check_same_channel                            c:/Espressif/ESP8266_SDK/lib\libnet80211.a(wl_chm.o)
                                                  c:/Espressif/ESP8266_SDK/lib\libnet80211.a(ieee80211_power.o)
                                                  c:/Espressif/ESP8266_SDK/lib\libnet80211.a(ieee80211_output.o)
                                                  c:/Espressif/ESP8266_SDK/lib\libnet80211.a(ieee80211_hostap.o)
chm_end_op                                        c:/Espressif/ESP8266_SDK/lib\libnet80211.a(wl_chm.o)
chm_freq2index                                    c:/Espressif/ESP8266_SDK/lib\libnet80211.a(wl_chm.o)
chm_get_current_channel                           c:/Espressif/ESP8266_SDK/lib\libnet80211.a(wl_chm.o)
                                                  c:/Espressif/ESP8266_SDK/lib\libnet80211.a(wl_cnx.o)
                                                  c:/Espressif/ESP8266_SDK/lib\libnet80211.a(ieee80211_scan.o)
                                                  c:/Espressif/ESP8266_SDK/lib\libnet80211.a(ieee80211_hostap.o)
                                                  c:/Espressif/ESP8266_SDK/lib\libpp.a(wdev.o)
                                                  c:/Espressif/ESP8266_SDK/lib\libpp.a(pp.o)
                                                  c:/Espressif/ESP8266_SDK/lib\libpp.a(pm.o)
                                                  c:/Espressif/ESP8266_SDK/lib\libmain.a(user_interface.o)
chm_init                                          c:/Espressif/ESP8266_SDK/lib\libnet80211.a(wl_chm.o)
                                                  c:/Espressif/ESP8266_SDK/lib\libnet80211.a(ieee80211.o)
chm_release_lock                                  c:/Espressif/ESP8266_SDK/lib\libnet80211.a(wl_chm.o)
                                                  c:/Espressif/ESP8266_SDK/lib\libnet80211.a(wl_cnx.o)
                                                  c:/Espressif/ESP8266_SDK/lib\libnet80211.a(ieee80211_scan.o)
chm_return_home_channel                           c:/Espressif/ESP8266_SDK/lib\libnet80211.a(wl_chm.o)
                                                  c:/Espressif/ESP8266_SDK/lib\libnet80211.a(wl_cnx.o)
                                                  c:/Espressif/ESP8266_SDK/lib\libnet80211.a(ieee80211_scan.o)
chm_set_current_channel                           c:/Espressif/ESP8266_SDK/lib\libnet80211.a(wl_chm.o)
                                                  c:/Espressif/ESP8266_SDK/lib\libnet80211.a(ieee80211_hostap.o)
                                                  c:/Espressif/ESP8266_SDK/lib\libmain.a(user_interface.o)
chm_start_op                                      c:/Espressif/ESP8266_SDK/lib\libnet80211.a(wl_chm.o)
                                                  c:/Espressif/ESP8266_SDK/lib\libnet80211.a(wl_cnx.o)
                                                  c:/Espressif/ESP8266_SDK/lib\libnet80211.a(ieee80211_scan.o)
clockgate_watchdog                                c:/Espressif/ESP8266_SDK/lib\libphy.a(phy_sleep.o)
                                                  c:/Espressif/ESP8266_SDK/lib\libpp.a(pm_for_bcn_only_mode.o)
                                                  c:/Espressif/ESP8266_SDK/lib\libpp.a(pm.o)
                                                  c:/Espressif/ESP8266_SDK/lib\libmain.a(user_interface.o)
cnx_add_rc                                        c:/Espressif/ESP8266_SDK/lib\libnet80211.a(wl_cnx.o)
                                                  c:/Espressif/ESP8266_SDK/lib\libnet80211.a(ieee80211_scan.o)
cnx_assoc_timeout                                 c:/Espressif/ESP8266_SDK/lib\libnet80211.a(wl_cnx.o)
                                                  c:/Espressif/ESP8266_SDK/lib\libnet80211.a(ieee80211_sta.o)
cnx_attach                                        c:/Espressif/ESP8266_SDK/lib\libnet80211.a(wl_cnx.o)
                                                  c:/Espressif/ESP8266_SDK/lib\libmain.a(app_main.o)
cnx_auth_timeout                                  c:/Espressif/ESP8266_SDK/lib\libnet80211.a(wl_cnx.o)
                                                  c:/Espressif/ESP8266_SDK/lib\libnet80211.a(ieee80211_proto.o)
cnx_bss_alloc                                     c:/Espressif/ESP8266_SDK/lib\libnet80211.a(wl_cnx.o)
                                                  c:/Espressif/ESP8266_SDK/lib\libnet80211.a(ieee80211_scan.o)
cnx_connect_timeout                               c:/Espressif/ESP8266_SDK/lib\libnet80211.a(wl_cnx.o)
                                                  c:/Espressif/ESP8266_SDK/lib\libnet80211.a(ieee80211_sta.o)
                                                  c:/Espressif/ESP8266_SDK/lib\libnet80211.a(ieee80211_scan.o)
cnx_csa_fn                                        c:/Espressif/ESP8266_SDK/lib\libnet80211.a(wl_cnx.o)
                                                  c:/Espressif/ESP8266_SDK/lib\libnet80211.a(ieee80211_sta.o)
cnx_handshake_timeout                             c:/Espressif/ESP8266_SDK/lib\libnet80211.a(wl_cnx.o)
cnx_node_alloc                                    c:/Espressif/ESP8266_SDK/lib\libnet80211.a(wl_cnx.o)
                                                  c:/Espressif/ESP8266_SDK/lib\libnet80211.a(ieee80211_hostap.o)
cnx_node_join                                     c:/Espressif/ESP8266_SDK/lib\libnet80211.a(wl_cnx.o)
                                                  c:/Espressif/ESP8266_SDK/lib\libnet80211.a(ieee80211_hostap.o)
cnx_node_leave                                    c:/Espressif/ESP8266_SDK/lib\libnet80211.a(wl_cnx.o)
                                                  c:/Espressif/ESP8266_SDK/lib\libnet80211.a(ieee80211_hostap.o)
                                                  c:/Espressif/ESP8266_SDK/lib\libmain.a(user_interface.o)
cnx_node_remove                                   c:/Espressif/ESP8266_SDK/lib\libnet80211.a(wl_cnx.o)
cnx_node_search                                   c:/Espressif/ESP8266_SDK/lib\libnet80211.a(wl_cnx.o)
                                                  c:/Espressif/ESP8266_SDK/lib\libwpa.a(wpa_auth.o)
                                                  c:/Espressif/ESP8266_SDK/lib\libnet80211.a(ieee80211_output.o)
                                                  c:/Espressif/ESP8266_SDK/lib\libnet80211.a(ieee80211_hostap.o)
cnx_rc_search                                     c:/Espressif/ESP8266_SDK/lib\libnet80211.a(wl_cnx.o)
                                                  c:/Espressif/ESP8266_SDK/lib\libnet80211.a(ieee80211_scan.o)
cnx_rc_update_age                                 c:/Espressif/ESP8266_SDK/lib\libnet80211.a(wl_cnx.o)
                                                  c:/Espressif/ESP8266_SDK/lib\libnet80211.a(ieee80211_scan.o)
cnx_rc_update_rssi                                c:/Espressif/ESP8266_SDK/lib\libnet80211.a(wl_cnx.o)
                                                  c:/Espressif/ESP8266_SDK/lib\libnet80211.a(ieee80211_scan.o)
cnx_rc_update_state_metric                        c:/Espressif/ESP8266_SDK/lib\libnet80211.a(wl_cnx.o)
                                                  c:/Espressif/ESP8266_SDK/lib\libnet80211.a(ieee80211_scan.o)
cnx_remove_all_rc                                 c:/Espressif/ESP8266_SDK/lib\libnet80211.a(wl_cnx.o)
                                                  c:/Espressif/ESP8266_SDK/lib\libnet80211.a(ieee80211_sta.o)
cnx_remove_rc                                     c:/Espressif/ESP8266_SDK/lib\libnet80211.a(wl_cnx.o)
                                                  c:/Espressif/ESP8266_SDK/lib\libnet80211.a(ieee80211_scan.o)
cnx_sta_associated                                c:/Espressif/ESP8266_SDK/lib\libnet80211.a(wl_cnx.o)
                                                  c:/Espressif/ESP8266_SDK/lib\libnet80211.a(ieee80211_sta.o)
cnx_sta_connect_cmd                               c:/Espressif/ESP8266_SDK/lib\libnet80211.a(wl_cnx.o)
                                                  c:/Espressif/ESP8266_SDK/lib\libmain.a(user_interface.o)
cnx_sta_connect_led_timer_cb                      c:/Espressif/ESP8266_SDK/lib\libnet80211.a(wl_cnx.o)
cnx_sta_leave                                     c:/Espressif/ESP8266_SDK/lib\libnet80211.a(wl_cnx.o)
                                                  c:/Espressif/ESP8266_SDK/lib\libnet80211.a(ieee80211_sta.o)
cnx_sta_scan_cmd                                  c:/Espressif/ESP8266_SDK/lib\libnet80211.a(wl_cnx.o)
                                                  c:/Espressif/ESP8266_SDK/lib\libmain.a(user_interface.o)
cnx_start_handoff_cb                              c:/Espressif/ESP8266_SDK/lib\libnet80211.a(wl_cnx.o)
cnx_update_bss                                    c:/Espressif/ESP8266_SDK/lib\libnet80211.a(wl_cnx.o)
                                                  c:/Espressif/ESP8266_SDK/lib\libnet80211.a(ieee80211_scan.o)
cnx_update_bss_more                               c:/Espressif/ESP8266_SDK/lib\libnet80211.a(wl_cnx.o)
                                                  c:/Espressif/ESP8266_SDK/lib\libnet80211.a(ieee80211_scan.o)
configTime                                        c:/Espressif/ESP8266_SDK/lib\libmain.a(time.o)
connect_scan_flag                                 c:/Espressif/ESP8266_SDK/lib\libnet80211.a(ieee80211_scan.o)
correct_rf_ana_gain                               c:/Espressif/ESP8266_SDK/lib\libphy.a(phy_chip_v6_cal.o)
cpu_overclock                                     c:/Espressif/ESP8266_SDK/lib\libmain.a(user_interface.o)
current_header                                    c:/Espressif/ESP8266_SDK/lib\liblwip.a(ip.o)
current_iphdr_dest                                c:/Espressif/ESP8266_SDK/lib\liblwip.a(ip.o)
                                                  c:/Espressif/ESP8266_SDK/lib\liblwip.a(icmp.o)
                                                  c:/Espressif/ESP8266_SDK/lib\liblwip.a(udp.o)
                                                  c:/Espressif/ESP8266_SDK/lib\liblwip.a(tcp_in.o)
                                                  c:/Espressif/ESP8266_SDK/lib\liblwip.a(raw.o)
current_iphdr_src                                 c:/Espressif/ESP8266_SDK/lib\liblwip.a(ip.o)
                                                  c:/Espressif/ESP8266_SDK/lib\liblwip.a(icmp.o)
                                                  c:/Espressif/ESP8266_SDK/lib\liblwip.a(udp.o)
                                                  c:/Espressif/ESP8266_SDK/lib\liblwip.a(tcp_in.o)
                                                  c:/Espressif/ESP8266_SDK/lib\liblwip.a(raw.o)
current_netif                                     c:/Espressif/ESP8266_SDK/lib\liblwip.a(ip.o)
dbg_stop_hw_wdt                                   c:/Espressif/ESP8266_SDK/lib\libpp.a(pp.o)
dbg_stop_sw_wdt                                   c:/Espressif/ESP8266_SDK/lib\libpp.a(pp.o)
dbg_timer_flag                                    c:/Espressif/ESP8266_SDK/lib\libmain.a(ets_timer.o)
dcoindex2txbbgain                                 c:/Espressif/ESP8266_SDK/lib\libphy.a(phy_chip_v6_cal.o)
debug_timer                                       c:/Espressif/ESP8266_SDK/lib\libmain.a(ets_timer.o)
debug_timerfn                                     c:/Espressif/ESP8266_SDK/lib\libmain.a(ets_timer.o)
deep_sleep_flag                                   c:/Espressif/ESP8266_SDK/lib\libmain.a(user_interface.o)
deep_sleep_set_option                             c:/Espressif/ESP8266_SDK/lib\libphy.a(phy_chip_v6.o)
                                                  c:/Espressif/ESP8266_SDK/lib\libmain.a(user_interface.o)
def_certificate                                   c:/Espressif/ESP8266_SDK/lib\libssl.a(espconn_secure.o)
                                                  c:/Espressif/ESP8266_SDK/lib\libssl.a(ssl_loader.o)
def_certificate_len                               c:/Espressif/ESP8266_SDK/lib\libssl.a(espconn_secure.o)
                                                  c:/Espressif/ESP8266_SDK/lib\libssl.a(ssl_loader.o)
def_private_key                                   c:/Espressif/ESP8266_SDK/lib\libssl.a(espconn_secure.o)
                                                  c:/Espressif/ESP8266_SDK/lib\libssl.a(ssl_loader.o)
def_private_key_len                               c:/Espressif/ESP8266_SDK/lib\libssl.a(espconn_secure.o)
                                                  c:/Espressif/ESP8266_SDK/lib\libssl.a(ssl_loader.o)
default_hostname                                  c:/Espressif/ESP8266_SDK/lib\libmain.a(eagle_lwip_if.o)
                                                  c:/Espressif/ESP8266_SDK/lib\libmain.a(user_interface.o)
default_interface                                 c:/Espressif/ESP8266_SDK/lib\libmain.a(user_interface.o)
                                                  c:/Espressif/ESP8266_SDK/lib\liblwip.a(espconn_udp.o)
default_ssid                                      c:/Espressif/ESP8266_SDK/lib\libmain.a(user_interface.o)
dhcp_arp_reply                                    c:/Espressif/ESP8266_SDK/lib\liblwip.a(dhcp.o)
                                                  c:/Espressif/ESP8266_SDK/lib\liblwip.a(etharp.o)
dhcp_bind_check                                   c:/Espressif/ESP8266_SDK/lib\libwpa.a(wpa_main.o)
dhcp_cleanup                                      c:/Espressif/ESP8266_SDK/lib\liblwip.a(dhcp.o)
                                                  c:/Espressif/ESP8266_SDK/lib\libnet80211.a(wl_cnx.o)
                                                  c:/Espressif/ESP8266_SDK/lib\libmain.a(user_interface.o)
dhcp_coarse_tmr                                   c:/Espressif/ESP8266_SDK/lib\liblwip.a(dhcp.o)
                                                  c:/Espressif/ESP8266_SDK/lib\liblwip.a(timers.o)
dhcp_fine_tmr                                     c:/Espressif/ESP8266_SDK/lib\liblwip.a(dhcp.o)
                                                  c:/Espressif/ESP8266_SDK/lib\liblwip.a(timers.o)
dhcp_inform                                       c:/Espressif/ESP8266_SDK/lib\liblwip.a(dhcp.o)
dhcp_network_changed                              c:/Espressif/ESP8266_SDK/lib\liblwip.a(dhcp.o)
                                                  c:/Espressif/ESP8266_SDK/lib\liblwip.a(netif.o)
dhcp_release                                      c:/Espressif/ESP8266_SDK/lib\liblwip.a(dhcp.o)
                                                  c:/Espressif/ESP8266_SDK/lib\libnet80211.a(wl_cnx.o)
dhcp_renew                                        c:/Espressif/ESP8266_SDK/lib\liblwip.a(dhcp.o)
dhcp_rx_options_given                             c:/Espressif/ESP8266_SDK/lib\liblwip.a(dhcp.o)
dhcp_rx_options_val                               c:/Espressif/ESP8266_SDK/lib\liblwip.a(dhcp.o)
dhcp_set_struct                                   c:/Espressif/ESP8266_SDK/lib\liblwip.a(dhcp.o)
dhcp_start                                        c:/Espressif/ESP8266_SDK/lib\liblwip.a(dhcp.o)
                                                  c:/Espressif/ESP8266_SDK/lib\libwpa.a(wpa_main.o)
                                                  c:/Espressif/ESP8266_SDK/lib\libmain.a(user_interface.o)
dhcp_stop                                         c:/Espressif/ESP8266_SDK/lib\liblwip.a(dhcp.o)
                                                  c:/Espressif/ESP8266_SDK/lib\libnet80211.a(wl_cnx.o)
                                                  c:/Espressif/ESP8266_SDK/lib\libmain.a(user_interface.o)
dhcpc_flag                                        c:/Espressif/ESP8266_SDK/lib\libmain.a(user_interface.o)
                                                  c:/Espressif/ESP8266_SDK/lib\libwpa.a(wpa_main.o)
dhcps_coarse_tmr                                  c:/Espressif/ESP8266_SDK/lib\liblwip.a(dhcpserver.o)
                                                  c:/Espressif/ESP8266_SDK/lib\liblwip.a(timers.o)
dhcps_flag                                        c:/Espressif/ESP8266_SDK/lib\libmain.a(user_interface.o)
                                                  c:/Espressif/ESP8266_SDK/lib\libmain.a(eagle_lwip_if.o)
dhcps_lease_time                                  c:/Espressif/ESP8266_SDK/lib\liblwip.a(dhcpserver.o)
dhcps_start                                       c:/Espressif/ESP8266_SDK/lib\liblwip.a(dhcpserver.o)
                                                  c:/Espressif/ESP8266_SDK/lib\libmain.a(eagle_lwip_if.o)
                                                  c:/Espressif/ESP8266_SDK/lib\libmain.a(user_interface.o)
dhcps_stop                                        c:/Espressif/ESP8266_SDK/lib\liblwip.a(dhcpserver.o)
                                                  c:/Espressif/ESP8266_SDK/lib\libmain.a(eagle_lwip_if.o)
                                                  c:/Espressif/ESP8266_SDK/lib\libmain.a(user_interface.o)
disposable_free                                   c:/Espressif/ESP8266_SDK/lib\libssl.a(ssl_tls1.o)
                                                  c:/Espressif/ESP8266_SDK/lib\libssl.a(ssl_tls1_svr.o)
                                                  c:/Espressif/ESP8266_SDK/lib\libssl.a(ssl_tls1_clnt.o)
disposable_new                                    c:/Espressif/ESP8266_SDK/lib\libssl.a(ssl_tls1.o)
                                                  c:/Espressif/ESP8266_SDK/lib\libssl.a(ssl_tls1_clnt.o)
divide                                            c:/Espressif/ESP8266_SDK/lib\libmain.a(eagle_lib.o)
dns_gethostbyname                                 c:/Espressif/ESP8266_SDK/lib\liblwip.a(dns.o)
                                                  c:/Espressif/ESP8266_SDK/lib\liblwip.a(sntp.o)
                                                  c:/Espressif/ESP8266_SDK/lib\liblwip.a(espconn.o)
dns_getserver                                     c:/Espressif/ESP8266_SDK/lib\liblwip.a(dns.o)
dns_init                                          c:/Espressif/ESP8266_SDK/lib\liblwip.a(dns.o)
                                                  c:/Espressif/ESP8266_SDK/lib\liblwip.a(init.o)
dns_setserver                                     c:/Espressif/ESP8266_SDK/lib\liblwip.a(dns.o)
                                                  c:/Espressif/ESP8266_SDK/lib\liblwip.a(espconn.o)
                                                  c:/Espressif/ESP8266_SDK/lib\liblwip.a(dhcp.o)
dns_tmr                                           c:/Espressif/ESP8266_SDK/lib\liblwip.a(dns.o)
                                                  c:/Espressif/ESP8266_SDK/lib\liblwip.a(timers.o)
do_client_connect                                 c:/Espressif/ESP8266_SDK/lib\libssl.a(ssl_tls1_clnt.o)
                                                  c:/Espressif/ESP8266_SDK/lib\libssl.a(ssl_tls1.o)
do_clnt_handshake                                 c:/Espressif/ESP8266_SDK/lib\libssl.a(ssl_tls1_clnt.o)
                                                  c:/Espressif/ESP8266_SDK/lib\libssl.a(ssl_tls1.o)
do_global_ctors()                                 build/app_app.a(cpp_req.o)
                                                  build/app_app.a(user_main.o)
do_noisefloor                                     c:/Espressif/ESP8266_SDK/lib\libphy.a(phy_chip_v6.o)
do_noisefloor_lsleep_v50                          c:/Espressif/ESP8266_SDK/lib\libphy.a(phy_chip_v6.o)
do_pwctrl_flag                                    c:/Espressif/ESP8266_SDK/lib\libphy.a(phy_chip_v6.o)
                                                  c:/Espressif/ESP8266_SDK/lib\libphy.a(phy_sleep.o)
do_svr_handshake                                  c:/Espressif/ESP8266_SDK/lib\libssl.a(ssl_tls1_svr.o)
                                                  c:/Espressif/ESP8266_SDK/lib\libssl.a(ssl_tls1.o)
done_cb                                           c:/Espressif/ESP8266_SDK/lib\libmain.a(user_interface.o)
                                                  c:/Espressif/ESP8266_SDK/lib\libmain.a(app_main.o)
dpd_bypass_original                               c:/Espressif/ESP8266_SDK/lib\libphy.a(phy_chip_v6.o)
dpd_mem_write                                     c:/Espressif/ESP8266_SDK/lib\libphy.a(phy_chip_v6_cal.o)
dpd_scale_set                                     c:/Espressif/ESP8266_SDK/lib\libphy.a(phy_chip_v6_cal.o)
                                                  c:/Espressif/ESP8266_SDK/lib\libphy.a(phy_chip_v6.o)
dup_binstr                                        c:/Espressif/ESP8266_SDK/lib\libwpa.a(common.o)
eagle_auth_done                                   c:/Espressif/ESP8266_SDK/lib\libwpa.a(wpa_main.o)
                                                  c:/Espressif/ESP8266_SDK/lib\libnet80211.a(ieee80211_sta.o)
eagle_lwip_getif                                  c:/Espressif/ESP8266_SDK/lib\libmain.a(eagle_lwip_if.o)
                                                  c:/Espressif/ESP8266_SDK/lib\liblwip.a(ip.o)
                                                  c:/Espressif/ESP8266_SDK/lib\liblwip.a(espconn_udp.o)
                                                  c:/Espressif/ESP8266_SDK/lib\liblwip.a(dhcpserver.o)
                                                  c:/Espressif/ESP8266_SDK/lib\libmain.a(user_interface.o)
eagle_lwip_if_alloc                               c:/Espressif/ESP8266_SDK/lib\libmain.a(eagle_lwip_if.o)
                                                  c:/Espressif/ESP8266_SDK/lib\libnet80211.a(ieee80211_sta.o)
                                                  c:/Espressif/ESP8266_SDK/lib\libnet80211.a(ieee80211_hostap.o)
eagle_lwip_if_free                                c:/Espressif/ESP8266_SDK/lib\libmain.a(eagle_lwip_if.o)
                                                  c:/Espressif/ESP8266_SDK/lib\libnet80211.a(ieee80211_hostap.o)
                                                  c:/Espressif/ESP8266_SDK/lib\libmain.a(user_interface.o)
eapol_txcb                                        c:/Espressif/ESP8266_SDK/lib\libwpa.a(wpa.o)
                                                  c:/Espressif/ESP8266_SDK/lib\libwpa.a(wpa_main.o)
eloop_cancel_timeout                              c:/Espressif/ESP8266_SDK/lib\libwpa.a(wpa_debug.o)
                                                  c:/Espressif/ESP8266_SDK/lib\libwpa.a(wpa.o)
                                                  c:/Espressif/ESP8266_SDK/lib\libwpa.a(wpa_auth.o)
eloop_register_timeout                            c:/Espressif/ESP8266_SDK/lib\libwpa.a(wpa_debug.o)
                                                  c:/Espressif/ESP8266_SDK/lib\libwpa.a(wpa.o)
                                                  c:/Espressif/ESP8266_SDK/lib\libwpa.a(wpa_auth.o)
esf_buf_alloc                                     c:/Espressif/ESP8266_SDK/lib\libpp.a(esf_buf.o)
                                                  c:/Espressif/ESP8266_SDK/lib\libnet80211.a(ieee80211_output.o)
                                                  c:/Espressif/ESP8266_SDK/lib\libnet80211.a(ieee80211_ets.o)
esf_buf_recycle                                   c:/Espressif/ESP8266_SDK/lib\libpp.a(esf_buf.o)
                                                  c:/Espressif/ESP8266_SDK/lib\libnet80211.a(ieee80211_power.o)
                                                  c:/Espressif/ESP8266_SDK/lib\libnet80211.a(ieee80211_output.o)
                                                  c:/Espressif/ESP8266_SDK/lib\libnet80211.a(ieee80211_hostap.o)
                                                  c:/Espressif/ESP8266_SDK/lib\libpp.a(pp.o)
esf_buf_setup                                     c:/Espressif/ESP8266_SDK/lib\libpp.a(esf_buf.o)
                                                  c:/Espressif/ESP8266_SDK/lib\libpp.a(pp.o)
esf_rx_buf_alloc                                  c:/Espressif/ESP8266_SDK/lib\libpp.a(esf_buf.o)
                                                  c:/Espressif/ESP8266_SDK/lib\libpp.a(wdev.o)
espconn_TaskQueue                                 c:/Espressif/ESP8266_SDK/lib\liblwip.a(espconn_tcp.o)
espconn_abort                                     c:/Espressif/ESP8266_SDK/lib\liblwip.a(espconn.o)
espconn_accept                                    c:/Espressif/ESP8266_SDK/lib\liblwip.a(espconn.o)
espconn_clear_opt                                 c:/Espressif/ESP8266_SDK/lib\liblwip.a(espconn.o)
espconn_connect                                   c:/Espressif/ESP8266_SDK/lib\liblwip.a(espconn.o)
espconn_copy_partial                              c:/Espressif/ESP8266_SDK/lib\liblwip.a(espconn.o)
                                                  c:/Espressif/ESP8266_SDK/lib\liblwip.a(espconn_tcp.o)
espconn_create                                    c:/Espressif/ESP8266_SDK/lib\liblwip.a(espconn.o)
                                                  build/app_app.a(wifi_connector.o)
espconn_delete                                    c:/Espressif/ESP8266_SDK/lib\liblwip.a(espconn.o)
                                                  build/app_app.a(wifi_connector.o)
espconn_disconnect                                c:/Espressif/ESP8266_SDK/lib\liblwip.a(espconn.o)
                                                  build/app_app.a(wifi_connector.o)
espconn_dns_setserver                             c:/Espressif/ESP8266_SDK/lib\liblwip.a(espconn.o)
espconn_find_connection                           c:/Espressif/ESP8266_SDK/lib\liblwip.a(espconn.o)
                                                  c:/Espressif/ESP8266_SDK/lib\libssl.a(espconn_secure.o)
                                                  c:/Espressif/ESP8266_SDK/lib\liblwip.a(espconn_tcp.o)
espconn_find_current_pcb                          c:/Espressif/ESP8266_SDK/lib\liblwip.a(espconn_tcp.o)
espconn_get_connection_info                       c:/Espressif/ESP8266_SDK/lib\liblwip.a(espconn.o)
                                                  c:/Espressif/ESP8266_SDK/lib\libssl.a(espconn_ssl.o)
                                                  c:/Espressif/ESP8266_SDK/lib\liblwip.a(espconn_tcp.o)
                                                  build/app_app.a(wifi_connector.o)
espconn_get_keepalive                             c:/Espressif/ESP8266_SDK/lib\liblwip.a(espconn.o)
espconn_get_packet_info                           c:/Espressif/ESP8266_SDK/lib\liblwip.a(espconn.o)
espconn_gethostbyname                             c:/Espressif/ESP8266_SDK/lib\liblwip.a(espconn.o)
espconn_igmp_join                                 c:/Espressif/ESP8266_SDK/lib\liblwip.a(espconn_udp.o)
espconn_igmp_leave                                c:/Espressif/ESP8266_SDK/lib\liblwip.a(espconn_udp.o)
espconn_init                                      c:/Espressif/ESP8266_SDK/lib\liblwip.a(espconn_tcp.o)
                                                  c:/Espressif/ESP8266_SDK/lib\libmain.a(app_main.o)
espconn_kill_oldest_pcb                           c:/Espressif/ESP8266_SDK/lib\liblwip.a(espconn_tcp.o)
                                                  c:/Espressif/ESP8266_SDK/lib\libssl.a(espconn_ssl.o)
espconn_kill_pcb                                  c:/Espressif/ESP8266_SDK/lib\liblwip.a(espconn_tcp.o)
                                                  c:/Espressif/ESP8266_SDK/lib\libssl.a(espconn_ssl.o)
espconn_list_creat                                c:/Espressif/ESP8266_SDK/lib\liblwip.a(espconn.o)
                                                  c:/Espressif/ESP8266_SDK/lib\libssl.a(espconn_ssl.o)
                                                  c:/Espressif/ESP8266_SDK/lib\liblwip.a(espconn_udp.o)
                                                  c:/Espressif/ESP8266_SDK/lib\liblwip.a(espconn_tcp.o)
espconn_list_delete                               c:/Espressif/ESP8266_SDK/lib\liblwip.a(espconn.o)
                                                  c:/Espressif/ESP8266_SDK/lib\libssl.a(espconn_ssl.o)
                                                  c:/Espressif/ESP8266_SDK/lib\liblwip.a(espconn_udp.o)
                                                  c:/Espressif/ESP8266_SDK/lib\liblwip.a(espconn_tcp.o)
espconn_lock_recv                                 c:/Espressif/ESP8266_SDK/lib\liblwip.a(espconn_tcp.o)
espconn_pbuf_create                               c:/Espressif/ESP8266_SDK/lib\liblwip.a(espconn.o)
espconn_pbuf_delete                               c:/Espressif/ESP8266_SDK/lib\liblwip.a(espconn.o)
                                                  c:/Espressif/ESP8266_SDK/lib\liblwip.a(espconn_tcp.o)
espconn_port                                      c:/Espressif/ESP8266_SDK/lib\liblwip.a(espconn.o)
                                                  build/app_app.a(wifi_connector.o)
espconn_recv                                      c:/Espressif/ESP8266_SDK/lib\liblwip.a(espconn.o)
espconn_recv_hold                                 c:/Espressif/ESP8266_SDK/lib\liblwip.a(espconn_tcp.o)
espconn_recv_unhold                               c:/Espressif/ESP8266_SDK/lib\liblwip.a(espconn_tcp.o)
                                                  c:/Espressif/ESP8266_SDK/lib\liblwip.a(espconn.o)
espconn_regist_connectcb                          c:/Espressif/ESP8266_SDK/lib\liblwip.a(espconn.o)
                                                  build/app_app.a(wifi_connector.o)
espconn_regist_disconcb                           c:/Espressif/ESP8266_SDK/lib\liblwip.a(espconn.o)
                                                  build/app_app.a(wifi_connector.o)
espconn_regist_reconcb                            c:/Espressif/ESP8266_SDK/lib\liblwip.a(espconn.o)
                                                  build/app_app.a(wifi_connector.o)
espconn_regist_recvcb                             c:/Espressif/ESP8266_SDK/lib\liblwip.a(espconn.o)
                                                  build/app_app.a(wifi_connector.o)
espconn_regist_sentcb                             c:/Espressif/ESP8266_SDK/lib\liblwip.a(espconn.o)
                                                  build/app_app.a(wifi_connector.o)
espconn_regist_time                               c:/Espressif/ESP8266_SDK/lib\liblwip.a(espconn.o)
espconn_regist_write_finish                       c:/Espressif/ESP8266_SDK/lib\liblwip.a(espconn.o)
espconn_secure_accept                             c:/Espressif/ESP8266_SDK/lib\libssl.a(espconn_secure.o)
espconn_secure_ca_disable                         c:/Espressif/ESP8266_SDK/lib\libssl.a(espconn_secure.o)
                                                  build/app_app.a(wifi_connector.o)
espconn_secure_ca_enable                          c:/Espressif/ESP8266_SDK/lib\libssl.a(espconn_secure.o)
espconn_secure_cert_req_disable                   c:/Espressif/ESP8266_SDK/lib\libssl.a(espconn_secure.o)
espconn_secure_cert_req_enable                    c:/Espressif/ESP8266_SDK/lib\libssl.a(espconn_secure.o)
espconn_secure_connect                            c:/Espressif/ESP8266_SDK/lib\libssl.a(espconn_secure.o)
                                                  build/app_app.a(wifi_connector.o)
espconn_secure_delete                             c:/Espressif/ESP8266_SDK/lib\libssl.a(espconn_secure.o)
espconn_secure_disconnect                         c:/Espressif/ESP8266_SDK/lib\libssl.a(espconn_secure.o)
espconn_secure_get_size                           c:/Espressif/ESP8266_SDK/lib\libssl.a(espconn_secure.o)
                                                  c:/Espressif/ESP8266_SDK/lib\libssl.a(espconn_ssl.o)
espconn_secure_send                               c:/Espressif/ESP8266_SDK/lib\libssl.a(espconn_secure.o)
                                                  build/app_app.a(wifi_connector.o)
espconn_secure_sent                               c:/Espressif/ESP8266_SDK/lib\libssl.a(espconn_secure.o)
espconn_secure_set_default_certificate            c:/Espressif/ESP8266_SDK/lib\libssl.a(espconn_secure.o)
espconn_secure_set_default_private_key            c:/Espressif/ESP8266_SDK/lib\libssl.a(espconn_secure.o)
espconn_secure_set_size                           c:/Espressif/ESP8266_SDK/lib\libssl.a(espconn_secure.o)
                                                  build/app_app.a(wifi_connector.o)
espconn_send                                      c:/Espressif/ESP8266_SDK/lib\liblwip.a(espconn.o)
espconn_sendto                                    c:/Espressif/ESP8266_SDK/lib\liblwip.a(espconn.o)
                                                  build/app_app.a(wifi_connector.o)
espconn_sent                                      c:/Espressif/ESP8266_SDK/lib\liblwip.a(espconn.o)
espconn_sent_packet                               c:/Espressif/ESP8266_SDK/lib\libssl.a(espconn_ssl.o)
espconn_set_keepalive                             c:/Espressif/ESP8266_SDK/lib\liblwip.a(espconn.o)
espconn_set_opt                                   c:/Espressif/ESP8266_SDK/lib\liblwip.a(espconn.o)
espconn_ssl_client                                c:/Espressif/ESP8266_SDK/lib\libssl.a(espconn_ssl.o)
                                                  c:/Espressif/ESP8266_SDK/lib\libssl.a(espconn_secure.o)
espconn_ssl_delete                                c:/Espressif/ESP8266_SDK/lib\libssl.a(espconn_ssl.o)
                                                  c:/Espressif/ESP8266_SDK/lib\libssl.a(espconn_secure.o)
espconn_ssl_disconnect                            c:/Espressif/ESP8266_SDK/lib\libssl.a(espconn_ssl.o)
                                                  c:/Espressif/ESP8266_SDK/lib\libssl.a(espconn_secure.o)
espconn_ssl_read                                  c:/Espressif/ESP8266_SDK/lib\libssl.a(espconn_ssl.o)
                                                  c:/Espressif/ESP8266_SDK/lib\libssl.a(ssl_tls1.o)
espconn_ssl_read_param_from_flash                 c:/Espressif/ESP8266_SDK/lib\libssl.a(espconn_ssl.o)
                                                  c:/Espressif/ESP8266_SDK/lib\libssl.a(ssl_crypto_misc.o)
espconn_ssl_sent                                  c:/Espressif/ESP8266_SDK/lib\libssl.a(espconn_ssl.o)
                                                  c:/Espressif/ESP8266_SDK/lib\libssl.a(espconn_secure.o)
espconn_ssl_server                                c:/Espressif/ESP8266_SDK/lib\libssl.a(espconn_ssl.o)
                                                  c:/Espressif/ESP8266_SDK/lib\libssl.a(espconn_secure.o)
espconn_tcp_client                                c:/Espressif/ESP8266_SDK/lib\liblwip.a(espconn_tcp.o)
                                                  c:/Espressif/ESP8266_SDK/lib\liblwip.a(espconn.o)
espconn_tcp_delete                                c:/Espressif/ESP8266_SDK/lib\liblwip.a(espconn_tcp.o)
                                                  c:/Espressif/ESP8266_SDK/lib\liblwip.a(espconn.o)
espconn_tcp_disconnect                            c:/Espressif/ESP8266_SDK/lib\liblwip.a(espconn_tcp.o)
                                                  c:/Espressif/ESP8266_SDK/lib\liblwip.a(espconn.o)
espconn_tcp_get_max_con                           c:/Espressif/ESP8266_SDK/lib\liblwip.a(espconn.o)
espconn_tcp_get_max_con_allow                     c:/Espressif/ESP8266_SDK/lib\liblwip.a(espconn.o)
                                                  c:/Espressif/ESP8266_SDK/lib\liblwip.a(espconn_tcp.o)
espconn_tcp_get_max_retran                        c:/Espressif/ESP8266_SDK/lib\liblwip.a(espconn.o)
espconn_tcp_get_max_syn                           c:/Espressif/ESP8266_SDK/lib\liblwip.a(espconn.o)
espconn_tcp_get_mss                               c:/Espressif/ESP8266_SDK/lib\liblwip.a(espconn.o)
espconn_tcp_get_wnd                               c:/Espressif/ESP8266_SDK/lib\liblwip.a(espconn.o)
espconn_tcp_memp_free                             c:/Espressif/ESP8266_SDK/lib\liblwip.a(espconn_tcp.o)
espconn_tcp_sent                                  c:/Espressif/ESP8266_SDK/lib\liblwip.a(espconn_tcp.o)
espconn_tcp_server                                c:/Espressif/ESP8266_SDK/lib\liblwip.a(espconn_tcp.o)
                                                  c:/Espressif/ESP8266_SDK/lib\liblwip.a(espconn.o)
espconn_tcp_set_buf_count                         c:/Espressif/ESP8266_SDK/lib\liblwip.a(espconn.o)
                                                  c:/Espressif/ESP8266_SDK/lib\liblwip.a(espconn_tcp.o)
espconn_tcp_set_max_con                           c:/Espressif/ESP8266_SDK/lib\liblwip.a(espconn.o)
espconn_tcp_set_max_con_allow                     c:/Espressif/ESP8266_SDK/lib\liblwip.a(espconn.o)
espconn_tcp_set_max_retran                        c:/Espressif/ESP8266_SDK/lib\liblwip.a(espconn.o)
espconn_tcp_set_max_syn                           c:/Espressif/ESP8266_SDK/lib\liblwip.a(espconn.o)
espconn_tcp_set_wnd                               c:/Espressif/ESP8266_SDK/lib\liblwip.a(espconn.o)
espconn_tcp_write                                 c:/Espressif/ESP8266_SDK/lib\liblwip.a(espconn_tcp.o)
                                                  c:/Espressif/ESP8266_SDK/lib\liblwip.a(espconn.o)
espconn_udp_disconnect                            c:/Espressif/ESP8266_SDK/lib\liblwip.a(espconn_udp.o)
                                                  c:/Espressif/ESP8266_SDK/lib\liblwip.a(espconn.o)
espconn_udp_sendto                                c:/Espressif/ESP8266_SDK/lib\liblwip.a(espconn_udp.o)
                                                  c:/Espressif/ESP8266_SDK/lib\liblwip.a(espconn.o)
espconn_udp_sent                                  c:/Espressif/ESP8266_SDK/lib\liblwip.a(espconn_udp.o)
                                                  c:/Espressif/ESP8266_SDK/lib\liblwip.a(espconn.o)
espconn_udp_server                                c:/Espressif/ESP8266_SDK/lib\liblwip.a(espconn_udp.o)
                                                  c:/Espressif/ESP8266_SDK/lib\liblwip.a(espconn.o)
espconn_unlock_recv                               c:/Espressif/ESP8266_SDK/lib\liblwip.a(espconn_tcp.o)
etharp_cleanup_netif                              c:/Espressif/ESP8266_SDK/lib\liblwip.a(etharp.o)
                                                  c:/Espressif/ESP8266_SDK/lib\liblwip.a(netif.o)
etharp_find_addr                                  c:/Espressif/ESP8266_SDK/lib\liblwip.a(etharp.o)
etharp_output                                     c:/Espressif/ESP8266_SDK/lib\liblwip.a(etharp.o)
                                                  c:/Espressif/ESP8266_SDK/lib\libmain.a(eagle_lwip_if.o)
etharp_query                                      c:/Espressif/ESP8266_SDK/lib\liblwip.a(etharp.o)
                                                  c:/Espressif/ESP8266_SDK/lib\liblwip.a(dhcp.o)
etharp_request                                    c:/Espressif/ESP8266_SDK/lib\liblwip.a(etharp.o)
                                                  c:/Espressif/ESP8266_SDK/lib\liblwip.a(netif.o)
etharp_tmr                                        c:/Espressif/ESP8266_SDK/lib\liblwip.a(etharp.o)
                                                  c:/Espressif/ESP8266_SDK/lib\liblwip.a(timers.o)
ethbroadcast                                      c:/Espressif/ESP8266_SDK/lib\liblwip.a(etharp.o)
                                                  c:/Espressif/ESP8266_SDK/lib\libwpa.a(wpa_auth.o)
                                                  c:/Espressif/ESP8266_SDK/lib\libnet80211.a(wl_cnx.o)
                                                  c:/Espressif/ESP8266_SDK/lib\libnet80211.a(ieee80211_scan.o)
                                                  c:/Espressif/ESP8266_SDK/lib\libnet80211.a(ieee80211_output.o)
                                                  c:/Espressif/ESP8266_SDK/lib\libnet80211.a(ieee80211_hostap.o)
                                                  c:/Espressif/ESP8266_SDK/lib\libnet80211.a(ieee80211.o)
                                                  c:/Espressif/ESP8266_SDK/lib\libpp.a(wdev.o)
                                                  c:/Espressif/ESP8266_SDK/lib\libmain.a(user_interface.o)
ethernet_input                                    c:/Espressif/ESP8266_SDK/lib\liblwip.a(etharp.o)
                                                  c:/Espressif/ESP8266_SDK/lib\libmain.a(eagle_lwip_if.o)
ethzero                                           c:/Espressif/ESP8266_SDK/lib\liblwip.a(etharp.o)
ets_bzero                                         c:/Espressif/ESP8266_SDK/lib\libwpa.a(wpa_main.o)
                                                  c:/Espressif/ESP8266_SDK/lib\libwpa.a(wpa.o)
                                                  c:/Espressif/ESP8266_SDK/lib\libwpa.a(wpa_auth.o)
                                                  c:/Espressif/ESP8266_SDK/lib\libwpa.a(ap_config.o)
                                                  c:/Espressif/ESP8266_SDK/lib\liblwip.a(espconn_tcp.o)
                                                  c:/Espressif/ESP8266_SDK/lib\liblwip.a(dhcpserver.o)
                                                  c:/Espressif/ESP8266_SDK/lib\libnet80211.a(wl_cnx.o)
                                                  c:/Espressif/ESP8266_SDK/lib\libnet80211.a(wl_chm.o)
                                                  c:/Espressif/ESP8266_SDK/lib\libnet80211.a(ieee80211_sta.o)
                                                  c:/Espressif/ESP8266_SDK/lib\libnet80211.a(ieee80211_scan.o)
                                                  c:/Espressif/ESP8266_SDK/lib\libnet80211.a(ieee80211_input.o)
                                                  c:/Espressif/ESP8266_SDK/lib\libpp.a(trc.o)
                                                  c:/Espressif/ESP8266_SDK/lib\libpp.a(pm.o)
                                                  c:/Espressif/ESP8266_SDK/lib\libmain.a(user_interface.o)
                                                  c:/Espressif/ESP8266_SDK/lib\libmain.a(app_main.o)
ets_delay_us                                      c:/Espressif/ESP8266_SDK/lib\libwpa.a(wpa.o)
                                                  c:/Espressif/ESP8266_SDK/lib\libnet80211.a(ieee80211_hostap.o)
                                                  c:/Espressif/ESP8266_SDK/lib\libpp.a(wdev.o)
                                                  c:/Espressif/ESP8266_SDK/lib\libpp.a(lmac.o)
                                                  c:/Espressif/ESP8266_SDK/lib\libphy.a(phy_sleep.o)
                                                  c:/Espressif/ESP8266_SDK/lib\libphy.a(phy_chip_v6_cal.o)
                                                  c:/Espressif/ESP8266_SDK/lib\libphy.a(phy_chip_v6.o)
                                                  c:/Espressif/ESP8266_SDK/lib\libphy.a(phy_chip_v6_ana.o)
                                                  build/app_app.a(user_main.o)
                                                  c:/Espressif/ESP8266_SDK/lib\libmain.a(user_interface.o)
                                                  c:/Espressif/ESP8266_SDK/lib\libmain.a(mem_manager.o)
                                                  c:/Espressif/ESP8266_SDK/lib\libmain.a(app_main.o)
ets_get_cpu_frequency                             c:/Espressif/ESP8266_SDK/lib\libmain.a(user_interface.o)
ets_install_putc1                                 build/app_app.a(uart.o)
                                                  c:/Espressif/ESP8266_SDK/lib\libmain.a(app_main.o)
ets_intr_lock                                     c:/Espressif/ESP8266_SDK/lib\libnet80211.a(wl_cnx.o)
                                                  c:/Espressif/ESP8266_SDK/lib\libnet80211.a(wl_chm.o)
                                                  c:/Espressif/ESP8266_SDK/lib\libnet80211.a(ieee80211_scan.o)
                                                  c:/Espressif/ESP8266_SDK/lib\libnet80211.a(ieee80211_hostap.o)
                                                  c:/Espressif/ESP8266_SDK/lib\libpp.a(esf_buf.o)
                                                  c:/Espressif/ESP8266_SDK/lib\libpp.a(wdev.o)
                                                  c:/Espressif/ESP8266_SDK/lib\libpp.a(pp.o)
                                                  c:/Espressif/ESP8266_SDK/lib\libpp.a(pm_for_bcn_only_mode.o)
                                                  c:/Espressif/ESP8266_SDK/lib\libpp.a(pm.o)
                                                  c:/Espressif/ESP8266_SDK/lib\libpp.a(lmac.o)
                                                  c:/Espressif/ESP8266_SDK/lib\libpp.a(if_hwctrl.o)
                                                  c:/Espressif/ESP8266_SDK/lib\libmain.a(user_interface.o)
                                                  c:/Espressif/ESP8266_SDK/lib\libmain.a(mem_manager.o)
                                                  c:/Espressif/ESP8266_SDK/lib\libmain.a(ets_timer.o)
                                                  c:/Espressif/ESP8266_SDK/lib\libmain.a(app_main.o)
ets_intr_unlock                                   c:/Espressif/ESP8266_SDK/lib\libnet80211.a(wl_cnx.o)
                                                  c:/Espressif/ESP8266_SDK/lib\libnet80211.a(wl_chm.o)
                                                  c:/Espressif/ESP8266_SDK/lib\libnet80211.a(ieee80211_scan.o)
                                                  c:/Espressif/ESP8266_SDK/lib\libnet80211.a(ieee80211_hostap.o)
                                                  c:/Espressif/ESP8266_SDK/lib\libpp.a(esf_buf.o)
                                                  c:/Espressif/ESP8266_SDK/lib\libpp.a(wdev.o)
                                                  c:/Espressif/ESP8266_SDK/lib\libpp.a(pp.o)
                                                  c:/Espressif/ESP8266_SDK/lib\libpp.a(pm_for_bcn_only_mode.o)
                                                  c:/Espressif/ESP8266_SDK/lib\libpp.a(pm.o)
                                                  c:/Espressif/ESP8266_SDK/lib\libpp.a(lmac.o)
                                                  c:/Espressif/ESP8266_SDK/lib\libpp.a(if_hwctrl.o)
                                                  c:/Espressif/ESP8266_SDK/lib\libmain.a(user_interface.o)
                                                  c:/Espressif/ESP8266_SDK/lib\libmain.a(mem_manager.o)
                                                  c:/Espressif/ESP8266_SDK/lib\libmain.a(ets_timer.o)
ets_isr_attach                                    build/app_app.a(uart.o)
                                                  c:/Espressif/ESP8266_SDK/lib\libmain.a(ets_timer.o)
                                                  c:/Espressif/ESP8266_SDK/lib\libmain.a(app_main.o)
ets_isr_mask                                      c:/Espressif/ESP8266_SDK/lib\libmain.a(user_interface.o)
ets_isr_unmask                                    build/app_app.a(uart.o)
                                                  c:/Espressif/ESP8266_SDK/lib\libmain.a(ets_timer.o)
                                                  c:/Espressif/ESP8266_SDK/lib\libmain.a(app_main.o)
ets_memcmp                                        c:/Espressif/ESP8266_SDK/lib\libssl.a(ssl_asn1.o)
                                                  c:/Espressif/ESP8266_SDK/lib\libssl.a(ssl_tls1_svr.o)
                                                  c:/Espressif/ESP8266_SDK/lib\libssl.a(ssl_tls1.o)
                                                  c:/Espressif/ESP8266_SDK/lib\libwpa.a(wpa_common.o)
                                                  c:/Espressif/ESP8266_SDK/lib\libwpa.a(wpa.o)
                                                  c:/Espressif/ESP8266_SDK/lib\libwpa.a(wpa_auth.o)
                                                  c:/Espressif/ESP8266_SDK/lib\libwpa.a(ap_config.o)
                                                  c:/Espressif/ESP8266_SDK/lib\liblwip.a(dhcpserver.o)
                                                  c:/Espressif/ESP8266_SDK/lib\libnet80211.a(ieee80211_action_vendor.o)
                                                  c:/Espressif/ESP8266_SDK/lib\libnet80211.a(wl_cnx.o)
                                                  c:/Espressif/ESP8266_SDK/lib\libnet80211.a(ieee80211_sta.o)
                                                  c:/Espressif/ESP8266_SDK/lib\libnet80211.a(ieee80211_scan.o)
                                                  c:/Espressif/ESP8266_SDK/lib\libnet80211.a(ieee80211_input.o)
                                                  c:/Espressif/ESP8266_SDK/lib\libnet80211.a(ieee80211_hostap.o)
                                                  c:/Espressif/ESP8266_SDK/lib\libpp.a(wdev.o)
                                                  c:/Espressif/ESP8266_SDK/lib\libpp.a(trc.o)
                                                  c:/Espressif/ESP8266_SDK/lib\libpp.a(pp.o)
                                                  c:/Espressif/ESP8266_SDK/lib\libpp.a(pm.o)
                                                  c:/Espressif/ESP8266_SDK/lib\libmain.a(user_interface.o)
ets_memcpy                                        c:/Espressif/ESP8266_SDK/lib\libcrypto.a(aes-wrap.o)
                                                  c:/Espressif/ESP8266_SDK/lib\libssl.a(ssl_rsa.o)
                                                  c:/Espressif/ESP8266_SDK/lib\libssl.a(ssl_hmac.o)
                                                  c:/Espressif/ESP8266_SDK/lib\libssl.a(ssl_bigint.o)
                                                  c:/Espressif/ESP8266_SDK/lib\libssl.a(ssl_asn1.o)
                                                  c:/Espressif/ESP8266_SDK/lib\libssl.a(ssl_aes.o)
                                                  c:/Espressif/ESP8266_SDK/lib\libssl.a(sha512.o)
                                                  c:/Espressif/ESP8266_SDK/lib\libssl.a(sha384.o)
                                                  c:/Espressif/ESP8266_SDK/lib\libssl.a(sha256.o)
                                                  c:/Espressif/ESP8266_SDK/lib\libssl.a(ssl_x509.o)
                                                  c:/Espressif/ESP8266_SDK/lib\libssl.a(ssl_tls1_svr.o)
                                                  c:/Espressif/ESP8266_SDK/lib\libssl.a(ssl_tls1.o)
                                                  c:/Espressif/ESP8266_SDK/lib\libssl.a(ssl_tls1_clnt.o)
                                                  c:/Espressif/ESP8266_SDK/lib\libssl.a(ssl_md5.o)
                                                  c:/Espressif/ESP8266_SDK/lib\libssl.a(ssl_loader.o)
                                                  c:/Espressif/ESP8266_SDK/lib\libssl.a(espconn_ssl.o)
                                                  c:/Espressif/ESP8266_SDK/lib\libssl.a(espconn_secure.o)
                                                  c:/Espressif/ESP8266_SDK/lib\libwpa.a(wpas_glue.o)
                                                  c:/Espressif/ESP8266_SDK/lib\libwpa.a(wpa_main.o)
                                                  c:/Espressif/ESP8266_SDK/lib\libwpa.a(wpa_common.o)
                                                  c:/Espressif/ESP8266_SDK/lib\libwpa.a(wpa.o)
                                                  c:/Espressif/ESP8266_SDK/lib\libwpa.a(wpa_auth_ie.o)
                                                  c:/Espressif/ESP8266_SDK/lib\libwpa.a(wpa_auth.o)
                                                  c:/Espressif/ESP8266_SDK/lib\libwpa.a(os_xtensa.o)
                                                  c:/Espressif/ESP8266_SDK/lib\libwpa.a(common.o)
                                                  c:/Espressif/ESP8266_SDK/lib\libwpa.a(ap_config.o)
                                                  c:/Espressif/ESP8266_SDK/lib\liblwip.a(icmp.o)
                                                  c:/Espressif/ESP8266_SDK/lib\liblwip.a(espconn_buf.o)
                                                  c:/Espressif/ESP8266_SDK/lib\liblwip.a(tcp_out.o)
                                                  c:/Espressif/ESP8266_SDK/lib\liblwip.a(tcp.o)
                                                  c:/Espressif/ESP8266_SDK/lib\liblwip.a(pbuf.o)
                                                  c:/Espressif/ESP8266_SDK/lib\liblwip.a(ip.o)
                                                  c:/Espressif/ESP8266_SDK/lib\liblwip.a(etharp.o)
                                                  c:/Espressif/ESP8266_SDK/lib\liblwip.a(espconn_tcp.o)
                                                  c:/Espressif/ESP8266_SDK/lib\liblwip.a(espconn.o)
                                                  c:/Espressif/ESP8266_SDK/lib\liblwip.a(dns.o)
                                                  c:/Espressif/ESP8266_SDK/lib\liblwip.a(dhcpserver.o)
                                                  c:/Espressif/ESP8266_SDK/lib\libnet80211.a(ieee80211_ie_vendor.o)
                                                  c:/Espressif/ESP8266_SDK/lib\libnet80211.a(ieee80211_action_vendor.o)
                                                  c:/Espressif/ESP8266_SDK/lib\libnet80211.a(wl_cnx.o)
                                                  c:/Espressif/ESP8266_SDK/lib\libnet80211.a(ieee80211_sta.o)
                                                  c:/Espressif/ESP8266_SDK/lib\libnet80211.a(ieee80211_scan.o)
                                                  c:/Espressif/ESP8266_SDK/lib\libnet80211.a(ieee80211_proto.o)
                                                  c:/Espressif/ESP8266_SDK/lib\libnet80211.a(ieee80211_phy.o)
                                                  c:/Espressif/ESP8266_SDK/lib\libnet80211.a(ieee80211_output.o)
                                                  c:/Espressif/ESP8266_SDK/lib\libnet80211.a(ieee80211_mesh_quick.o)
                                                  c:/Espressif/ESP8266_SDK/lib\libnet80211.a(ieee80211_input.o)
                                                  c:/Espressif/ESP8266_SDK/lib\libnet80211.a(ieee80211_hostap.o)
                                                  c:/Espressif/ESP8266_SDK/lib\libnet80211.a(ieee80211.o)
                                                  c:/Espressif/ESP8266_SDK/lib\libpp.a(wdev.o)
                                                  c:/Espressif/ESP8266_SDK/lib\libpp.a(trc.o)
                                                  c:/Espressif/ESP8266_SDK/lib\libpp.a(pm.o)
                                                  c:/Espressif/ESP8266_SDK/lib\libpp.a(if_hwctrl.o)
                                                  build/app_app.a(uartproto.o)
                                                  build/app_app.a(userconfig.o)
                                                  build/app_app.a(wifi_connector.o)
                                                  c:/Espressif/ESP8266_SDK/lib\libmain.a(eagle_lwip_if.o)
                                                  c:/Espressif/ESP8266_SDK/lib\libmain.a(user_interface.o)
                                                  c:/Espressif/ESP8266_SDK/lib\libmain.a(mem_manager.o)
                                                  c:/Espressif/ESP8266_SDK/lib\libmain.a(app_main.o)
ets_memset                                        c:/Espressif/ESP8266_SDK/lib\libcrypto.a(aes-internal-enc.o)
                                                  c:/Espressif/ESP8266_SDK/lib\libcrypto.a(aes-wrap.o)
                                                  c:/Espressif/ESP8266_SDK/lib\libssl.a(ssl_sha1.o)
                                                  c:/Espressif/ESP8266_SDK/lib\libssl.a(ssl_rsa.o)
                                                  c:/Espressif/ESP8266_SDK/lib\libssl.a(ssl_hmac.o)
                                                  c:/Espressif/ESP8266_SDK/lib\libssl.a(ssl_bigint.o)
                                                  c:/Espressif/ESP8266_SDK/lib\libssl.a(ssl_asn1.o)
                                                  c:/Espressif/ESP8266_SDK/lib\libssl.a(ssl_tls1.o)
                                                  c:/Espressif/ESP8266_SDK/lib\libssl.a(ssl_tls1_clnt.o)
                                                  c:/Espressif/ESP8266_SDK/lib\libwpa.a(wpas_glue.o)
                                                  c:/Espressif/ESP8266_SDK/lib\libwpa.a(wpa_ie.o)
                                                  c:/Espressif/ESP8266_SDK/lib\libwpa.a(wpa_common.o)
                                                  c:/Espressif/ESP8266_SDK/lib\libwpa.a(wpa.o)
                                                  c:/Espressif/ESP8266_SDK/lib\libwpa.a(wpa_auth_ie.o)
                                                  c:/Espressif/ESP8266_SDK/lib\libwpa.a(wpa_auth.o)
                                                  c:/Espressif/ESP8266_SDK/lib\liblwip.a(espconn_buf.o)
                                                  c:/Espressif/ESP8266_SDK/lib\liblwip.a(udp.o)
                                                  c:/Espressif/ESP8266_SDK/lib\liblwip.a(tcp.o)
                                                  c:/Espressif/ESP8266_SDK/lib\liblwip.a(sntp.o)
                                                  c:/Espressif/ESP8266_SDK/lib\liblwip.a(raw.o)
                                                  c:/Espressif/ESP8266_SDK/lib\liblwip.a(ip.o)
                                                  c:/Espressif/ESP8266_SDK/lib\liblwip.a(espconn.o)
                                                  c:/Espressif/ESP8266_SDK/lib\liblwip.a(dns.o)
                                                  c:/Espressif/ESP8266_SDK/lib\liblwip.a(dhcpserver.o)
                                                  c:/Espressif/ESP8266_SDK/lib\liblwip.a(dhcp.o)
                                                  c:/Espressif/ESP8266_SDK/lib\libnet80211.a(wl_cnx.o)
                                                  c:/Espressif/ESP8266_SDK/lib\libnet80211.a(ieee80211_power.o)
                                                  c:/Espressif/ESP8266_SDK/lib\libnet80211.a(ieee80211_output.o)
                                                  c:/Espressif/ESP8266_SDK/lib\libnet80211.a(ieee80211_input.o)
                                                  c:/Espressif/ESP8266_SDK/lib\libnet80211.a(ieee80211_ht.o)
                                                  c:/Espressif/ESP8266_SDK/lib\libpp.a(esf_buf.o)
                                                  build/app_app.a(userconfig.o)
                                                  build/app_app.a(wifi_connector.o)
                                                  c:/Espressif/ESP8266_SDK/lib\libmain.a(user_interface.o)
                                                  c:/Espressif/ESP8266_SDK/lib\libmain.a(mem_manager.o)
                                                  c:/Espressif/ESP8266_SDK/lib\libmain.a(app_main.o)
ets_post                                          c:/Espressif/ESP8266_SDK/lib\libssl.a(espconn_ssl.o)
                                                  c:/Espressif/ESP8266_SDK/lib\libwpa.a(wpa_main.o)
                                                  c:/Espressif/ESP8266_SDK/lib\liblwip.a(espconn_tcp.o)
                                                  c:/Espressif/ESP8266_SDK/lib\libnet80211.a(wl_cnx.o)
                                                  c:/Espressif/ESP8266_SDK/lib\libnet80211.a(ieee80211_sta.o)
                                                  c:/Espressif/ESP8266_SDK/lib\libnet80211.a(ieee80211_input.o)
                                                  c:/Espressif/ESP8266_SDK/lib\libnet80211.a(ieee80211_hostap.o)
                                                  c:/Espressif/ESP8266_SDK/lib\libpp.a(pp.o)
                                                  c:/Espressif/ESP8266_SDK/lib\libpp.a(pm.o)
                                                  c:/Espressif/ESP8266_SDK/lib\libpp.a(lmac.o)
                                                  c:/Espressif/ESP8266_SDK/lib\libmain.a(user_interface.o)
                                                  c:/Espressif/ESP8266_SDK/lib\libmain.a(ets_timer.o)
ets_printf                                        c:/Espressif/ESP8266_SDK/lib\libpp.a(wdev.o)
                                                  c:/Espressif/ESP8266_SDK/lib\libpp.a(pp.o)
                                                  c:/Espressif/ESP8266_SDK/lib\libpp.a(pm_for_bcn_only_mode.o)
                                                  c:/Espressif/ESP8266_SDK/lib\libpp.a(pm.o)
                                                  c:/Espressif/ESP8266_SDK/lib\libpp.a(lmac.o)
                                                  c:/Espressif/ESP8266_SDK/lib\libmain.a(mem_manager.o)
                                                  c:/Espressif/ESP8266_SDK/lib\libmain.a(ets_timer.o)
                                                  c:/Espressif/ESP8266_SDK/lib\libmain.a(app_main.o)
ets_putc                                          c:/Espressif/ESP8266_SDK/lib\libssl.a(ssl_bigint.o)
ets_run                                           c:/Espressif/ESP8266_SDK/lib\libmain.a(app_main.o)
ets_set_idle_cb                                   c:/Espressif/ESP8266_SDK/lib\libpp.a(pm_for_bcn_only_mode.o)
                                                  c:/Espressif/ESP8266_SDK/lib\libpp.a(pm.o)
ets_snprintf                                      c:/Espressif/ESP8266_SDK/lib\libmain.a(eagle_lib.o)
ets_sprintf                                       c:/Espressif/ESP8266_SDK/lib\libmain.a(eagle_lib.o)
                                                  c:/Espressif/ESP8266_SDK/lib\liblwip.a(sntp.o)
                                                  build/app_app.a(wifi_connector.o)
                                                  c:/Espressif/ESP8266_SDK/lib\libmain.a(user_interface.o)
ets_strcat                                        c:/Espressif/ESP8266_SDK/lib\libmain.a(eagle_lib.o)
ets_strchr                                        c:/Espressif/ESP8266_SDK/lib\libmain.a(eagle_lib.o)
ets_strcmp                                        c:/Espressif/ESP8266_SDK/lib\libssl.a(ssl_asn1.o)
                                                  build/app_app.a(wifi_connector.o)
ets_strcpy                                        c:/Espressif/ESP8266_SDK/lib\libssl.a(ssl_tls1.o)
                                                  build/app_app.a(userconfig.o)
                                                  build/app_app.a(wifi_connector.o)
                                                  c:/Espressif/ESP8266_SDK/lib\libmain.a(user_interface.o)
ets_strdup                                        c:/Espressif/ESP8266_SDK/lib\libwpa.a(os_xtensa.o)
ets_strlen                                        c:/Espressif/ESP8266_SDK/lib\libssl.a(ssl_bigint.o)
                                                  c:/Espressif/ESP8266_SDK/lib\libssl.a(ssl_tls1.o)
                                                  c:/Espressif/ESP8266_SDK/lib\libssl.a(ssl_loader.o)
                                                  c:/Espressif/ESP8266_SDK/lib\libwpa.a(wpa.o)
                                                  c:/Espressif/ESP8266_SDK/lib\libwpa.a(os_xtensa.o)
                                                  c:/Espressif/ESP8266_SDK/lib\libwpa.a(common.o)
                                                  c:/Espressif/ESP8266_SDK/lib\libwpa.a(ap_config.o)
                                                  c:/Espressif/ESP8266_SDK/lib\liblwip.a(pbuf.o)
                                                  c:/Espressif/ESP8266_SDK/lib\liblwip.a(dns.o)
                                                  c:/Espressif/ESP8266_SDK/lib\liblwip.a(dhcp.o)
                                                  c:/Espressif/ESP8266_SDK/lib\libnet80211.a(wl_cnx.o)
                                                  c:/Espressif/ESP8266_SDK/lib\libnet80211.a(ieee80211_scan.o)
                                                  c:/Espressif/ESP8266_SDK/lib\libnet80211.a(ieee80211_hostap.o)
                                                  build/app_app.a(wifi_connector.o)
                                                  c:/Espressif/ESP8266_SDK/lib\libmain.a(eagle_lib.o)
                                                  c:/Espressif/ESP8266_SDK/lib\libmain.a(user_interface.o)
                                                  c:/Espressif/ESP8266_SDK/lib\libmain.a(mem_manager.o)
ets_strncmp                                       c:/Espressif/ESP8266_SDK/lib\libnet80211.a(ieee80211_scan.o)
                                                  build/app_app.a(wifi_connector.o)
                                                  c:/Espressif/ESP8266_SDK/lib\libmain.a(user_interface.o)
ets_strncpy                                       c:/Espressif/ESP8266_SDK/lib\libnet80211.a(ieee80211_scan.o)
ets_strrchr                                       c:/Espressif/ESP8266_SDK/lib\libmain.a(eagle_lib.o)
                                                  c:/Espressif/ESP8266_SDK/lib\libwpa.a(common.o)
ets_strstr                                        c:/Espressif/ESP8266_SDK/lib\libssl.a(ssl_crypto_misc.o)
                                                  c:/Espressif/ESP8266_SDK/lib\libssl.a(ssl_loader.o)
                                                  c:/Espressif/ESP8266_SDK/lib\libssl.a(espconn_ssl.o)
ets_task                                          c:/Espressif/ESP8266_SDK/lib\libssl.a(espconn_ssl.o)
                                                  c:/Espressif/ESP8266_SDK/lib\liblwip.a(espconn_tcp.o)
                                                  c:/Espressif/ESP8266_SDK/lib\libpp.a(pp.o)
                                                  c:/Espressif/ESP8266_SDK/lib\libpp.a(pm.o)
                                                  c:/Espressif/ESP8266_SDK/lib\libmain.a(eagle_lwip_if.o)
                                                  c:/Espressif/ESP8266_SDK/lib\libmain.a(user_interface.o)
                                                  c:/Espressif/ESP8266_SDK/lib\libmain.a(ets_timer.o)
ets_timer_arm_new                                 c:/Espressif/ESP8266_SDK/lib\libmain.a(ets_timer.o)
                                                  c:/Espressif/ESP8266_SDK/lib\libmain.a(time.o)
                                                  c:/Espressif/ESP8266_SDK/lib\libwpa.a(wpa_main.o)
                                                  c:/Espressif/ESP8266_SDK/lib\libwpa.a(wpa.o)
                                                  c:/Espressif/ESP8266_SDK/lib\liblwip.a(sntp.o)
                                                  c:/Espressif/ESP8266_SDK/lib\libnet80211.a(wl_cnx.o)
                                                  c:/Espressif/ESP8266_SDK/lib\libnet80211.a(wl_chm.o)
                                                  c:/Espressif/ESP8266_SDK/lib\libnet80211.a(ieee80211_sta.o)
                                                  c:/Espressif/ESP8266_SDK/lib\libnet80211.a(ieee80211_scan.o)
                                                  c:/Espressif/ESP8266_SDK/lib\libnet80211.a(ieee80211_proto.o)
                                                  c:/Espressif/ESP8266_SDK/lib\libnet80211.a(ieee80211_hostap.o)
                                                  c:/Espressif/ESP8266_SDK/lib\libpp.a(pp.o)
                                                  c:/Espressif/ESP8266_SDK/lib\libpp.a(pm_for_bcn_only_mode.o)
                                                  c:/Espressif/ESP8266_SDK/lib\libpp.a(pm.o)
                                                  c:/Espressif/ESP8266_SDK/lib\libpp.a(if_hwctrl.o)
                                                  build/app_app.a(wifi_connector.o)
                                                  c:/Espressif/ESP8266_SDK/lib\libmain.a(user_interface.o)
                                                  c:/Espressif/ESP8266_SDK/lib\libmain.a(app_main.o)
ets_timer_disarm                                  c:/Espressif/ESP8266_SDK/lib\libmain.a(ets_timer.o)
                                                  c:/Espressif/ESP8266_SDK/lib\libmain.a(time.o)
                                                  c:/Espressif/ESP8266_SDK/lib\libwpa.a(wpa_main.o)
                                                  c:/Espressif/ESP8266_SDK/lib\libwpa.a(wpa.o)
                                                  c:/Espressif/ESP8266_SDK/lib\liblwip.a(sntp.o)
                                                  c:/Espressif/ESP8266_SDK/lib\libnet80211.a(wl_cnx.o)
                                                  c:/Espressif/ESP8266_SDK/lib\libnet80211.a(wl_chm.o)
                                                  c:/Espressif/ESP8266_SDK/lib\libnet80211.a(ieee80211_sta.o)
                                                  c:/Espressif/ESP8266_SDK/lib\libnet80211.a(ieee80211_scan.o)
                                                  c:/Espressif/ESP8266_SDK/lib\libnet80211.a(ieee80211_proto.o)
                                                  c:/Espressif/ESP8266_SDK/lib\libnet80211.a(ieee80211_hostap.o)
                                                  c:/Espressif/ESP8266_SDK/lib\libpp.a(pp.o)
                                                  c:/Espressif/ESP8266_SDK/lib\libpp.a(pm_for_bcn_only_mode.o)
                                                  c:/Espressif/ESP8266_SDK/lib\libpp.a(pm.o)
                                                  c:/Espressif/ESP8266_SDK/lib\libpp.a(if_hwctrl.o)
                                                  build/app_app.a(wifi_connector.o)
                                                  c:/Espressif/ESP8266_SDK/lib\libmain.a(user_interface.o)
                                                  c:/Espressif/ESP8266_SDK/lib\libmain.a(app_main.o)
ets_timer_done                                    c:/Espressif/ESP8266_SDK/lib\libmain.a(ets_timer.o)
ets_timer_handler_isr                             c:/Espressif/ESP8266_SDK/lib\libmain.a(ets_timer.o)
ets_timer_init                                    c:/Espressif/ESP8266_SDK/lib\libmain.a(ets_timer.o)
                                                  c:/Espressif/ESP8266_SDK/lib\libmain.a(app_main.o)
ets_timer_setfn                                   c:/Espressif/ESP8266_SDK/lib\libmain.a(ets_timer.o)
                                                  c:/Espressif/ESP8266_SDK/lib\libmain.a(time.o)
                                                  c:/Espressif/ESP8266_SDK/lib\libwpa.a(wpa_main.o)
                                                  c:/Espressif/ESP8266_SDK/lib\libwpa.a(wpa.o)
                                                  c:/Espressif/ESP8266_SDK/lib\liblwip.a(sntp.o)
                                                  c:/Espressif/ESP8266_SDK/lib\libnet80211.a(wl_cnx.o)
                                                  c:/Espressif/ESP8266_SDK/lib\libnet80211.a(wl_chm.o)
                                                  c:/Espressif/ESP8266_SDK/lib\libnet80211.a(ieee80211_sta.o)
                                                  c:/Espressif/ESP8266_SDK/lib\libnet80211.a(ieee80211_scan.o)
                                                  c:/Espressif/ESP8266_SDK/lib\libnet80211.a(ieee80211_proto.o)
                                                  c:/Espressif/ESP8266_SDK/lib\libnet80211.a(ieee80211_hostap.o)
                                                  c:/Espressif/ESP8266_SDK/lib\libpp.a(pp.o)
                                                  c:/Espressif/ESP8266_SDK/lib\libpp.a(pm_for_bcn_only_mode.o)
                                                  c:/Espressif/ESP8266_SDK/lib\libpp.a(pm.o)
                                                  c:/Espressif/ESP8266_SDK/lib\libpp.a(if_hwctrl.o)
                                                  build/app_app.a(wifi_connector.o)
                                                  c:/Espressif/ESP8266_SDK/lib\libmain.a(user_interface.o)
                                                  c:/Espressif/ESP8266_SDK/lib\libmain.a(app_main.o)
ets_update_cpu_frequency                          c:/Espressif/ESP8266_SDK/lib\libpp.a(pm_for_bcn_only_mode.o)
                                                  c:/Espressif/ESP8266_SDK/lib\libpp.a(pm.o)
                                                  c:/Espressif/ESP8266_SDK/lib\libphy.a(phy_chip_v6.o)
                                                  c:/Espressif/ESP8266_SDK/lib\libmain.a(user_interface.o)
ets_vprintf                                       c:/Espressif/ESP8266_SDK/lib\libmain.a(user_interface.o)
ets_vsnprintf                                     c:/Espressif/ESP8266_SDK/lib\libmain.a(eagle_lib.o)
                                                  c:/Espressif/ESP8266_SDK/lib\libwpa.a(wpa_debug.o)
ets_vsprintf                                      c:/Espressif/ESP8266_SDK/lib\libmain.a(eagle_lib.o)
ets_write_char                                    c:/Espressif/ESP8266_SDK/lib\libmain.a(user_interface.o)
event_TaskQueue                                   c:/Espressif/ESP8266_SDK/lib\libmain.a(user_interface.o)
event_cb                                          c:/Espressif/ESP8266_SDK/lib\libmain.a(user_interface.o)
                                                  c:/Espressif/ESP8266_SDK/lib\libwpa.a(wpa_main.o)
                                                  c:/Espressif/ESP8266_SDK/lib\libnet80211.a(wl_cnx.o)
                                                  c:/Espressif/ESP8266_SDK/lib\libnet80211.a(ieee80211_sta.o)
                                                  c:/Espressif/ESP8266_SDK/lib\libnet80211.a(ieee80211_hostap.o)
fifo_getsize(fifo_t*)                             build/app_app.a(sfifo.o)
                                                  build/app_app.a(uartproto.o)
fifo_init(fifo_t*, char*, int)                    build/app_app.a(sfifo.o)
                                                  build/app_app.a(wifi_connector.o)
fifo_read(fifo_t*, void*, int)                    build/app_app.a(sfifo.o)
                                                  build/app_app.a(uartproto.o)
                                                  build/app_app.a(wifi_connector.o)
fifo_write(fifo_t*, void const*, int)             build/app_app.a(sfifo.o)
                                                  build/app_app.a(wifi_connector.o)
finished_digest                                   c:/Espressif/ESP8266_SDK/lib\libssl.a(ssl_tls1.o)
                                                  c:/Espressif/ESP8266_SDK/lib\libssl.a(ssl_tls1_svr.o)
                                                  c:/Espressif/ESP8266_SDK/lib\libssl.a(ssl_tls1_clnt.o)
flash_data_check                                  c:/Espressif/ESP8266_SDK/lib\libmain.a(app_main.o)
flash_gd25q32c_enable_QIO_mode                    c:/Espressif/ESP8266_SDK/lib\libmain.a(spi_flash.o)
                                                  c:/Espressif/ESP8266_SDK/lib\libmain.a(app_main.o)
flash_gd25q32c_read_status                        c:/Espressif/ESP8266_SDK/lib\libmain.a(spi_flash.o)
flash_gd25q32c_write_status                       c:/Espressif/ESP8266_SDK/lib\libmain.a(spi_flash.o)
flash_read                                        c:/Espressif/ESP8266_SDK/lib\libmain.a(spi_flash.o)
flashchip                                         c:/Espressif/ESP8266_SDK/lib\libpp.a(pp.o)
                                                  c:/Espressif/ESP8266_SDK/lib\libpp.a(pm_for_bcn_only_mode.o)
                                                  c:/Espressif/ESP8266_SDK/lib\libpp.a(pm.o)
                                                  c:/Espressif/ESP8266_SDK/lib\libmain.a(user_interface.o)
                                                  c:/Espressif/ESP8266_SDK/lib\libmain.a(spi_flash.o)
                                                  c:/Espressif/ESP8266_SDK/lib\libmain.a(mem_manager.o)
                                                  c:/Espressif/ESP8266_SDK/lib\libmain.a(app_main.o)
fpm_allow_tx                                      c:/Espressif/ESP8266_SDK/lib\libpp.a(pm_for_bcn_only_mode.o)
                                                  c:/Espressif/ESP8266_SDK/lib\libnet80211.a(ieee80211_scan.o)
                                                  c:/Espressif/ESP8266_SDK/lib\libpp.a(pp.o)
                                                  c:/Espressif/ESP8266_SDK/lib\libmain.a(user_interface.o)
fpm_attach                                        c:/Espressif/ESP8266_SDK/lib\libpp.a(pm_for_bcn_only_mode.o)
                                                  c:/Espressif/ESP8266_SDK/lib\libmain.a(app_main.o)
fpm_auto_sleep_set_in_null_mode                   c:/Espressif/ESP8266_SDK/lib\libpp.a(pm_for_bcn_only_mode.o)
fpm_close                                         c:/Espressif/ESP8266_SDK/lib\libpp.a(pm_for_bcn_only_mode.o)
                                                  c:/Espressif/ESP8266_SDK/lib\libnet80211.a(ieee80211_hostap.o)
                                                  c:/Espressif/ESP8266_SDK/lib\libpp.a(pm.o)
fpm_do_sleep                                      c:/Espressif/ESP8266_SDK/lib\libpp.a(pm_for_bcn_only_mode.o)
                                                  c:/Espressif/ESP8266_SDK/lib\libnet80211.a(ieee80211_hostap.o)
fpm_do_wakeup                                     c:/Espressif/ESP8266_SDK/lib\libpp.a(pm_for_bcn_only_mode.o)
                                                  c:/Espressif/ESP8266_SDK/lib\libnet80211.a(ieee80211_scan.o)
                                                  c:/Espressif/ESP8266_SDK/lib\libpp.a(pp.o)
                                                  c:/Espressif/ESP8266_SDK/lib\libmain.a(user_interface.o)
fpm_get_slp_type                                  c:/Espressif/ESP8266_SDK/lib\libpp.a(pm_for_bcn_only_mode.o)
fpm_is_open                                       c:/Espressif/ESP8266_SDK/lib\libpp.a(pm_for_bcn_only_mode.o)
                                                  c:/Espressif/ESP8266_SDK/lib\libnet80211.a(ieee80211_hostap.o)
                                                  c:/Espressif/ESP8266_SDK/lib\libpp.a(pm.o)
fpm_open                                          c:/Espressif/ESP8266_SDK/lib\libpp.a(pm_for_bcn_only_mode.o)
                                                  c:/Espressif/ESP8266_SDK/lib\libnet80211.a(ieee80211_hostap.o)
fpm_rf_is_closed                                  c:/Espressif/ESP8266_SDK/lib\libpp.a(pm_for_bcn_only_mode.o)
                                                  c:/Espressif/ESP8266_SDK/lib\libpp.a(pp.o)
fpm_set_type_from_upper                           c:/Espressif/ESP8266_SDK/lib\libpp.a(pm_for_bcn_only_mode.o)
fpm_set_wakeup_cb                                 c:/Espressif/ESP8266_SDK/lib\libpp.a(pm_for_bcn_only_mode.o)
freq_trace_enable                                 c:/Espressif/ESP8266_SDK/lib\libmain.a(app_main.o)
gScanStruct                                       c:/Espressif/ESP8266_SDK/lib\libnet80211.a(ieee80211_scan.o)
                                                  c:/Espressif/ESP8266_SDK/lib\libnet80211.a(wl_cnx.o)
                                                  c:/Espressif/ESP8266_SDK/lib\libnet80211.a(ieee80211_sta.o)
                                                  c:/Espressif/ESP8266_SDK/lib\libnet80211.a(ieee80211_hostap.o)
                                                  c:/Espressif/ESP8266_SDK/lib\libpp.a(pp.o)
g_ConnState                                       build/app_app.a(wifi_connector.o)
                                                  build/app_app.a(uartproto.o)
g_Eeprom_Params                                   build/app_app.a(userconfig.o)
                                                  build/app_app.a(uartproto.o)
                                                  build/app_app.a(wifi_connector.o)
g_UartBuff                                        build/app_app.a(uartproto.o)
g_UartCommand                                     build/app_app.a(uartproto.o)
g_UartState                                       build/app_app.a(uartproto.o)
g_bServerAutoDiscover                             build/app_app.a(wifi_connector.o)
                                                  build/app_app.a(uartproto.o)
                                                  build/app_app.a(userconfig.o)
g_buffCommandRecv                                 build/app_app.a(wifi_connector.o)
g_buffFifoRecv                                    build/app_app.a(wifi_connector.o)
g_buffFifoSend                                    build/app_app.a(wifi_connector.o)
g_cnx_probe_rc_list_cb                            c:/Espressif/ESP8266_SDK/lib\libnet80211.a(wl_cnx.o)
g_connTcp                                         build/app_app.a(wifi_connector.o)
g_connUdp                                         build/app_app.a(wifi_connector.o)
g_espTcp                                          build/app_app.a(wifi_connector.o)
g_espUdp                                          build/app_app.a(wifi_connector.o)
g_fifoRecv                                        build/app_app.a(wifi_connector.o)
                                                  build/app_app.a(uartproto.o)
g_fifoSend                                        build/app_app.a(wifi_connector.o)
g_ic                                              c:/Espressif/ESP8266_SDK/lib\libnet80211.a(ieee80211.o)
                                                  c:/Espressif/ESP8266_SDK/lib\libnet80211.a(ieee80211_crypto_tkip.o)
                                                  c:/Espressif/ESP8266_SDK/lib\libwpa.a(wpa_main.o)
                                                  c:/Espressif/ESP8266_SDK/lib\libwpa.a(wpa.o)
                                                  c:/Espressif/ESP8266_SDK/lib\libwpa.a(wpa_auth.o)
                                                  c:/Espressif/ESP8266_SDK/lib\libwpa.a(ap_config.o)
                                                  c:/Espressif/ESP8266_SDK/lib\libnet80211.a(ieee80211_action_vendor.o)
                                                  c:/Espressif/ESP8266_SDK/lib\libnet80211.a(wl_cnx.o)
                                                  c:/Espressif/ESP8266_SDK/lib\libnet80211.a(wl_chm.o)
                                                  c:/Espressif/ESP8266_SDK/lib\libnet80211.a(ieee80211_sta.o)
                                                  c:/Espressif/ESP8266_SDK/lib\libnet80211.a(ieee80211_scan.o)
                                                  c:/Espressif/ESP8266_SDK/lib\libnet80211.a(ieee80211_rfid.o)
                                                  c:/Espressif/ESP8266_SDK/lib\libnet80211.a(ieee80211_regdomain.o)
                                                  c:/Espressif/ESP8266_SDK/lib\libnet80211.a(ieee80211_proto.o)
                                                  c:/Espressif/ESP8266_SDK/lib\libnet80211.a(ieee80211_power.o)
                                                  c:/Espressif/ESP8266_SDK/lib\libnet80211.a(ieee80211_phy.o)
                                                  c:/Espressif/ESP8266_SDK/lib\libnet80211.a(ieee80211_output.o)
                                                  c:/Espressif/ESP8266_SDK/lib\libnet80211.a(ieee80211_mesh_quick.o)
                                                  c:/Espressif/ESP8266_SDK/lib\libnet80211.a(ieee80211_input.o)
                                                  c:/Espressif/ESP8266_SDK/lib\libnet80211.a(ieee80211_ht.o)
                                                  c:/Espressif/ESP8266_SDK/lib\libnet80211.a(ieee80211_hostap.o)
                                                  c:/Espressif/ESP8266_SDK/lib\libnet80211.a(ieee80211_crypto.o)
                                                  c:/Espressif/ESP8266_SDK/lib\libpp.a(wdev.o)
                                                  c:/Espressif/ESP8266_SDK/lib\libpp.a(trc.o)
                                                  c:/Espressif/ESP8266_SDK/lib\libpp.a(pp.o)
                                                  c:/Espressif/ESP8266_SDK/lib\libpp.a(pm.o)
                                                  c:/Espressif/ESP8266_SDK/lib\libpp.a(if_hwctrl.o)
                                                  c:/Espressif/ESP8266_SDK/lib\libmain.a(eagle_lwip_if.o)
                                                  c:/Espressif/ESP8266_SDK/lib\libmain.a(user_interface.o)
                                                  c:/Espressif/ESP8266_SDK/lib\libmain.a(app_main.o)
g_ipServer                                        build/app_app.a(wifi_connector.o)
                                                  build/app_app.a(uartproto.o)
                                                  build/app_app.a(userconfig.o)
g_nBufferPosition                                 build/app_app.a(uartproto.o)
g_nHubId                                          build/app_app.a(wifi_connector.o)
                                                  build/app_app.a(uartproto.o)
g_nRecvIdx                                        build/app_app.a(wifi_connector.o)
g_nUartLen                                        build/app_app.a(uartproto.o)
g_pUartPktRecv                                    build/app_app.a(uartproto.o)
g_pUartPktSend                                    build/app_app.a(uartproto.o)
g_phyFuns                                         c:/Espressif/ESP8266_SDK/lib\libphy.a(phy_chip_v6.o)
                                                  c:/Espressif/ESP8266_SDK/lib\libpp.a(pm.o)
                                                  c:/Espressif/ESP8266_SDK/lib\libphy.a(phy_sleep.o)
                                                  c:/Espressif/ESP8266_SDK/lib\libphy.a(phy_chip_v6_cal.o)
                                                  c:/Espressif/ESP8266_SDK/lib\libphy.a(phy_chip_v6_ana.o)
g_queueReceived                                   build/app_app.a(uartproto.o)
g_taskUartReceiver                                build/app_app.a(uartproto.o)
g_tmrKeepAliveTimeout                             build/app_app.a(wifi_connector.o)
g_tmrPinger                                       build/app_app.a(wifi_connector.o)
g_tmrSntp                                         build/app_app.a(wifi_connector.o)
g_tmrTcpLinker                                    build/app_app.a(wifi_connector.o)
g_tmrUdpSender                                    build/app_app.a(wifi_connector.o)
g_wifiFwInfo                                      build/app_app.a(wifi_connector.o)
                                                  build/app_app.a(uartproto.o)
gen_rx_gain_table                                 c:/Espressif/ESP8266_SDK/lib\libphy.a(phy_chip_v6.o)
generate_master_secret                            c:/Espressif/ESP8266_SDK/lib\libssl.a(ssl_tls1.o)
                                                  c:/Espressif/ESP8266_SDK/lib\libssl.a(ssl_tls1_svr.o)
                                                  c:/Espressif/ESP8266_SDK/lib\libssl.a(ssl_tls1_clnt.o)
get_adc_rand                                      c:/Espressif/ESP8266_SDK/lib\libphy.a(phy_chip_v6.o)
                                                  c:/Espressif/ESP8266_SDK/lib\libphy.a(phy_sleep.o)
get_asn1_length                                   c:/Espressif/ESP8266_SDK/lib\libssl.a(ssl_asn1.o)
                                                  c:/Espressif/ESP8266_SDK/lib\libssl.a(ssl_x509.o)
get_chip_version                                  c:/Espressif/ESP8266_SDK/lib\libphy.a(phy_sleep.o)
                                                  c:/Espressif/ESP8266_SDK/lib\libphy.a(phy_chip_v6.o)
get_data_from_rtc                                 c:/Espressif/ESP8266_SDK/lib\libphy.a(phy_chip_v6.o)
                                                  c:/Espressif/ESP8266_SDK/lib\libmain.a(app_main.o)
get_fcc_1m2m_pwr_offset                           c:/Espressif/ESP8266_SDK/lib\libphy.a(phy_chip_v6_cal.o)
get_file                                          c:/Espressif/ESP8266_SDK/lib\libssl.a(ssl_crypto_misc.o)
                                                  c:/Espressif/ESP8266_SDK/lib\libssl.a(ssl_loader.o)
get_fpm_auto_sleep_flag                           c:/Espressif/ESP8266_SDK/lib\libpp.a(pm_for_bcn_only_mode.o)
                                                  c:/Espressif/ESP8266_SDK/lib\libmain.a(user_interface.o)
get_iav_key                                       c:/Espressif/ESP8266_SDK/lib\libnet80211.a(ieee80211_action_vendor.o)
get_noisefloor_sat                                c:/Espressif/ESP8266_SDK/lib\libphy.a(phy_chip_v6.o)
get_phy_target_power                              c:/Espressif/ESP8266_SDK/lib\libphy.a(phy_chip_v6.o)
                                                  c:/Espressif/ESP8266_SDK/lib\libphy.a(phy_chip_v6_cal.o)
get_pwctrl_correct                                c:/Espressif/ESP8266_SDK/lib\libphy.a(phy_chip_v6_cal.o)
get_random                                        c:/Espressif/ESP8266_SDK/lib\libssl.a(ssl_crypto_misc.o)
                                                  c:/Espressif/ESP8266_SDK/lib\libssl.a(ssl_tls1_svr.o)
                                                  c:/Espressif/ESP8266_SDK/lib\libssl.a(ssl_tls1.o)
                                                  c:/Espressif/ESP8266_SDK/lib\libssl.a(ssl_tls1_clnt.o)
get_random_NZ                                     c:/Espressif/ESP8266_SDK/lib\libssl.a(ssl_crypto_misc.o)
                                                  c:/Espressif/ESP8266_SDK/lib\libssl.a(ssl_rsa.o)
get_rf_gain_qdb                                   c:/Espressif/ESP8266_SDK/lib\libphy.a(phy_chip_v6_cal.o)
                                                  c:/Espressif/ESP8266_SDK/lib\libphy.a(phy_chip_v6.o)
get_sar_dout                                      c:/Espressif/ESP8266_SDK/lib\libphy.a(phy_chip_v6_cal.o)
get_target_power_offset                           c:/Espressif/ESP8266_SDK/lib\libphy.a(phy_chip_v6_cal.o)
get_vdd33_offset                                  c:/Espressif/ESP8266_SDK/lib\libphy.a(phy_chip_v6.o)
getrealtimeofday                                  c:/Espressif/ESP8266_SDK/lib\libmain.a(time.o)
gettimeofday                                      c:/espressif/xtensa-lx106-elf/bin/../lib/gcc/xtensa-lx106-elf/5.2.0/../../../../xtensa-lx106-elf/lib\libc.a(lib_a-sysgettod.o)
                                                  c:/Espressif/ESP8266_SDK/lib\libssl.a(ssl_x509.o)
                                                  c:/Espressif/ESP8266_SDK/lib\libssl.a(espconn_secure.o)
                                                  c:/Espressif/ESP8266_SDK/lib\libmain.a(time.o)
gpio_input_get                                    c:/Espressif/ESP8266_SDK/lib\libpp.a(pm.o)
gpio_output_set                                   c:/Espressif/ESP8266_SDK/lib\libnet80211.a(wl_cnx.o)
                                                  c:/Espressif/ESP8266_SDK/lib\libnet80211.a(ieee80211_hostap.o)
                                                  c:/Espressif/ESP8266_SDK/lib\libphy.a(phy_sleep.o)
                                                  c:/Espressif/ESP8266_SDK/lib\libphy.a(phy_chip_v6.o)
                                                  c:/Espressif/ESP8266_SDK/lib\libmain.a(user_interface.o)
gpio_pin_wakeup_disable                           c:/Espressif/ESP8266_SDK/lib\libmain.a(user_interface.o)
gpio_pin_wakeup_enable                            c:/Espressif/ESP8266_SDK/lib\libmain.a(user_interface.o)
hardware_reject                                   c:/Espressif/ESP8266_SDK/lib\libphy.a(phy_sleep.o)
hex2byte                                          c:/Espressif/ESP8266_SDK/lib\libwpa.a(common.o)
hex_finish                                        c:/Espressif/ESP8266_SDK/lib\libssl.a(ssl_crypto_misc.o)
hex_index                                         c:/Espressif/ESP8266_SDK/lib\libssl.a(ssl_crypto_misc.o)
hexstr2bin                                        c:/Espressif/ESP8266_SDK/lib\libwpa.a(common.o)
                                                  c:/Espressif/ESP8266_SDK/lib\libwpa.a(wpa.o)
                                                  c:/Espressif/ESP8266_SDK/lib\libmain.a(user_interface.o)
hmac_md5                                          c:/Espressif/ESP8266_SDK/lib\libwpa.a(wpa_common.o)
hmac_sha1                                         c:/Espressif/ESP8266_SDK/lib\libwpa.a(wpa_common.o)
hmac_sha1_vector                                  c:/Espressif/ESP8266_SDK/lib\libwpa.a(wpa_common.o)
hostap_handle_timer                               c:/Espressif/ESP8266_SDK/lib\libnet80211.a(ieee80211_hostap.o)
hostap_input                                      c:/Espressif/ESP8266_SDK/lib\libnet80211.a(ieee80211_hostap.o)
                                                  c:/Espressif/ESP8266_SDK/lib\libpp.a(pp.o)
hostapd_config_defaults                           c:/Espressif/ESP8266_SDK/lib\libwpa.a(ap_config.o)
hostapd_config_defaults_bss                       c:/Espressif/ESP8266_SDK/lib\libwpa.a(ap_config.o)
hostapd_get_psk                                   c:/Espressif/ESP8266_SDK/lib\libwpa.a(ap_config.o)
                                                  c:/Espressif/ESP8266_SDK/lib\libwpa.a(wpa_auth.o)
hostapd_mac_comp                                  c:/Espressif/ESP8266_SDK/lib\libwpa.a(ap_config.o)
hostapd_mac_comp_empty                            c:/Espressif/ESP8266_SDK/lib\libwpa.a(ap_config.o)
hostapd_maclist_found                             c:/Espressif/ESP8266_SDK/lib\libwpa.a(ap_config.o)
hostapd_rate_found                                c:/Espressif/ESP8266_SDK/lib\libwpa.a(ap_config.o)
hostapd_setup_wpa_psk                             c:/Espressif/ESP8266_SDK/lib\libwpa.a(ap_config.o)
                                                  c:/Espressif/ESP8266_SDK/lib\libnet80211.a(ieee80211_hostap.o)
hostapd_wep_key_cmp                               c:/Espressif/ESP8266_SDK/lib\libwpa.a(ap_config.o)
hostname                                          c:/Espressif/ESP8266_SDK/lib\libmain.a(eagle_lwip_if.o)
                                                  c:/Espressif/ESP8266_SDK/lib\libmain.a(user_interface.o)
ic_bss_info_update                                c:/Espressif/ESP8266_SDK/lib\libpp.a(if_hwctrl.o)
                                                  c:/Espressif/ESP8266_SDK/lib\libnet80211.a(ieee80211_sta.o)
                                                  c:/Espressif/ESP8266_SDK/lib\libnet80211.a(ieee80211_hostap.o)
ic_disable_interface                              c:/Espressif/ESP8266_SDK/lib\libpp.a(if_hwctrl.o)
ic_enable_interface                               c:/Espressif/ESP8266_SDK/lib\libpp.a(if_hwctrl.o)
ic_get_addr                                       c:/Espressif/ESP8266_SDK/lib\libpp.a(if_hwctrl.o)
                                                  c:/Espressif/ESP8266_SDK/lib\libpp.a(pm.o)
ic_get_gtk_alg                                    c:/Espressif/ESP8266_SDK/lib\libpp.a(if_hwctrl.o)
                                                  c:/Espressif/ESP8266_SDK/lib\libpp.a(pp.o)
ic_get_ptk_alg                                    c:/Espressif/ESP8266_SDK/lib\libpp.a(if_hwctrl.o)
                                                  c:/Espressif/ESP8266_SDK/lib\libpp.a(pp.o)
ic_get_rssi                                       c:/Espressif/ESP8266_SDK/lib\libpp.a(if_hwctrl.o)
                                                  c:/Espressif/ESP8266_SDK/lib\libmain.a(user_interface.o)
ic_interface_enabled                              c:/Espressif/ESP8266_SDK/lib\libpp.a(if_hwctrl.o)
ic_interface_is_p2p                               c:/Espressif/ESP8266_SDK/lib\libpp.a(if_hwctrl.o)
ic_is_pure_sta                                    c:/Espressif/ESP8266_SDK/lib\libpp.a(if_hwctrl.o)
                                                  c:/Espressif/ESP8266_SDK/lib\libpp.a(pp.o)
ic_remove_key                                     c:/Espressif/ESP8266_SDK/lib\libpp.a(if_hwctrl.o)
                                                  c:/Espressif/ESP8266_SDK/lib\libwpa.a(wpa_auth.o)
ic_set_gtk_alg                                    c:/Espressif/ESP8266_SDK/lib\libpp.a(if_hwctrl.o)
ic_set_key                                        c:/Espressif/ESP8266_SDK/lib\libpp.a(if_hwctrl.o)
                                                  c:/Espressif/ESP8266_SDK/lib\libwpa.a(wpa_main.o)
                                                  c:/Espressif/ESP8266_SDK/lib\libwpa.a(wpa_auth.o)
ic_set_opmode                                     c:/Espressif/ESP8266_SDK/lib\libpp.a(if_hwctrl.o)
ic_set_ptk_alg                                    c:/Espressif/ESP8266_SDK/lib\libpp.a(if_hwctrl.o)
ic_set_sta                                        c:/Espressif/ESP8266_SDK/lib\libpp.a(if_hwctrl.o)
                                                  c:/Espressif/ESP8266_SDK/lib\libnet80211.a(wl_cnx.o)
ic_set_vif                                        c:/Espressif/ESP8266_SDK/lib\libpp.a(if_hwctrl.o)
                                                  c:/Espressif/ESP8266_SDK/lib\libnet80211.a(ieee80211_sta.o)
                                                  c:/Espressif/ESP8266_SDK/lib\libnet80211.a(ieee80211_hostap.o)
                                                  c:/Espressif/ESP8266_SDK/lib\libmain.a(user_interface.o)
icmp_dest_unreach                                 c:/Espressif/ESP8266_SDK/lib\liblwip.a(icmp.o)
                                                  c:/Espressif/ESP8266_SDK/lib\liblwip.a(udp.o)
                                                  c:/Espressif/ESP8266_SDK/lib\liblwip.a(ip.o)
icmp_input                                        c:/Espressif/ESP8266_SDK/lib\liblwip.a(icmp.o)
                                                  c:/Espressif/ESP8266_SDK/lib\liblwip.a(ip.o)
idle_timer_reopen_flag                            c:/Espressif/ESP8266_SDK/lib\libpp.a(pp.o)
                                                  c:/Espressif/ESP8266_SDK/lib\libpp.a(pm.o)
ieee80211_action_vendor_spec_attach               c:/Espressif/ESP8266_SDK/lib\libnet80211.a(ieee80211_action_vendor.o)
                                                  c:/Espressif/ESP8266_SDK/lib\libnet80211.a(ieee80211.o)
ieee80211_add_action_vendor_spec_esp              c:/Espressif/ESP8266_SDK/lib\libnet80211.a(ieee80211_action_vendor.o)
ieee80211_add_htcap                               c:/Espressif/ESP8266_SDK/lib\libnet80211.a(ieee80211_ht.o)
                                                  c:/Espressif/ESP8266_SDK/lib\libnet80211.a(ieee80211_output.o)
ieee80211_add_htcap_vendor                        c:/Espressif/ESP8266_SDK/lib\libnet80211.a(ieee80211_ht.o)
                                                  c:/Espressif/ESP8266_SDK/lib\libnet80211.a(ieee80211_output.o)
ieee80211_add_htinfo                              c:/Espressif/ESP8266_SDK/lib\libnet80211.a(ieee80211_ht.o)
                                                  c:/Espressif/ESP8266_SDK/lib\libnet80211.a(ieee80211_output.o)
ieee80211_add_htinfo_vendor                       c:/Espressif/ESP8266_SDK/lib\libnet80211.a(ieee80211_ht.o)
                                                  c:/Espressif/ESP8266_SDK/lib\libnet80211.a(ieee80211_output.o)
ieee80211_add_ie_vendor_esp_freq_annon            c:/Espressif/ESP8266_SDK/lib\libnet80211.a(ieee80211_ie_vendor.o)
                                                  c:/Espressif/ESP8266_SDK/lib\libnet80211.a(ieee80211_output.o)
ieee80211_add_ie_vendor_esp_head                  c:/Espressif/ESP8266_SDK/lib\libnet80211.a(ieee80211_ie_vendor.o)
ieee80211_add_ie_vendor_esp_manufacturer          c:/Espressif/ESP8266_SDK/lib\libnet80211.a(ieee80211_ie_vendor.o)
                                                  c:/Espressif/ESP8266_SDK/lib\libnet80211.a(ieee80211_output.o)
ieee80211_add_ie_vendor_esp_mesh_assoc            c:/Espressif/ESP8266_SDK/lib\libnet80211.a(ieee80211_ie_vendor.o)
                                                  c:/Espressif/ESP8266_SDK/lib\libnet80211.a(ieee80211_mesh_quick.o)
ieee80211_add_ie_vendor_esp_mesh_group            c:/Espressif/ESP8266_SDK/lib\libnet80211.a(ieee80211_ie_vendor.o)
ieee80211_add_ie_vendor_esp_now                   c:/Espressif/ESP8266_SDK/lib\libnet80211.a(ieee80211_ie_vendor.o)
ieee80211_add_ie_vendor_esp_simple_pair           c:/Espressif/ESP8266_SDK/lib\libnet80211.a(ieee80211_ie_vendor.o)
                                                  c:/Espressif/ESP8266_SDK/lib\libnet80211.a(ieee80211_output.o)
ieee80211_add_ie_vendor_esp_ssid                  c:/Espressif/ESP8266_SDK/lib\libnet80211.a(ieee80211_ie_vendor.o)
                                                  c:/Espressif/ESP8266_SDK/lib\libnet80211.a(ieee80211_output.o)
ieee80211_add_rates                               c:/Espressif/ESP8266_SDK/lib\libnet80211.a(ieee80211_output.o)
ieee80211_add_xrates                              c:/Espressif/ESP8266_SDK/lib\libnet80211.a(ieee80211_output.o)
ieee80211_alloc_action_vendor_spec                c:/Espressif/ESP8266_SDK/lib\libnet80211.a(ieee80211_action_vendor.o)
ieee80211_alloc_challenge                         c:/Espressif/ESP8266_SDK/lib\libnet80211.a(ieee80211_input.o)
                                                  c:/Espressif/ESP8266_SDK/lib\libnet80211.a(ieee80211_sta.o)
ieee80211_alloc_countryie                         c:/Espressif/ESP8266_SDK/lib\libnet80211.a(ieee80211_regdomain.o)
                                                  c:/Espressif/ESP8266_SDK/lib\libnet80211.a(ieee80211_output.o)
ieee80211_alloc_deauth                            c:/Espressif/ESP8266_SDK/lib\libnet80211.a(ieee80211_output.o)
ieee80211_alloc_proberesp                         c:/Espressif/ESP8266_SDK/lib\libnet80211.a(ieee80211_output.o)
ieee80211_avs_clear_key_idx                       c:/Espressif/ESP8266_SDK/lib\libnet80211.a(ieee80211_action_vendor.o)
ieee80211_avs_fetch_key_idx                       c:/Espressif/ESP8266_SDK/lib\libnet80211.a(ieee80211_action_vendor.o)
ieee80211_beacon_alloc                            c:/Espressif/ESP8266_SDK/lib\libnet80211.a(ieee80211_output.o)
                                                  c:/Espressif/ESP8266_SDK/lib\libnet80211.a(ieee80211_hostap.o)
ieee80211_chan2ieee                               c:/Espressif/ESP8266_SDK/lib\libnet80211.a(ieee80211.o)
                                                  c:/Espressif/ESP8266_SDK/lib\libnet80211.a(wl_cnx.o)
                                                  c:/Espressif/ESP8266_SDK/lib\libnet80211.a(wl_chm.o)
                                                  c:/Espressif/ESP8266_SDK/lib\libnet80211.a(ieee80211_sta.o)
                                                  c:/Espressif/ESP8266_SDK/lib\libnet80211.a(ieee80211_scan.o)
                                                  c:/Espressif/ESP8266_SDK/lib\libnet80211.a(ieee80211_output.o)
                                                  c:/Espressif/ESP8266_SDK/lib\libnet80211.a(ieee80211_input.o)
                                                  c:/Espressif/ESP8266_SDK/lib\libnet80211.a(ieee80211_ht.o)
                                                  c:/Espressif/ESP8266_SDK/lib\libnet80211.a(ieee80211_hostap.o)
ieee80211_chan_in_regdomain                       c:/Espressif/ESP8266_SDK/lib\libnet80211.a(ieee80211_regdomain.o)
                                                  c:/Espressif/ESP8266_SDK/lib\libmain.a(user_interface.o)
                                                  c:/Espressif/ESP8266_SDK/lib\libmain.a(app_main.o)
ieee80211_crypto_attach                           c:/Espressif/ESP8266_SDK/lib\libnet80211.a(ieee80211_crypto.o)
                                                  c:/Espressif/ESP8266_SDK/lib\libnet80211.a(ieee80211.o)
ieee80211_crypto_available                        c:/Espressif/ESP8266_SDK/lib\libnet80211.a(ieee80211_crypto.o)
ieee80211_crypto_decap                            c:/Espressif/ESP8266_SDK/lib\libnet80211.a(ieee80211_crypto.o)
                                                  c:/Espressif/ESP8266_SDK/lib\libnet80211.a(ieee80211_sta.o)
                                                  c:/Espressif/ESP8266_SDK/lib\libnet80211.a(ieee80211_hostap.o)
ieee80211_crypto_encap                            c:/Espressif/ESP8266_SDK/lib\libnet80211.a(ieee80211_crypto.o)
                                                  c:/Espressif/ESP8266_SDK/lib\libnet80211.a(ieee80211_output.o)
ieee80211_crypto_setkey                           c:/Espressif/ESP8266_SDK/lib\libnet80211.a(ieee80211_crypto.o)
ieee80211_decap                                   c:/Espressif/ESP8266_SDK/lib\libnet80211.a(ieee80211_input.o)
                                                  c:/Espressif/ESP8266_SDK/lib\libnet80211.a(ieee80211_sta.o)
                                                  c:/Espressif/ESP8266_SDK/lib\libnet80211.a(ieee80211_hostap.o)
ieee80211_deliver_data                            c:/Espressif/ESP8266_SDK/lib\libnet80211.a(ieee80211_input.o)
                                                  c:/Espressif/ESP8266_SDK/lib\libnet80211.a(ieee80211_sta.o)
ieee80211_find_channel                            c:/Espressif/ESP8266_SDK/lib\libnet80211.a(ieee80211.o)
                                                  c:/Espressif/ESP8266_SDK/lib\libnet80211.a(ieee80211_ht.o)
ieee80211_find_channel_byieee                     c:/Espressif/ESP8266_SDK/lib\libnet80211.a(ieee80211.o)
ieee80211_freedom_init                            c:/Espressif/ESP8266_SDK/lib\libnet80211.a(ieee80211.o)
ieee80211_freedom_inside_cb                       c:/Espressif/ESP8266_SDK/lib\libnet80211.a(ieee80211.o)
ieee80211_freedom_output                          c:/Espressif/ESP8266_SDK/lib\libnet80211.a(ieee80211_output.o)
                                                  c:/Espressif/ESP8266_SDK/lib\libmain.a(user_interface.o)
ieee80211_getcapinfo                              c:/Espressif/ESP8266_SDK/lib\libnet80211.a(ieee80211_output.o)
ieee80211_getmgtframe                             c:/Espressif/ESP8266_SDK/lib\libnet80211.a(ieee80211_ets.o)
                                                  c:/Espressif/ESP8266_SDK/lib\libnet80211.a(ieee80211_action_vendor.o)
                                                  c:/Espressif/ESP8266_SDK/lib\libnet80211.a(ieee80211_output.o)
                                                  c:/Espressif/ESP8266_SDK/lib\libnet80211.a(ieee80211_ht.o)
                                                  c:/Espressif/ESP8266_SDK/lib\libpp.a(pm.o)
ieee80211_hostap_attach                           c:/Espressif/ESP8266_SDK/lib\libnet80211.a(ieee80211_hostap.o)
ieee80211_ht_attach                               c:/Espressif/ESP8266_SDK/lib\libnet80211.a(ieee80211_ht.o)
                                                  c:/Espressif/ESP8266_SDK/lib\libnet80211.a(ieee80211.o)
                                                  c:/Espressif/ESP8266_SDK/lib\libmain.a(user_interface.o)
ieee80211_ht_node_cleanup                         c:/Espressif/ESP8266_SDK/lib\libnet80211.a(ieee80211_ht.o)
ieee80211_ht_node_init                            c:/Espressif/ESP8266_SDK/lib\libnet80211.a(ieee80211_ht.o)
                                                  c:/Espressif/ESP8266_SDK/lib\libnet80211.a(ieee80211_sta.o)
ieee80211_ht_updateparams                         c:/Espressif/ESP8266_SDK/lib\libnet80211.a(ieee80211_ht.o)
                                                  c:/Espressif/ESP8266_SDK/lib\libnet80211.a(wl_cnx.o)
                                                  c:/Espressif/ESP8266_SDK/lib\libnet80211.a(ieee80211_sta.o)
ieee80211_ieee2mhz                                c:/Espressif/ESP8266_SDK/lib\libnet80211.a(ieee80211.o)
ieee80211_ifattach                                c:/Espressif/ESP8266_SDK/lib\libnet80211.a(ieee80211.o)
                                                  c:/Espressif/ESP8266_SDK/lib\libmain.a(app_main.o)
ieee80211_iserp_rateset                           c:/Espressif/ESP8266_SDK/lib\libnet80211.a(ieee80211_proto.o)
ieee80211_mesh_quick_deinit                       c:/Espressif/ESP8266_SDK/lib\libnet80211.a(ieee80211_mesh_quick.o)
ieee80211_mesh_quick_get                          c:/Espressif/ESP8266_SDK/lib\libnet80211.a(ieee80211_mesh_quick.o)
                                                  c:/Espressif/ESP8266_SDK/lib\libnet80211.a(ieee80211_output.o)
                                                  c:/Espressif/ESP8266_SDK/lib\libnet80211.a(ieee80211_hostap.o)
ieee80211_mesh_quick_ie_add                       c:/Espressif/ESP8266_SDK/lib\libnet80211.a(ieee80211_mesh_quick.o)
                                                  c:/Espressif/ESP8266_SDK/lib\libnet80211.a(ieee80211_output.o)
ieee80211_mesh_quick_init                         c:/Espressif/ESP8266_SDK/lib\libnet80211.a(ieee80211_mesh_quick.o)
ieee80211_mesh_quick_set                          c:/Espressif/ESP8266_SDK/lib\libnet80211.a(ieee80211_mesh_quick.o)
ieee80211_mgmt_output                             c:/Espressif/ESP8266_SDK/lib\libnet80211.a(ieee80211_output.o)
                                                  c:/Espressif/ESP8266_SDK/lib\libnet80211.a(ieee80211_ht.o)
ieee80211_mhz2ieee                                c:/Espressif/ESP8266_SDK/lib\libnet80211.a(ieee80211.o)
ieee80211_mlme_connect_bss                        c:/Espressif/ESP8266_SDK/lib\libnet80211.a(ieee80211_proto.o)
                                                  c:/Espressif/ESP8266_SDK/lib\libnet80211.a(wl_cnx.o)
ieee80211_node_pwrsave                            c:/Espressif/ESP8266_SDK/lib\libnet80211.a(ieee80211_power.o)
                                                  c:/Espressif/ESP8266_SDK/lib\libnet80211.a(ieee80211_hostap.o)
ieee80211_opcap                                   c:/Espressif/ESP8266_SDK/lib\libnet80211.a(ieee80211.o)
ieee80211_output_pbuf                             c:/Espressif/ESP8266_SDK/lib\libnet80211.a(ieee80211_output.o)
                                                  c:/Espressif/ESP8266_SDK/lib\libwpa.a(wpa_main.o)
                                                  c:/Espressif/ESP8266_SDK/lib\libwpa.a(wpa_auth.o)
                                                  c:/Espressif/ESP8266_SDK/lib\libnet80211.a(ieee80211_hostap.o)
                                                  c:/Espressif/ESP8266_SDK/lib\libmain.a(eagle_lwip_if.o)
ieee80211_parse_action                            c:/Espressif/ESP8266_SDK/lib\libnet80211.a(ieee80211_input.o)
                                                  c:/Espressif/ESP8266_SDK/lib\libnet80211.a(ieee80211_sta.o)
ieee80211_parse_beacon                            c:/Espressif/ESP8266_SDK/lib\libnet80211.a(ieee80211_input.o)
                                                  c:/Espressif/ESP8266_SDK/lib\libnet80211.a(ieee80211_sta.o)
                                                  c:/Espressif/ESP8266_SDK/lib\libnet80211.a(ieee80211_hostap.o)
ieee80211_parse_htcap                             c:/Espressif/ESP8266_SDK/lib\libnet80211.a(ieee80211_ht.o)
ieee80211_parse_rsn                               c:/Espressif/ESP8266_SDK/lib\libnet80211.a(ieee80211_input.o)
                                                  c:/Espressif/ESP8266_SDK/lib\libnet80211.a(ieee80211_scan.o)
ieee80211_parse_wmeparams                         c:/Espressif/ESP8266_SDK/lib\libnet80211.a(ieee80211_sta.o)
                                                  c:/Espressif/ESP8266_SDK/lib\libnet80211.a(wl_cnx.o)
ieee80211_parse_wpa                               c:/Espressif/ESP8266_SDK/lib\libnet80211.a(ieee80211_input.o)
                                                  c:/Espressif/ESP8266_SDK/lib\libnet80211.a(ieee80211_scan.o)
ieee80211_phy_init                                c:/Espressif/ESP8266_SDK/lib\libnet80211.a(ieee80211_phy.o)
                                                  c:/Espressif/ESP8266_SDK/lib\libmain.a(user_interface.o)
                                                  c:/Espressif/ESP8266_SDK/lib\libmain.a(app_main.o)
ieee80211_phy_type_get                            c:/Espressif/ESP8266_SDK/lib\libnet80211.a(ieee80211_phy.o)
                                                  c:/Espressif/ESP8266_SDK/lib\libnet80211.a(wl_cnx.o)
ieee80211_proto_attach                            c:/Espressif/ESP8266_SDK/lib\libnet80211.a(ieee80211_proto.o)
                                                  c:/Espressif/ESP8266_SDK/lib\libnet80211.a(ieee80211.o)
ieee80211_psq_cleanup                             c:/Espressif/ESP8266_SDK/lib\libnet80211.a(ieee80211_power.o)
ieee80211_psq_init                                c:/Espressif/ESP8266_SDK/lib\libnet80211.a(ieee80211_power.o)
                                                  c:/Espressif/ESP8266_SDK/lib\libnet80211.a(ieee80211_hostap.o)
ieee80211_pwrsave                                 c:/Espressif/ESP8266_SDK/lib\libnet80211.a(ieee80211_power.o)
                                                  c:/Espressif/ESP8266_SDK/lib\libnet80211.a(ieee80211_output.o)
ieee80211_rate_ref_init                           c:/Espressif/ESP8266_SDK/lib\libnet80211.a(ieee80211.o)
ieee80211_recv_action                             c:/Espressif/ESP8266_SDK/lib\libnet80211.a(ieee80211_action.o)
                                                  c:/Espressif/ESP8266_SDK/lib\libnet80211.a(ieee80211_sta.o)
                                                  c:/Espressif/ESP8266_SDK/lib\libnet80211.a(ieee80211_hostap.o)
ieee80211_recv_action_register                    c:/Espressif/ESP8266_SDK/lib\libnet80211.a(ieee80211_action.o)
                                                  c:/Espressif/ESP8266_SDK/lib\libnet80211.a(ieee80211_action_vendor.o)
                                                  c:/Espressif/ESP8266_SDK/lib\libnet80211.a(ieee80211_ht.o)
ieee80211_recv_action_unregister                  c:/Espressif/ESP8266_SDK/lib\libnet80211.a(ieee80211_action.o)
ieee80211_recv_action_vendor_spec                 c:/Espressif/ESP8266_SDK/lib\libnet80211.a(ieee80211_action_vendor.o)
ieee80211_regdomain_attach                        c:/Espressif/ESP8266_SDK/lib\libnet80211.a(ieee80211_regdomain.o)
ieee80211_regdomain_detach                        c:/Espressif/ESP8266_SDK/lib\libnet80211.a(ieee80211_regdomain.o)
ieee80211_rfid_locp_recv                          c:/Espressif/ESP8266_SDK/lib\libnet80211.a(ieee80211_rfid.o)
                                                  c:/Espressif/ESP8266_SDK/lib\libnet80211.a(ieee80211_hostap.o)
ieee80211_rfid_locp_recv_close                    c:/Espressif/ESP8266_SDK/lib\libnet80211.a(ieee80211_rfid.o)
                                                  c:/Espressif/ESP8266_SDK/lib\libmain.a(user_interface.o)
ieee80211_rfid_locp_recv_open                     c:/Espressif/ESP8266_SDK/lib\libnet80211.a(ieee80211_rfid.o)
                                                  c:/Espressif/ESP8266_SDK/lib\libmain.a(user_interface.o)
ieee80211_rfid_locp_recv_reset                    c:/Espressif/ESP8266_SDK/lib\libnet80211.a(ieee80211_rfid.o)
                                                  c:/Espressif/ESP8266_SDK/lib\libnet80211.a(ieee80211.o)
ieee80211_scan_attach                             c:/Espressif/ESP8266_SDK/lib\libnet80211.a(ieee80211_scan.o)
                                                  c:/Espressif/ESP8266_SDK/lib\libnet80211.a(ieee80211.o)
ieee80211_send_action                             c:/Espressif/ESP8266_SDK/lib\libnet80211.a(ieee80211_action.o)
                                                  c:/Espressif/ESP8266_SDK/lib\libnet80211.a(ieee80211_ht.o)
ieee80211_send_action_register                    c:/Espressif/ESP8266_SDK/lib\libnet80211.a(ieee80211_action.o)
                                                  c:/Espressif/ESP8266_SDK/lib\libnet80211.a(ieee80211_ht.o)
ieee80211_send_action_unregister                  c:/Espressif/ESP8266_SDK/lib\libnet80211.a(ieee80211_action.o)
ieee80211_send_action_vendor_spec                 c:/Espressif/ESP8266_SDK/lib\libnet80211.a(ieee80211_action_vendor.o)
ieee80211_send_deauth                             c:/Espressif/ESP8266_SDK/lib\libnet80211.a(ieee80211_output.o)
                                                  c:/Espressif/ESP8266_SDK/lib\libnet80211.a(ieee80211_hostap.o)
ieee80211_send_mgmt                               c:/Espressif/ESP8266_SDK/lib\libnet80211.a(ieee80211_output.o)
                                                  c:/Espressif/ESP8266_SDK/lib\libwpa.a(wpa_main.o)
                                                  c:/Espressif/ESP8266_SDK/lib\libnet80211.a(wl_cnx.o)
                                                  c:/Espressif/ESP8266_SDK/lib\libnet80211.a(ieee80211_sta.o)
                                                  c:/Espressif/ESP8266_SDK/lib\libnet80211.a(ieee80211_proto.o)
                                                  c:/Espressif/ESP8266_SDK/lib\libnet80211.a(ieee80211_hostap.o)
                                                  c:/Espressif/ESP8266_SDK/lib\libmain.a(user_interface.o)
ieee80211_send_nulldata                           c:/Espressif/ESP8266_SDK/lib\libnet80211.a(ieee80211_output.o)
                                                  c:/Espressif/ESP8266_SDK/lib\libnet80211.a(ieee80211_hostap.o)
ieee80211_send_probereq                           c:/Espressif/ESP8266_SDK/lib\libnet80211.a(ieee80211_output.o)
                                                  c:/Espressif/ESP8266_SDK/lib\libnet80211.a(wl_cnx.o)
                                                  c:/Espressif/ESP8266_SDK/lib\libnet80211.a(ieee80211_scan.o)
ieee80211_send_proberesp                          c:/Espressif/ESP8266_SDK/lib\libnet80211.a(ieee80211_output.o)
                                                  c:/Espressif/ESP8266_SDK/lib\libnet80211.a(ieee80211_hostap.o)
ieee80211_send_setup                              c:/Espressif/ESP8266_SDK/lib\libnet80211.a(ieee80211_output.o)
                                                  c:/Espressif/ESP8266_SDK/lib\libnet80211.a(ieee80211_action_vendor.o)
                                                  c:/Espressif/ESP8266_SDK/lib\libpp.a(pm.o)
ieee80211_set_shortslottime                       c:/Espressif/ESP8266_SDK/lib\libnet80211.a(ieee80211_proto.o)
                                                  c:/Espressif/ESP8266_SDK/lib\libnet80211.a(wl_cnx.o)
                                                  c:/Espressif/ESP8266_SDK/lib\libnet80211.a(ieee80211_sta.o)
ieee80211_set_tim                                 c:/Espressif/ESP8266_SDK/lib\libnet80211.a(ieee80211_power.o)
                                                  c:/Espressif/ESP8266_SDK/lib\libnet80211.a(ieee80211_hostap.o)
ieee80211_setup_basic_htrates                     c:/Espressif/ESP8266_SDK/lib\libnet80211.a(ieee80211_ht.o)
                                                  c:/Espressif/ESP8266_SDK/lib\libnet80211.a(ieee80211_sta.o)
ieee80211_setup_htrates                           c:/Espressif/ESP8266_SDK/lib\libnet80211.a(ieee80211_ht.o)
                                                  c:/Espressif/ESP8266_SDK/lib\libnet80211.a(ieee80211_sta.o)
ieee80211_setup_rates                             c:/Espressif/ESP8266_SDK/lib\libnet80211.a(ieee80211_input.o)
                                                  c:/Espressif/ESP8266_SDK/lib\libnet80211.a(ieee80211_sta.o)
                                                  c:/Espressif/ESP8266_SDK/lib\libnet80211.a(ieee80211_hostap.o)
ieee80211_setup_rateset                           c:/Espressif/ESP8266_SDK/lib\libnet80211.a(ieee80211_input.o)
                                                  c:/Espressif/ESP8266_SDK/lib\libnet80211.a(wl_cnx.o)
ieee80211_setup_ratetable                         c:/Espressif/ESP8266_SDK/lib\libnet80211.a(ieee80211_phy.o)
ieee80211_sta_new_state                           c:/Espressif/ESP8266_SDK/lib\libnet80211.a(ieee80211_sta.o)
                                                  c:/Espressif/ESP8266_SDK/lib\libwpa.a(wpa_main.o)
                                                  c:/Espressif/ESP8266_SDK/lib\libnet80211.a(wl_cnx.o)
                                                  c:/Espressif/ESP8266_SDK/lib\libnet80211.a(ieee80211_proto.o)
                                                  c:/Espressif/ESP8266_SDK/lib\libmain.a(user_interface.o)
ieee80211_tx_mgt_cb                               c:/Espressif/ESP8266_SDK/lib\libnet80211.a(ieee80211_output.o)
                                                  c:/Espressif/ESP8266_SDK/lib\libnet80211.a(ieee80211_proto.o)
ieee80211_update_regdomain                        c:/Espressif/ESP8266_SDK/lib\libnet80211.a(ieee80211_regdomain.o)
                                                  c:/Espressif/ESP8266_SDK/lib\libnet80211.a(wl_cnx.o)
ieee80211_user_ie_init                            c:/Espressif/ESP8266_SDK/lib\libnet80211.a(ieee80211.o)
ieee80211_wme_initparams                          c:/Espressif/ESP8266_SDK/lib\libnet80211.a(ieee80211_proto.o)
ieee80211_wme_updateparams                        c:/Espressif/ESP8266_SDK/lib\libnet80211.a(ieee80211_proto.o)
                                                  c:/Espressif/ESP8266_SDK/lib\libnet80211.a(wl_cnx.o)
                                                  c:/Espressif/ESP8266_SDK/lib\libnet80211.a(ieee80211_sta.o)
if_ctrl                                           c:/Espressif/ESP8266_SDK/lib\libpp.a(if_hwctrl.o)
igmp_init                                         c:/Espressif/ESP8266_SDK/lib\liblwip.a(igmp.o)
                                                  c:/Espressif/ESP8266_SDK/lib\liblwip.a(init.o)
igmp_input                                        c:/Espressif/ESP8266_SDK/lib\liblwip.a(igmp.o)
                                                  c:/Espressif/ESP8266_SDK/lib\liblwip.a(ip.o)
igmp_joingroup                                    c:/Espressif/ESP8266_SDK/lib\liblwip.a(igmp.o)
                                                  c:/Espressif/ESP8266_SDK/lib\liblwip.a(espconn_udp.o)
igmp_leavegroup                                   c:/Espressif/ESP8266_SDK/lib\liblwip.a(igmp.o)
                                                  c:/Espressif/ESP8266_SDK/lib\liblwip.a(espconn_udp.o)
igmp_lookfor_group                                c:/Espressif/ESP8266_SDK/lib\liblwip.a(igmp.o)
                                                  c:/Espressif/ESP8266_SDK/lib\liblwip.a(ip.o)
igmp_report_groups                                c:/Espressif/ESP8266_SDK/lib\liblwip.a(igmp.o)
                                                  c:/Espressif/ESP8266_SDK/lib\liblwip.a(netif.o)
igmp_start                                        c:/Espressif/ESP8266_SDK/lib\liblwip.a(igmp.o)
                                                  c:/Espressif/ESP8266_SDK/lib\liblwip.a(netif.o)
igmp_stop                                         c:/Espressif/ESP8266_SDK/lib\liblwip.a(igmp.o)
                                                  c:/Espressif/ESP8266_SDK/lib\liblwip.a(netif.o)
igmp_tmr                                          c:/Espressif/ESP8266_SDK/lib\liblwip.a(igmp.o)
                                                  c:/Espressif/ESP8266_SDK/lib\liblwip.a(timers.o)
inc_byte_array                                    c:/Espressif/ESP8266_SDK/lib\libwpa.a(common.o)
                                                  c:/Espressif/ESP8266_SDK/lib\libwpa.a(wpa.o)
                                                  c:/Espressif/ESP8266_SDK/lib\libwpa.a(wpa_auth.o)
inet_chksum                                       c:/Espressif/ESP8266_SDK/lib\liblwip.a(inet_chksum.o)
                                                  c:/Espressif/ESP8266_SDK/lib\liblwip.a(icmp.o)
                                                  c:/Espressif/ESP8266_SDK/lib\liblwip.a(ip.o)
                                                  c:/Espressif/ESP8266_SDK/lib\liblwip.a(igmp.o)
inet_chksum_pbuf                                  c:/Espressif/ESP8266_SDK/lib\liblwip.a(inet_chksum.o)
                                                  c:/Espressif/ESP8266_SDK/lib\liblwip.a(icmp.o)
inet_chksum_pseudo                                c:/Espressif/ESP8266_SDK/lib\liblwip.a(inet_chksum.o)
                                                  c:/Espressif/ESP8266_SDK/lib\liblwip.a(udp.o)
                                                  c:/Espressif/ESP8266_SDK/lib\liblwip.a(tcp_out.o)
                                                  c:/Espressif/ESP8266_SDK/lib\liblwip.a(tcp_in.o)
inet_chksum_pseudo_partial                        c:/Espressif/ESP8266_SDK/lib\liblwip.a(inet_chksum.o)
info                                              c:/Espressif/ESP8266_SDK/lib\libmain.a(app_main.o)
                                                  c:/Espressif/ESP8266_SDK/lib\libwpa.a(wpa_main.o)
                                                  c:/Espressif/ESP8266_SDK/lib\libnet80211.a(ieee80211_sta.o)
                                                  c:/Espressif/ESP8266_SDK/lib\libnet80211.a(ieee80211_hostap.o)
                                                  c:/Espressif/ESP8266_SDK/lib\libnet80211.a(ieee80211.o)
                                                  c:/Espressif/ESP8266_SDK/lib\libmain.a(user_interface.o)
init_cal_dcoffset                                 c:/Espressif/ESP8266_SDK/lib\libphy.a(phy_chip_v6_cal.o)
                                                  c:/Espressif/ESP8266_SDK/lib\libphy.a(phy_chip_v6.o)
init_rf_no_cal                                    c:/Espressif/ESP8266_SDK/lib\libphy.a(phy_chip_v6.o)
                                                  c:/Espressif/ESP8266_SDK/lib\libphy.a(phy_chip_v6_ana.o)
int_to_bi                                         c:/Espressif/ESP8266_SDK/lib\libssl.a(ssl_bigint.o)
interface_mask                                    c:/Espressif/ESP8266_SDK/lib\libpp.a(if_hwctrl.o)
ip4_addr_isbroadcast                              c:/Espressif/ESP8266_SDK/lib\liblwip.a(ip_addr.o)
                                                  c:/Espressif/ESP8266_SDK/lib\liblwip.a(icmp.o)
                                                  c:/Espressif/ESP8266_SDK/lib\liblwip.a(udp.o)
                                                  c:/Espressif/ESP8266_SDK/lib\liblwip.a(tcp_in.o)
                                                  c:/Espressif/ESP8266_SDK/lib\liblwip.a(ip.o)
                                                  c:/Espressif/ESP8266_SDK/lib\liblwip.a(etharp.o)
                                                  c:/Espressif/ESP8266_SDK/lib\liblwip.a(espconn_udp.o)
ip4_addr_netmask_valid                            c:/Espressif/ESP8266_SDK/lib\liblwip.a(ip_addr.o)
ip_addr_any                                       c:/Espressif/ESP8266_SDK/lib\liblwip.a(ip_addr.o)
                                                  c:/Espressif/ESP8266_SDK/lib\libssl.a(espconn_ssl.o)
                                                  c:/Espressif/ESP8266_SDK/lib\liblwip.a(sntp.o)
                                                  c:/Espressif/ESP8266_SDK/lib\liblwip.a(igmp.o)
                                                  c:/Espressif/ESP8266_SDK/lib\liblwip.a(espconn_udp.o)
                                                  c:/Espressif/ESP8266_SDK/lib\liblwip.a(espconn_tcp.o)
                                                  c:/Espressif/ESP8266_SDK/lib\liblwip.a(dns.o)
                                                  c:/Espressif/ESP8266_SDK/lib\liblwip.a(dhcpserver.o)
                                                  c:/Espressif/ESP8266_SDK/lib\liblwip.a(dhcp.o)
ip_addr_broadcast                                 c:/Espressif/ESP8266_SDK/lib\liblwip.a(ip_addr.o)
                                                  c:/Espressif/ESP8266_SDK/lib\liblwip.a(dhcp.o)
ip_input                                          c:/Espressif/ESP8266_SDK/lib\liblwip.a(ip.o)
                                                  c:/Espressif/ESP8266_SDK/lib\liblwip.a(etharp.o)
ip_output                                         c:/Espressif/ESP8266_SDK/lib\liblwip.a(ip.o)
                                                  c:/Espressif/ESP8266_SDK/lib\liblwip.a(icmp.o)
                                                  c:/Espressif/ESP8266_SDK/lib\liblwip.a(tcp_out.o)
ip_output_if                                      c:/Espressif/ESP8266_SDK/lib\liblwip.a(ip.o)
                                                  c:/Espressif/ESP8266_SDK/lib\liblwip.a(icmp.o)
                                                  c:/Espressif/ESP8266_SDK/lib\liblwip.a(udp.o)
                                                  c:/Espressif/ESP8266_SDK/lib\liblwip.a(raw.o)
ip_output_if_opt                                  c:/Espressif/ESP8266_SDK/lib\liblwip.a(ip.o)
                                                  c:/Espressif/ESP8266_SDK/lib\liblwip.a(igmp.o)
ip_route                                          c:/Espressif/ESP8266_SDK/lib\liblwip.a(ip.o)
                                                  c:/Espressif/ESP8266_SDK/lib\liblwip.a(udp.o)
                                                  c:/Espressif/ESP8266_SDK/lib\liblwip.a(tcp_out.o)
                                                  c:/Espressif/ESP8266_SDK/lib\liblwip.a(tcp.o)
                                                  c:/Espressif/ESP8266_SDK/lib\liblwip.a(raw.o)
ip_router                                         c:/Espressif/ESP8266_SDK/lib\liblwip.a(ip.o)
ipaddr_addr                                       c:/Espressif/ESP8266_SDK/lib\liblwip.a(ip_addr.o)
                                                  c:/Espressif/ESP8266_SDK/lib\liblwip.a(dns.o)
ipaddr_aton                                       c:/Espressif/ESP8266_SDK/lib\liblwip.a(ip_addr.o)
ipaddr_ntoa                                       c:/Espressif/ESP8266_SDK/lib\liblwip.a(ip_addr.o)
ipaddr_ntoa_r                                     c:/Espressif/ESP8266_SDK/lib\liblwip.a(ip_addr.o)
kill_ssl_session                                  c:/Espressif/ESP8266_SDK/lib\libssl.a(ssl_tls1.o)
lldesc_build_chain                                c:/Espressif/ESP8266_SDK/lib\libpp.a(wdev.o)
lldesc_num2link                                   c:/Espressif/ESP8266_SDK/lib\libpp.a(pp.o)
lmacConfMib                                       c:/Espressif/ESP8266_SDK/lib\libpp.a(lmac.o)
                                                  c:/Espressif/ESP8266_SDK/lib\libpp.a(trc.o)
lmacDiscardAgedMSDU                               c:/Espressif/ESP8266_SDK/lib\libpp.a(lmac.o)
                                                  c:/Espressif/ESP8266_SDK/lib\libpp.a(pp.o)
lmacInit                                          c:/Espressif/ESP8266_SDK/lib\libpp.a(lmac.o)
                                                  c:/Espressif/ESP8266_SDK/lib\libmain.a(app_main.o)
lmacInitAc                                        c:/Espressif/ESP8266_SDK/lib\libpp.a(lmac.o)
lmacIsActive                                      c:/Espressif/ESP8266_SDK/lib\libpp.a(lmac.o)
lmacIsIdle                                        c:/Espressif/ESP8266_SDK/lib\libpp.a(lmac.o)
                                                  c:/Espressif/ESP8266_SDK/lib\libpp.a(pp.o)
lmacMSDUAged                                      c:/Espressif/ESP8266_SDK/lib\libpp.a(lmac.o)
                                                  c:/Espressif/ESP8266_SDK/lib\libpp.a(pp.o)
lmacProcessAckTimeout                             c:/Espressif/ESP8266_SDK/lib\libpp.a(lmac.o)
                                                  c:/Espressif/ESP8266_SDK/lib\libpp.a(wdev.o)
lmacProcessAllTxTimeout                           c:/Espressif/ESP8266_SDK/lib\libpp.a(lmac.o)
                                                  c:/Espressif/ESP8266_SDK/lib\libpp.a(wdev.o)
lmacProcessCollision                              c:/Espressif/ESP8266_SDK/lib\libpp.a(lmac.o)
lmacProcessCollisions                             c:/Espressif/ESP8266_SDK/lib\libpp.a(lmac.o)
                                                  c:/Espressif/ESP8266_SDK/lib\libpp.a(wdev.o)
lmacProcessCtsTimeout                             c:/Espressif/ESP8266_SDK/lib\libpp.a(lmac.o)
                                                  c:/Espressif/ESP8266_SDK/lib\libpp.a(wdev.o)
lmacProcessRtsStart                               c:/Espressif/ESP8266_SDK/lib\libpp.a(lmac.o)
                                                  c:/Espressif/ESP8266_SDK/lib\libpp.a(wdev.o)
lmacProcessTXStartData                            c:/Espressif/ESP8266_SDK/lib\libpp.a(lmac.o)
                                                  c:/Espressif/ESP8266_SDK/lib\libpp.a(wdev.o)
lmacProcessTxError                                c:/Espressif/ESP8266_SDK/lib\libpp.a(lmac.o)
                                                  c:/Espressif/ESP8266_SDK/lib\libpp.a(wdev.o)
lmacProcessTxRtsError                             c:/Espressif/ESP8266_SDK/lib\libpp.a(lmac.o)
                                                  c:/Espressif/ESP8266_SDK/lib\libpp.a(wdev.o)
lmacProcessTxSuccess                              c:/Espressif/ESP8266_SDK/lib\libpp.a(lmac.o)
                                                  c:/Espressif/ESP8266_SDK/lib\libpp.a(wdev.o)
lmacProcessTxTimeout                              c:/Espressif/ESP8266_SDK/lib\libpp.a(lmac.o)
                                                  c:/Espressif/ESP8266_SDK/lib\libpp.a(pp.o)
lmacRecycleMPDU                                   c:/Espressif/ESP8266_SDK/lib\libpp.a(lmac.o)
lmacRxDone                                        c:/Espressif/ESP8266_SDK/lib\libpp.a(lmac.o)
                                                  c:/Espressif/ESP8266_SDK/lib\libpp.a(wdev.o)
lmacSetAcParam                                    c:/Espressif/ESP8266_SDK/lib\libpp.a(lmac.o)
lmacSetRetryLimit                                 c:/Espressif/ESP8266_SDK/lib\libpp.a(lmac.o)
lmacTxFrame                                       c:/Espressif/ESP8266_SDK/lib\libpp.a(lmac.o)
                                                  c:/Espressif/ESP8266_SDK/lib\libpp.a(pp.o)
load_key_certs                                    c:/Espressif/ESP8266_SDK/lib\libssl.a(ssl_loader.o)
                                                  c:/Espressif/ESP8266_SDK/lib\libssl.a(ssl_tls1.o)
low_power_set                                     c:/Espressif/ESP8266_SDK/lib\libphy.a(phy_chip_v6_ana.o)
                                                  c:/Espressif/ESP8266_SDK/lib\libphy.a(phy_chip_v6.o)
lslp_mem_opt_8266                                 c:/Espressif/ESP8266_SDK/lib\libphy.a(phy_sleep.o)
lwip_init                                         c:/Espressif/ESP8266_SDK/lib\liblwip.a(init.o)
                                                  c:/Espressif/ESP8266_SDK/lib\libmain.a(app_main.o)
lwip_timer_interval                               c:/Espressif/ESP8266_SDK/lib\libmain.a(app_main.o)
                                                  c:/Espressif/ESP8266_SDK/lib\libpp.a(pm.o)
meas_tone_pwr_db                                  c:/Espressif/ESP8266_SDK/lib\libphy.a(phy_chip_v6_cal.o)
memchr                                            c:/espressif/xtensa-lx106-elf/bin/../lib/gcc/xtensa-lx106-elf/5.2.0/../../../../xtensa-lx106-elf/lib\libc.a(lib_a-memchr.o)
                                                  c:/Espressif/ESP8266_SDK/lib\liblwip.a(espconn_buf.o)
memcmp                                            c:/espressif/xtensa-lx106-elf/bin/../lib/gcc/xtensa-lx106-elf/5.2.0/../../../../xtensa-lx106-elf/lib\libc.a(lib_a-memcmp.o)
                                                  c:/Espressif/ESP8266_SDK/lib\libssl.a(ssl_tls1.o)
memcpy                                            c:/espressif/xtensa-lx106-elf/bin/../lib/gcc/xtensa-lx106-elf/5.2.0/../../../../xtensa-lx106-elf/lib\libc.a(lib_a-memcpy.o)
                                                  c:/Espressif/ESP8266_SDK/lib\libssl.a(ssl_sha1.o)
                                                  c:/Espressif/ESP8266_SDK/lib\libssl.a(ssl_asn1.o)
                                                  c:/Espressif/ESP8266_SDK/lib\libssl.a(ssl_tls1.o)
                                                  build/app_app.a(wifi_connector.o)
memp_sizes                                        c:/Espressif/ESP8266_SDK/lib\liblwip.a(memp.o)
                                                  c:/Espressif/ESP8266_SDK/lib\liblwip.a(udp.o)
                                                  c:/Espressif/ESP8266_SDK/lib\liblwip.a(timers.o)
                                                  c:/Espressif/ESP8266_SDK/lib\liblwip.a(tcp_out.o)
                                                  c:/Espressif/ESP8266_SDK/lib\liblwip.a(tcp.o)
                                                  c:/Espressif/ESP8266_SDK/lib\liblwip.a(raw.o)
                                                  c:/Espressif/ESP8266_SDK/lib\liblwip.a(pbuf.o)
                                                  c:/Espressif/ESP8266_SDK/lib\liblwip.a(igmp.o)
                                                  c:/Espressif/ESP8266_SDK/lib\liblwip.a(etharp.o)
memp_sizes_test                                   c:/Espressif/ESP8266_SDK/lib\liblwip.a(memp.o)
micros                                            c:/Espressif/ESP8266_SDK/lib\libmain.a(time.o)
millis                                            c:/Espressif/ESP8266_SDK/lib\libmain.a(time.o)
netif_add                                         c:/Espressif/ESP8266_SDK/lib\liblwip.a(netif.o)
                                                  c:/Espressif/ESP8266_SDK/lib\libmain.a(eagle_lwip_if.o)
netif_default                                     c:/Espressif/ESP8266_SDK/lib\liblwip.a(netif.o)
                                                  c:/Espressif/ESP8266_SDK/lib\liblwip.a(ip.o)
                                                  c:/Espressif/ESP8266_SDK/lib\libmain.a(user_interface.o)
netif_find                                        c:/Espressif/ESP8266_SDK/lib\liblwip.a(netif.o)
netif_init                                        c:/Espressif/ESP8266_SDK/lib\liblwip.a(netif.o)
                                                  c:/Espressif/ESP8266_SDK/lib\liblwip.a(init.o)
netif_list                                        c:/Espressif/ESP8266_SDK/lib\liblwip.a(netif.o)
                                                  c:/Espressif/ESP8266_SDK/lib\liblwip.a(ip.o)
                                                  c:/Espressif/ESP8266_SDK/lib\liblwip.a(igmp.o)
                                                  c:/Espressif/ESP8266_SDK/lib\liblwip.a(dhcp.o)
netif_remove                                      c:/Espressif/ESP8266_SDK/lib\liblwip.a(netif.o)
                                                  c:/Espressif/ESP8266_SDK/lib\libmain.a(eagle_lwip_if.o)
netif_set_addr                                    c:/Espressif/ESP8266_SDK/lib\liblwip.a(netif.o)
                                                  c:/Espressif/ESP8266_SDK/lib\libwpa.a(wpa_main.o)
                                                  c:/Espressif/ESP8266_SDK/lib\libmain.a(eagle_lwip_if.o)
                                                  c:/Espressif/ESP8266_SDK/lib\libmain.a(user_interface.o)
netif_set_default                                 c:/Espressif/ESP8266_SDK/lib\liblwip.a(netif.o)
                                                  c:/Espressif/ESP8266_SDK/lib\liblwip.a(espconn_udp.o)
                                                  c:/Espressif/ESP8266_SDK/lib\libnet80211.a(ieee80211_hostap.o)
                                                  c:/Espressif/ESP8266_SDK/lib\libmain.a(user_interface.o)
                                                  c:/Espressif/ESP8266_SDK/lib\libmain.a(app_main.o)
netif_set_down                                    c:/Espressif/ESP8266_SDK/lib\liblwip.a(netif.o)
                                                  c:/Espressif/ESP8266_SDK/lib\liblwip.a(dhcp.o)
                                                  c:/Espressif/ESP8266_SDK/lib\libnet80211.a(wl_cnx.o)
                                                  c:/Espressif/ESP8266_SDK/lib\libnet80211.a(ieee80211_hostap.o)
netif_set_gw                                      c:/Espressif/ESP8266_SDK/lib\liblwip.a(netif.o)
                                                  c:/Espressif/ESP8266_SDK/lib\liblwip.a(dhcp.o)
netif_set_ipaddr                                  c:/Espressif/ESP8266_SDK/lib\liblwip.a(netif.o)
                                                  c:/Espressif/ESP8266_SDK/lib\liblwip.a(dhcp.o)
netif_set_link_down                               c:/Espressif/ESP8266_SDK/lib\liblwip.a(netif.o)
netif_set_link_up                                 c:/Espressif/ESP8266_SDK/lib\liblwip.a(netif.o)
netif_set_netmask                                 c:/Espressif/ESP8266_SDK/lib\liblwip.a(netif.o)
                                                  c:/Espressif/ESP8266_SDK/lib\liblwip.a(dhcp.o)
netif_set_up                                      c:/Espressif/ESP8266_SDK/lib\liblwip.a(netif.o)
                                                  c:/Espressif/ESP8266_SDK/lib\libwpa.a(wpa_main.o)
                                                  c:/Espressif/ESP8266_SDK/lib\liblwip.a(dhcp.o)
                                                  c:/Espressif/ESP8266_SDK/lib\libnet80211.a(ieee80211_hostap.o)
no_ap_found_index                                 c:/Espressif/ESP8266_SDK/lib\libnet80211.a(wl_cnx.o)
                                                  c:/Espressif/ESP8266_SDK/lib\libwpa.a(wpa_main.o)
                                                  c:/Espressif/ESP8266_SDK/lib\libmain.a(user_interface.o)
node_insert_to_list                               c:/Espressif/ESP8266_SDK/lib\liblwip.a(dhcpserver.o)
node_remove_from_list                             c:/Espressif/ESP8266_SDK/lib\liblwip.a(dhcpserver.o)
noise_array                                       c:/Espressif/ESP8266_SDK/lib\libphy.a(phy_chip_v6.o)
noise_check_loop                                  c:/Espressif/ESP8266_SDK/lib\libphy.a(phy_chip_v6.o)
                                                  c:/Espressif/ESP8266_SDK/lib\libnet80211.a(ieee80211_hostap.o)
                                                  c:/Espressif/ESP8266_SDK/lib\libpp.a(pp.o)
                                                  c:/Espressif/ESP8266_SDK/lib\libpp.a(pm_for_bcn_only_mode.o)
                                                  c:/Espressif/ESP8266_SDK/lib\libpp.a(pm.o)
                                                  c:/Espressif/ESP8266_SDK/lib\libphy.a(phy_sleep.o)
noise_init                                        c:/Espressif/ESP8266_SDK/lib\libphy.a(phy_chip_v6.o)
operator delete(void*)                            build/app_app.a(cpp_req.o)
operator delete[](void*)                          build/app_app.a(cpp_req.o)
operator new(unsigned int)                        build/app_app.a(cpp_req.o)
operator new[](unsigned int)                      build/app_app.a(cpp_req.o)
os_get_random                                     c:/Espressif/ESP8266_SDK/lib\libwpa.a(os_xtensa.o)
                                                  c:/Espressif/ESP8266_SDK/lib\libssl.a(ssl_crypto_misc.o)
                                                  c:/Espressif/ESP8266_SDK/lib\libwpa.a(wpa.o)
                                                  c:/Espressif/ESP8266_SDK/lib\libwpa.a(wpa_auth.o)
os_get_time                                       c:/Espressif/ESP8266_SDK/lib\libwpa.a(os_xtensa.o)
                                                  c:/Espressif/ESP8266_SDK/lib\libwpa.a(common.o)
os_printf_plus                                    c:/Espressif/ESP8266_SDK/lib\libmain.a(user_interface.o)
                                                  c:/Espressif/ESP8266_SDK/lib\libssl.a(ssl_asn1.o)
                                                  c:/Espressif/ESP8266_SDK/lib\libssl.a(ssl_x509.o)
                                                  c:/Espressif/ESP8266_SDK/lib\libssl.a(ssl_tls1.o)
                                                  c:/Espressif/ESP8266_SDK/lib\libssl.a(ssl_loader.o)
                                                  c:/Espressif/ESP8266_SDK/lib\libssl.a(espconn_ssl.o)
                                                  c:/Espressif/ESP8266_SDK/lib\libwpa.a(wpa_main.o)
                                                  c:/Espressif/ESP8266_SDK/lib\liblwip.a(espconn_buf.o)
                                                  c:/Espressif/ESP8266_SDK/lib\liblwip.a(sntp.o)
                                                  c:/Espressif/ESP8266_SDK/lib\liblwip.a(ip.o)
                                                  c:/Espressif/ESP8266_SDK/lib\liblwip.a(espconn_tcp.o)
                                                  c:/Espressif/ESP8266_SDK/lib\liblwip.a(dhcpserver.o)
                                                  c:/Espressif/ESP8266_SDK/lib\liblwip.a(dhcp.o)
                                                  c:/Espressif/ESP8266_SDK/lib\libnet80211.a(ieee80211_action_vendor.o)
                                                  c:/Espressif/ESP8266_SDK/lib\libnet80211.a(wl_cnx.o)
                                                  c:/Espressif/ESP8266_SDK/lib\libnet80211.a(ieee80211_sta.o)
                                                  c:/Espressif/ESP8266_SDK/lib\libnet80211.a(ieee80211_scan.o)
                                                  c:/Espressif/ESP8266_SDK/lib\libnet80211.a(ieee80211_regdomain.o)
                                                  c:/Espressif/ESP8266_SDK/lib\libnet80211.a(ieee80211_output.o)
                                                  c:/Espressif/ESP8266_SDK/lib\libnet80211.a(ieee80211_mesh_quick.o)
                                                  c:/Espressif/ESP8266_SDK/lib\libnet80211.a(ieee80211_ht.o)
                                                  c:/Espressif/ESP8266_SDK/lib\libnet80211.a(ieee80211_hostap.o)
                                                  c:/Espressif/ESP8266_SDK/lib\libnet80211.a(ieee80211.o)
                                                  c:/Espressif/ESP8266_SDK/lib\libpp.a(trc.o)
                                                  c:/Espressif/ESP8266_SDK/lib\libpp.a(pp.o)
                                                  c:/Espressif/ESP8266_SDK/lib\libpp.a(pm_for_bcn_only_mode.o)
                                                  c:/Espressif/ESP8266_SDK/lib\libpp.a(pm.o)
                                                  c:/Espressif/ESP8266_SDK/lib\libpp.a(lmac.o)
                                                  c:/Espressif/ESP8266_SDK/lib\libpp.a(if_hwctrl.o)
                                                  c:/Espressif/ESP8266_SDK/lib\libphy.a(phy_chip_v6_cal.o)
                                                  c:/Espressif/ESP8266_SDK/lib\libphy.a(phy_chip_v6.o)
                                                  c:/Espressif/ESP8266_SDK/lib\libphy.a(phy_chip_v6_ana.o)
                                                  build/app_app.a(uartproto.o)
                                                  build/app_app.a(userconfig.o)
                                                  build/app_app.a(wifi_connector.o)
                                                  build/app_app.a(user_main.o)
                                                  c:/Espressif/ESP8266_SDK/lib\libmain.a(eagle_lwip_if.o)
                                                  c:/Espressif/ESP8266_SDK/lib\libmain.a(spi_flash.o)
                                                  c:/Espressif/ESP8266_SDK/lib\libmain.a(ets_timer.o)
                                                  c:/Espressif/ESP8266_SDK/lib\libmain.a(app_main.o)
os_random                                         c:/Espressif/ESP8266_SDK/lib\libwpa.a(os_xtensa.o)
                                                  c:/Espressif/ESP8266_SDK/lib\liblwip.a(tcp.o)
                                                  c:/Espressif/ESP8266_SDK/lib\liblwip.a(espconn.o)
                                                  c:/Espressif/ESP8266_SDK/lib\liblwip.a(dns.o)
our_tx_eb                                         c:/Espressif/ESP8266_SDK/lib\libpp.a(lmac.o)
                                                  c:/Espressif/ESP8266_SDK/lib\libpp.a(wdev.o)
pbkdf2_sha1                                       c:/Espressif/ESP8266_SDK/lib\libwpa.a(wpa.o)
                                                  c:/Espressif/ESP8266_SDK/lib\libmain.a(user_interface.o)
pbuf_alloc                                        c:/Espressif/ESP8266_SDK/lib\liblwip.a(pbuf.o)
                                                  c:/Espressif/ESP8266_SDK/lib\libwpa.a(wpas_glue.o)
                                                  c:/Espressif/ESP8266_SDK/lib\libwpa.a(wpa_auth.o)
                                                  c:/Espressif/ESP8266_SDK/lib\liblwip.a(icmp.o)
                                                  c:/Espressif/ESP8266_SDK/lib\liblwip.a(udp.o)
                                                  c:/Espressif/ESP8266_SDK/lib\liblwip.a(tcp_out.o)
                                                  c:/Espressif/ESP8266_SDK/lib\liblwip.a(sntp.o)
                                                  c:/Espressif/ESP8266_SDK/lib\liblwip.a(raw.o)
                                                  c:/Espressif/ESP8266_SDK/lib\liblwip.a(igmp.o)
                                                  c:/Espressif/ESP8266_SDK/lib\liblwip.a(etharp.o)
                                                  c:/Espressif/ESP8266_SDK/lib\liblwip.a(espconn_udp.o)
                                                  c:/Espressif/ESP8266_SDK/lib\liblwip.a(dns.o)
                                                  c:/Espressif/ESP8266_SDK/lib\liblwip.a(dhcpserver.o)
                                                  c:/Espressif/ESP8266_SDK/lib\liblwip.a(dhcp.o)
                                                  c:/Espressif/ESP8266_SDK/lib\libnet80211.a(ieee80211_input.o)
                                                  c:/Espressif/ESP8266_SDK/lib\libnet80211.a(ieee80211_hostap.o)
pbuf_cat                                          c:/Espressif/ESP8266_SDK/lib\liblwip.a(pbuf.o)
                                                  c:/Espressif/ESP8266_SDK/lib\liblwip.a(tcp_out.o)
                                                  c:/Espressif/ESP8266_SDK/lib\liblwip.a(tcp_in.o)
pbuf_chain                                        c:/Espressif/ESP8266_SDK/lib\liblwip.a(pbuf.o)
                                                  c:/Espressif/ESP8266_SDK/lib\liblwip.a(udp.o)
                                                  c:/Espressif/ESP8266_SDK/lib\liblwip.a(raw.o)
pbuf_clen                                         c:/Espressif/ESP8266_SDK/lib\liblwip.a(pbuf.o)
                                                  c:/Espressif/ESP8266_SDK/lib\liblwip.a(tcp_out.o)
                                                  c:/Espressif/ESP8266_SDK/lib\liblwip.a(tcp_in.o)
pbuf_coalesce                                     c:/Espressif/ESP8266_SDK/lib\liblwip.a(pbuf.o)
pbuf_copy                                         c:/Espressif/ESP8266_SDK/lib\liblwip.a(pbuf.o)
                                                  c:/Espressif/ESP8266_SDK/lib\liblwip.a(icmp.o)
                                                  c:/Espressif/ESP8266_SDK/lib\liblwip.a(etharp.o)
                                                  c:/Espressif/ESP8266_SDK/lib\liblwip.a(espconn_udp.o)
pbuf_copy_partial                                 c:/Espressif/ESP8266_SDK/lib\liblwip.a(pbuf.o)
                                                  c:/Espressif/ESP8266_SDK/lib\liblwip.a(tcp_out.o)
                                                  c:/Espressif/ESP8266_SDK/lib\liblwip.a(sntp.o)
                                                  c:/Espressif/ESP8266_SDK/lib\liblwip.a(espconn_udp.o)
                                                  c:/Espressif/ESP8266_SDK/lib\liblwip.a(espconn_tcp.o)
                                                  c:/Espressif/ESP8266_SDK/lib\liblwip.a(dns.o)
                                                  c:/Espressif/ESP8266_SDK/lib\liblwip.a(dhcp.o)
pbuf_dechain                                      c:/Espressif/ESP8266_SDK/lib\liblwip.a(pbuf.o)
pbuf_free                                         c:/Espressif/ESP8266_SDK/lib\liblwip.a(pbuf.o)
                                                  c:/Espressif/ESP8266_SDK/lib\libssl.a(espconn_ssl.o)
                                                  c:/Espressif/ESP8266_SDK/lib\liblwip.a(icmp.o)
                                                  c:/Espressif/ESP8266_SDK/lib\liblwip.a(udp.o)
                                                  c:/Espressif/ESP8266_SDK/lib\liblwip.a(tcp_out.o)
                                                  c:/Espressif/ESP8266_SDK/lib\liblwip.a(tcp.o)
                                                  c:/Espressif/ESP8266_SDK/lib\liblwip.a(tcp_in.o)
                                                  c:/Espressif/ESP8266_SDK/lib\liblwip.a(sntp.o)
                                                  c:/Espressif/ESP8266_SDK/lib\liblwip.a(raw.o)
                                                  c:/Espressif/ESP8266_SDK/lib\liblwip.a(ip.o)
                                                  c:/Espressif/ESP8266_SDK/lib\liblwip.a(igmp.o)
                                                  c:/Espressif/ESP8266_SDK/lib\liblwip.a(etharp.o)
                                                  c:/Espressif/ESP8266_SDK/lib\liblwip.a(espconn_udp.o)
                                                  c:/Espressif/ESP8266_SDK/lib\liblwip.a(espconn_tcp.o)
                                                  c:/Espressif/ESP8266_SDK/lib\liblwip.a(dns.o)
                                                  c:/Espressif/ESP8266_SDK/lib\liblwip.a(dhcpserver.o)
                                                  c:/Espressif/ESP8266_SDK/lib\liblwip.a(dhcp.o)
                                                  c:/Espressif/ESP8266_SDK/lib\libnet80211.a(ieee80211_power.o)
                                                  c:/Espressif/ESP8266_SDK/lib\libnet80211.a(ieee80211_output.o)
                                                  c:/Espressif/ESP8266_SDK/lib\libnet80211.a(ieee80211_hostap.o)
                                                  c:/Espressif/ESP8266_SDK/lib\libpp.a(pp.o)
                                                  c:/Espressif/ESP8266_SDK/lib\libmain.a(eagle_lwip_if.o)
pbuf_free_ooseq_new                               c:/Espressif/ESP8266_SDK/lib\liblwip.a(pbuf.o)
                                                  c:/Espressif/ESP8266_SDK/lib\liblwip.a(tcp_in.o)
pbuf_get_at                                       c:/Espressif/ESP8266_SDK/lib\liblwip.a(pbuf.o)
pbuf_header                                       c:/Espressif/ESP8266_SDK/lib\liblwip.a(pbuf.o)
                                                  c:/Espressif/ESP8266_SDK/lib\liblwip.a(icmp.o)
                                                  c:/Espressif/ESP8266_SDK/lib\liblwip.a(udp.o)
                                                  c:/Espressif/ESP8266_SDK/lib\liblwip.a(tcp_out.o)
                                                  c:/Espressif/ESP8266_SDK/lib\liblwip.a(tcp_in.o)
                                                  c:/Espressif/ESP8266_SDK/lib\liblwip.a(raw.o)
                                                  c:/Espressif/ESP8266_SDK/lib\liblwip.a(ip.o)
                                                  c:/Espressif/ESP8266_SDK/lib\liblwip.a(igmp.o)
                                                  c:/Espressif/ESP8266_SDK/lib\liblwip.a(etharp.o)
pbuf_memcmp                                       c:/Espressif/ESP8266_SDK/lib\liblwip.a(pbuf.o)
pbuf_memfind                                      c:/Espressif/ESP8266_SDK/lib\liblwip.a(pbuf.o)
pbuf_realloc                                      c:/Espressif/ESP8266_SDK/lib\liblwip.a(pbuf.o)
                                                  c:/Espressif/ESP8266_SDK/lib\liblwip.a(tcp_in.o)
                                                  c:/Espressif/ESP8266_SDK/lib\liblwip.a(ip.o)
                                                  c:/Espressif/ESP8266_SDK/lib\liblwip.a(dns.o)
                                                  c:/Espressif/ESP8266_SDK/lib\liblwip.a(dhcp.o)
pbuf_ref                                          c:/Espressif/ESP8266_SDK/lib\liblwip.a(pbuf.o)
                                                  c:/Espressif/ESP8266_SDK/lib\liblwip.a(tcp.o)
                                                  c:/Espressif/ESP8266_SDK/lib\liblwip.a(etharp.o)
                                                  c:/Espressif/ESP8266_SDK/lib\libnet80211.a(ieee80211_output.o)
pbuf_strstr                                       c:/Espressif/ESP8266_SDK/lib\liblwip.a(pbuf.o)
pbuf_take                                         c:/Espressif/ESP8266_SDK/lib\liblwip.a(pbuf.o)
pbus_set_rxbbgain                                 c:/Espressif/ESP8266_SDK/lib\libphy.a(phy_chip_v6.o)
pend_flag_noise_check                             c:/Espressif/ESP8266_SDK/lib\libpp.a(pp.o)
                                                  c:/Espressif/ESP8266_SDK/lib\libpp.a(pm_for_bcn_only_mode.o)
                                                  c:/Espressif/ESP8266_SDK/lib\libpp.a(pm.o)
pend_flag_periodic_cal                            c:/Espressif/ESP8266_SDK/lib\libpp.a(pp.o)
                                                  c:/Espressif/ESP8266_SDK/lib\libpp.a(pm_for_bcn_only_mode.o)
                                                  c:/Espressif/ESP8266_SDK/lib\libpp.a(pm.o)
periodic_cal                                      c:/Espressif/ESP8266_SDK/lib\libphy.a(phy_chip_v6.o)
                                                  c:/Espressif/ESP8266_SDK/lib\libphy.a(phy_sleep.o)
periodic_cal_flag                                 c:/Espressif/ESP8266_SDK/lib\libphy.a(phy_chip_v6.o)
                                                  c:/Espressif/ESP8266_SDK/lib\libphy.a(phy_sleep.o)
periodic_cal_sat                                  c:/Espressif/ESP8266_SDK/lib\libphy.a(phy_sleep.o)
periodic_cal_top                                  c:/Espressif/ESP8266_SDK/lib\libphy.a(phy_chip_v6.o)
                                                  c:/Espressif/ESP8266_SDK/lib\libnet80211.a(ieee80211_hostap.o)
                                                  c:/Espressif/ESP8266_SDK/lib\libpp.a(pp.o)
                                                  c:/Espressif/ESP8266_SDK/lib\libpp.a(pm_for_bcn_only_mode.o)
                                                  c:/Espressif/ESP8266_SDK/lib\libpp.a(pm.o)
                                                  c:/Espressif/ESP8266_SDK/lib\libphy.a(phy_chip_v6_cal.o)
pfile_param                                       c:/Espressif/ESP8266_SDK/lib\libssl.a(espconn_ssl.o)
                                                  c:/Espressif/ESP8266_SDK/lib\libssl.a(ssl_crypto_misc.o)
phy_adc_read_fast                                 c:/Espressif/ESP8266_SDK/lib\libphy.a(phy_chip_v6_ana.o)
                                                  c:/Espressif/ESP8266_SDK/lib\libmain.a(user_interface.o)
phy_after_init_enrx                               c:/Espressif/ESP8266_SDK/lib\libphy.a(phy_chip_v6.o)
                                                  c:/Espressif/ESP8266_SDK/lib\libphy.a(phy_chip_v6_ana.o)
phy_afterwake_set_rfoption                        c:/Espressif/ESP8266_SDK/lib\libphy.a(phy_chip_v6.o)
                                                  c:/Espressif/ESP8266_SDK/lib\libmain.a(user_interface.o)
                                                  c:/Espressif/ESP8266_SDK/lib\libmain.a(app_main.o)
phy_bb_rx_cfg                                     c:/Espressif/ESP8266_SDK/lib\libphy.a(phy_chip_v6.o)
phy_change_channel                                c:/Espressif/ESP8266_SDK/lib\libphy.a(phy.o)
                                                  c:/Espressif/ESP8266_SDK/lib\libnet80211.a(wl_chm.o)
phy_check_data_table                              c:/Espressif/ESP8266_SDK/lib\libphy.a(phy_chip_v6.o)
                                                  c:/Espressif/ESP8266_SDK/lib\libmain.a(app_main.o)
phy_debug_print                                   c:/Espressif/ESP8266_SDK/lib\libphy.a(phy_chip_v6.o)
phy_delete_channel                                c:/Espressif/ESP8266_SDK/lib\libphy.a(phy.o)
phy_dig_spur_prot                                 c:/Espressif/ESP8266_SDK/lib\libphy.a(phy_chip_v6.o)
                                                  c:/Espressif/ESP8266_SDK/lib\libphy.a(phy_chip_v6_ana.o)
phy_dig_spur_set                                  c:/Espressif/ESP8266_SDK/lib\libphy.a(phy_chip_v6.o)
                                                  c:/Espressif/ESP8266_SDK/lib\libphy.a(phy_chip_v6_ana.o)
phy_disable_agc                                   c:/Espressif/ESP8266_SDK/lib\libphy.a(phy.o)
                                                  c:/Espressif/ESP8266_SDK/lib\libmain.a(app_main.o)
phy_enable_agc                                    c:/Espressif/ESP8266_SDK/lib\libphy.a(phy.o)
                                                  c:/Espressif/ESP8266_SDK/lib\libmain.a(app_main.o)
phy_freq_offset                                   c:/Espressif/ESP8266_SDK/lib\libphy.a(phy_chip_v6.o)
                                                  c:/Espressif/ESP8266_SDK/lib\libphy.a(phy_chip_v6_ana.o)
phy_get_bb_evm                                    c:/Espressif/ESP8266_SDK/lib\libphy.a(phy_chip_v6_cal.o)
phy_get_bb_freqoffset                             c:/Espressif/ESP8266_SDK/lib\libphy.a(phy_chip_v6_cal.o)
                                                  c:/Espressif/ESP8266_SDK/lib\libpp.a(wdev.o)
phy_get_check_flag                                c:/Espressif/ESP8266_SDK/lib\libphy.a(phy_chip_v6_ana.o)
                                                  c:/Espressif/ESP8266_SDK/lib\libmain.a(user_interface.o)
phy_get_freq_param                                c:/Espressif/ESP8266_SDK/lib\libphy.a(phy_chip_v6.o)
phy_get_mactime                                   c:/Espressif/ESP8266_SDK/lib\libphy.a(phy.o)
phy_get_rand                                      c:/Espressif/ESP8266_SDK/lib\libphy.a(phy_chip_v6.o)
                                                  c:/Espressif/ESP8266_SDK/lib\libwpa.a(os_xtensa.o)
phy_get_romfuncs                                  c:/Espressif/ESP8266_SDK/lib\libphy.a(phy_chip_v6.o)
phy_get_rxnf_param                                c:/Espressif/ESP8266_SDK/lib\libphy.a(phy_chip_v6.o)
phy_get_txpwr_param                               c:/Espressif/ESP8266_SDK/lib\libphy.a(phy_chip_v6.o)
phy_get_vdd33                                     c:/Espressif/ESP8266_SDK/lib\libphy.a(phy_chip_v6_ana.o)
                                                  c:/Espressif/ESP8266_SDK/lib\libmain.a(user_interface.o)
phy_gpio_cfg                                      c:/Espressif/ESP8266_SDK/lib\libphy.a(phy_chip_v6.o)
phy_in_most_power                                 c:/Espressif/ESP8266_SDK/lib\libphy.a(phy_chip_v6.o)
phy_in_vdd33_offset                               c:/Espressif/ESP8266_SDK/lib\libphy.a(phy_chip_v6.o)
                                                  c:/Espressif/ESP8266_SDK/lib\libphy.a(phy_chip_v6_cal.o)
phy_init                                          c:/Espressif/ESP8266_SDK/lib\libphy.a(phy.o)
phy_initialize_bb                                 c:/Espressif/ESP8266_SDK/lib\libphy.a(phy.o)
phy_meas_freq_offset                              c:/Espressif/ESP8266_SDK/lib\libphy.a(phy_chip_v6_cal.o)
                                                  c:/Espressif/ESP8266_SDK/lib\libphy.a(phy_chip_v6.o)
phy_pbus_soc_cfg                                  c:/Espressif/ESP8266_SDK/lib\libphy.a(phy_chip_v6.o)
phy_rx_gain_dc_flag                               c:/Espressif/ESP8266_SDK/lib\libphy.a(phy_chip_v6.o)
                                                  c:/Espressif/ESP8266_SDK/lib\libpp.a(pm_for_bcn_only_mode.o)
                                                  c:/Espressif/ESP8266_SDK/lib\libpp.a(pm.o)
phy_rx_gain_dc_table                              c:/Espressif/ESP8266_SDK/lib\libphy.a(phy_chip_v6.o)
                                                  c:/Espressif/ESP8266_SDK/lib\libpp.a(pm_for_bcn_only_mode.o)
                                                  c:/Espressif/ESP8266_SDK/lib\libpp.a(pm.o)
                                                  c:/Espressif/ESP8266_SDK/lib\libmain.a(app_main.o)
phy_set_most_tpw                                  c:/Espressif/ESP8266_SDK/lib\libphy.a(phy_chip_v6.o)
                                                  c:/Espressif/ESP8266_SDK/lib\libmain.a(user_interface.o)
phy_set_most_tpw_disbg                            c:/Espressif/ESP8266_SDK/lib\libphy.a(phy_chip_v6.o)
                                                  c:/Espressif/ESP8266_SDK/lib\libphy.a(phy_chip_v6_cal.o)
phy_set_most_tpw_index                            c:/Espressif/ESP8266_SDK/lib\libphy.a(phy_chip_v6.o)
                                                  c:/Espressif/ESP8266_SDK/lib\libphy.a(phy_chip_v6_cal.o)
phy_set_powerup_option                            c:/Espressif/ESP8266_SDK/lib\libphy.a(phy_chip_v6.o)
                                                  c:/Espressif/ESP8266_SDK/lib\libmain.a(user_interface.o)
phy_set_rx11b_reg                                 c:/Espressif/ESP8266_SDK/lib\libphy.a(phy_chip_v6.o)
phy_set_sense                                     c:/Espressif/ESP8266_SDK/lib\libphy.a(phy.o)
phy_tx_power_out                                  c:/Espressif/ESP8266_SDK/lib\libphy.a(phy_chip_v6_cal.o)
phy_tx_pwctrl_cali                                c:/Espressif/ESP8266_SDK/lib\libphy.a(phy_chip_v6.o)
phy_tx_pwr_error                                  c:/Espressif/ESP8266_SDK/lib\libphy.a(phy_chip_v6_cal.o)
                                                  c:/Espressif/ESP8266_SDK/lib\libphy.a(phy_chip_v6.o)
phy_txpwr_diff_flash                              c:/Espressif/ESP8266_SDK/lib\libphy.a(phy_chip_v6.o)
phy_vdd33_set_tpw                                 c:/Espressif/ESP8266_SDK/lib\libphy.a(phy_chip_v6.o)
                                                  c:/Espressif/ESP8266_SDK/lib\libmain.a(user_interface.o)
phytype2mode                                      c:/Espressif/ESP8266_SDK/lib\libpp.a(trc.o)
pktinfo                                           c:/Espressif/ESP8266_SDK/lib\liblwip.a(espconn.o)
                                                  c:/Espressif/ESP8266_SDK/lib\liblwip.a(espconn_tcp.o)
plink_active                                      c:/Espressif/ESP8266_SDK/lib\liblwip.a(espconn.o)
                                                  c:/Espressif/ESP8266_SDK/lib\libssl.a(espconn_ssl.o)
                                                  c:/Espressif/ESP8266_SDK/lib\liblwip.a(espconn_udp.o)
                                                  c:/Espressif/ESP8266_SDK/lib\liblwip.a(espconn_tcp.o)
plink_server                                      c:/Espressif/ESP8266_SDK/lib\libssl.a(espconn_ssl.o)
pm_allow_tx                                       c:/Espressif/ESP8266_SDK/lib\libpp.a(pm.o)
                                                  c:/Espressif/ESP8266_SDK/lib\libpp.a(pp.o)
pm_assoc_parse                                    c:/Espressif/ESP8266_SDK/lib\libpp.a(pm.o)
                                                  c:/Espressif/ESP8266_SDK/lib\libpp.a(pp.o)
pm_attach                                         c:/Espressif/ESP8266_SDK/lib\libpp.a(pm.o)
                                                  c:/Espressif/ESP8266_SDK/lib\libmain.a(app_main.o)
pm_check_mac_idle                                 c:/Espressif/ESP8266_SDK/lib\libphy.a(phy_sleep.o)
pm_clear_gpio_wakeup_pin                          c:/Espressif/ESP8266_SDK/lib\libpp.a(pm.o)
                                                  c:/Espressif/ESP8266_SDK/lib\libmain.a(user_interface.o)
pm_enable_gpio_wakeup                             c:/Espressif/ESP8266_SDK/lib\libpp.a(pm.o)
                                                  c:/Espressif/ESP8266_SDK/lib\libpp.a(pp.o)
pm_force_scan_unlock                              c:/Espressif/ESP8266_SDK/lib\libpp.a(pm.o)
                                                  c:/Espressif/ESP8266_SDK/lib\libnet80211.a(ieee80211_scan.o)
                                                  c:/Espressif/ESP8266_SDK/lib\libpp.a(if_hwctrl.o)
pm_get_ck170_period                               c:/Espressif/ESP8266_SDK/lib\libpp.a(pm.o)
                                                  c:/Espressif/ESP8266_SDK/lib\libpp.a(pm_for_bcn_only_mode.o)
pm_get_idle_wait_time                             c:/Espressif/ESP8266_SDK/lib\libpp.a(pm.o)
pm_get_sleep_type                                 c:/Espressif/ESP8266_SDK/lib\libpp.a(pm.o)
                                                  c:/Espressif/ESP8266_SDK/lib\libmain.a(user_interface.o)
pm_goto_sleep                                     c:/Espressif/ESP8266_SDK/lib\libphy.a(phy_sleep.o)
                                                  c:/Espressif/ESP8266_SDK/lib\libpp.a(pm_for_bcn_only_mode.o)
                                                  c:/Espressif/ESP8266_SDK/lib\libpp.a(pm.o)
pm_idle_sleep                                     c:/Espressif/ESP8266_SDK/lib\libpp.a(pm.o)
pm_is_gpio_int_trig                               c:/Espressif/ESP8266_SDK/lib\libpp.a(pm.o)
pm_is_open                                        c:/Espressif/ESP8266_SDK/lib\libpp.a(pm.o)
                                                  c:/Espressif/ESP8266_SDK/lib\libnet80211.a(ieee80211_scan.o)
                                                  c:/Espressif/ESP8266_SDK/lib\libpp.a(pm_for_bcn_only_mode.o)
                                                  c:/Espressif/ESP8266_SDK/lib\libmain.a(user_interface.o)
pm_is_waked                                       c:/Espressif/ESP8266_SDK/lib\libpp.a(pm.o)
                                                  c:/Espressif/ESP8266_SDK/lib\libnet80211.a(ieee80211_scan.o)
                                                  c:/Espressif/ESP8266_SDK/lib\libpp.a(pp.o)
                                                  c:/Espressif/ESP8266_SDK/lib\libmain.a(user_interface.o)
pm_onBcnRx                                        c:/Espressif/ESP8266_SDK/lib\libpp.a(pm.o)
                                                  c:/Espressif/ESP8266_SDK/lib\libpp.a(pp.o)
pm_open                                           c:/Espressif/ESP8266_SDK/lib\libpp.a(pm.o)
                                                  c:/Espressif/ESP8266_SDK/lib\libpp.a(if_hwctrl.o)
pm_open_rf                                        c:/Espressif/ESP8266_SDK/lib\libphy.a(phy_sleep.o)
                                                  c:/Espressif/ESP8266_SDK/lib\libmain.a(user_interface.o)
pm_post                                           c:/Espressif/ESP8266_SDK/lib\libpp.a(pm.o)
                                                  c:/Espressif/ESP8266_SDK/lib\libnet80211.a(ieee80211_scan.o)
                                                  c:/Espressif/ESP8266_SDK/lib\libpp.a(pp.o)
                                                  c:/Espressif/ESP8266_SDK/lib\libmain.a(user_interface.o)
pm_prepare_to_sleep                               c:/Espressif/ESP8266_SDK/lib\libphy.a(phy_sleep.o)
pm_reset_idle_sleep                               c:/Espressif/ESP8266_SDK/lib\libpp.a(pm.o)
pm_rf_is_closed                                   c:/Espressif/ESP8266_SDK/lib\libpp.a(pm.o)
                                                  c:/Espressif/ESP8266_SDK/lib\libpp.a(pp.o)
pm_rtc2usec                                       c:/Espressif/ESP8266_SDK/lib\libphy.a(phy_sleep.o)
                                                  c:/Espressif/ESP8266_SDK/lib\libpp.a(pm_for_bcn_only_mode.o)
                                                  c:/Espressif/ESP8266_SDK/lib\libpp.a(pm.o)
pm_rtc_clock_cali                                 c:/Espressif/ESP8266_SDK/lib\libphy.a(phy_sleep.o)
                                                  c:/Espressif/ESP8266_SDK/lib\libpp.a(pm.o)
pm_rtc_clock_cali_proc                            c:/Espressif/ESP8266_SDK/lib\libpp.a(pm.o)
                                                  c:/Espressif/ESP8266_SDK/lib\libpp.a(pm_for_bcn_only_mode.o)
                                                  c:/Espressif/ESP8266_SDK/lib\libmain.a(user_interface.o)
pm_scan_lock                                      c:/Espressif/ESP8266_SDK/lib\libpp.a(pm.o)
                                                  c:/Espressif/ESP8266_SDK/lib\libnet80211.a(ieee80211_scan.o)
pm_scan_unlocked                                  c:/Espressif/ESP8266_SDK/lib\libpp.a(pm.o)
                                                  c:/Espressif/ESP8266_SDK/lib\libpp.a(pp.o)
pm_sdio_nidle                                     c:/Espressif/ESP8266_SDK/lib\libphy.a(phy_sleep.o)
pm_send_nullfunc                                  c:/Espressif/ESP8266_SDK/lib\libpp.a(pm.o)
pm_set_addr                                       c:/Espressif/ESP8266_SDK/lib\libpp.a(pm.o)
                                                  c:/Espressif/ESP8266_SDK/lib\libpp.a(pp.o)
pm_set_gpio_wakeup_pin                            c:/Espressif/ESP8266_SDK/lib\libpp.a(pm.o)
                                                  c:/Espressif/ESP8266_SDK/lib\libmain.a(user_interface.o)
pm_set_pll_xtal_wait_time                         c:/Espressif/ESP8266_SDK/lib\libphy.a(phy_sleep.o)
pm_set_sleep_btco                                 c:/Espressif/ESP8266_SDK/lib\libphy.a(phy_sleep.o)
pm_set_sleep_cycles                               c:/Espressif/ESP8266_SDK/lib\libphy.a(phy_sleep.o)
                                                  c:/Espressif/ESP8266_SDK/lib\libpp.a(pm_for_bcn_only_mode.o)
                                                  c:/Espressif/ESP8266_SDK/lib\libpp.a(pm.o)
                                                  c:/Espressif/ESP8266_SDK/lib\libphy.a(phy_chip_v6.o)
pm_set_sleep_mode                                 c:/Espressif/ESP8266_SDK/lib\libphy.a(phy_sleep.o)
                                                  c:/Espressif/ESP8266_SDK/lib\libpp.a(pm_for_bcn_only_mode.o)
                                                  c:/Espressif/ESP8266_SDK/lib\libpp.a(pm.o)
                                                  c:/Espressif/ESP8266_SDK/lib\libphy.a(phy_chip_v6.o)
                                                  c:/Espressif/ESP8266_SDK/lib\libphy.a(phy_chip_v6_ana.o)
pm_set_sleep_time                                 c:/Espressif/ESP8266_SDK/lib\libpp.a(pm.o)
                                                  c:/Espressif/ESP8266_SDK/lib\libmain.a(user_interface.o)
pm_set_sleep_type_from_upper                      c:/Espressif/ESP8266_SDK/lib\libpp.a(pm.o)
                                                  c:/Espressif/ESP8266_SDK/lib\libmain.a(user_interface.o)
pm_set_wakeup_btco                                c:/Espressif/ESP8266_SDK/lib\libphy.a(phy_sleep.o)
pm_set_wakeup_mac                                 c:/Espressif/ESP8266_SDK/lib\libphy.a(phy_sleep.o)
pm_shutdown                                       c:/Espressif/ESP8266_SDK/lib\libpp.a(pm.o)
                                                  c:/Espressif/ESP8266_SDK/lib\libpp.a(pm_for_bcn_only_mode.o)
                                                  c:/Espressif/ESP8266_SDK/lib\libpp.a(if_hwctrl.o)
pm_sleep_for                                      c:/Espressif/ESP8266_SDK/lib\libpp.a(pm.o)
                                                  c:/Espressif/ESP8266_SDK/lib\libpp.a(pp.o)
pm_sleep_opt                                      c:/Espressif/ESP8266_SDK/lib\libphy.a(phy_sleep.o)
pm_sleep_opt_bb_off                               c:/Espressif/ESP8266_SDK/lib\libphy.a(phy_sleep.o)
pm_sleep_opt_bb_on                                c:/Espressif/ESP8266_SDK/lib\libphy.a(phy_sleep.o)
pm_sleep_set_mac                                  c:/Espressif/ESP8266_SDK/lib\libphy.a(phy_sleep.o)
pm_suspend                                        c:/Espressif/ESP8266_SDK/lib\libpp.a(pm.o)
pm_try_scan_unlock                                c:/Espressif/ESP8266_SDK/lib\libpp.a(pm.o)
pm_unmask_bt                                      c:/Espressif/ESP8266_SDK/lib\libphy.a(phy_sleep.o)
pm_usec2rtc                                       c:/Espressif/ESP8266_SDK/lib\libphy.a(phy_sleep.o)
                                                  c:/Espressif/ESP8266_SDK/lib\libpp.a(pm_for_bcn_only_mode.o)
                                                  c:/Espressif/ESP8266_SDK/lib\libpp.a(pm.o)
pm_wait4wakeup                                    c:/Espressif/ESP8266_SDK/lib\libphy.a(phy_sleep.o)
                                                  c:/Espressif/ESP8266_SDK/lib\libpp.a(pm_for_bcn_only_mode.o)
                                                  c:/Espressif/ESP8266_SDK/lib\libpp.a(pm.o)
                                                  c:/Espressif/ESP8266_SDK/lib\libphy.a(phy_chip_v6.o)
pm_wakeup_init                                    c:/Espressif/ESP8266_SDK/lib\libphy.a(phy_sleep.o)
                                                  c:/Espressif/ESP8266_SDK/lib\libpp.a(pm_for_bcn_only_mode.o)
                                                  c:/Espressif/ESP8266_SDK/lib\libpp.a(pm.o)
                                                  c:/Espressif/ESP8266_SDK/lib\libphy.a(phy_chip_v6.o)
                                                  c:/Espressif/ESP8266_SDK/lib\libphy.a(phy_chip_v6_ana.o)
pm_wakeup_opt                                     c:/Espressif/ESP8266_SDK/lib\libphy.a(phy_sleep.o)
                                                  c:/Espressif/ESP8266_SDK/lib\libpp.a(pm_for_bcn_only_mode.o)
                                                  c:/Espressif/ESP8266_SDK/lib\libpp.a(pm.o)
                                                  c:/Espressif/ESP8266_SDK/lib\libphy.a(phy_chip_v6.o)
pmc                                               c:/Espressif/ESP8266_SDK/lib\libpp.a(pm.o)
ppCalFrameTimes                                   c:/Espressif/ESP8266_SDK/lib\libpp.a(pp.o)
                                                  c:/Espressif/ESP8266_SDK/lib\libpp.a(lmac.o)
ppCalTxop                                         c:/Espressif/ESP8266_SDK/lib\libpp.a(pp.o)
                                                  c:/Espressif/ESP8266_SDK/lib\libpp.a(lmac.o)
ppCheckTxIdle                                     c:/Espressif/ESP8266_SDK/lib\libpp.a(pp.o)
                                                  c:/Espressif/ESP8266_SDK/lib\libnet80211.a(ieee80211_scan.o)
                                                  c:/Espressif/ESP8266_SDK/lib\libpp.a(pm_for_bcn_only_mode.o)
                                                  c:/Espressif/ESP8266_SDK/lib\libpp.a(pm.o)
ppDequeueTxQ                                      c:/Espressif/ESP8266_SDK/lib\libpp.a(pp.o)
                                                  c:/Espressif/ESP8266_SDK/lib\libpp.a(lmac.o)
ppDiscardMPDU                                     c:/Espressif/ESP8266_SDK/lib\libpp.a(pp.o)
ppEnqueueRxq                                      c:/Espressif/ESP8266_SDK/lib\libpp.a(pp.o)
                                                  c:/Espressif/ESP8266_SDK/lib\libpp.a(lmac.o)
ppEnqueueTxDone                                   c:/Espressif/ESP8266_SDK/lib\libpp.a(pp.o)
                                                  c:/Espressif/ESP8266_SDK/lib\libpp.a(lmac.o)
ppFetchTxQFirstAvail                              c:/Espressif/ESP8266_SDK/lib\libpp.a(pp.o)
                                                  c:/Espressif/ESP8266_SDK/lib\libpp.a(lmac.o)
ppGetTxQFirstAvail_Locked                         c:/Espressif/ESP8266_SDK/lib\libpp.a(pp.o)
                                                  c:/Espressif/ESP8266_SDK/lib\libpp.a(lmac.o)
ppInstallKey                                      c:/Espressif/ESP8266_SDK/lib\libwpa.a(wpa_main.o)
                                                  c:/Espressif/ESP8266_SDK/lib\libnet80211.a(wl_cnx.o)
ppPeocessRxPktHdr                                 c:/Espressif/ESP8266_SDK/lib\libpp.a(pp.o)
ppProcessTxQ                                      c:/Espressif/ESP8266_SDK/lib\libpp.a(pp.o)
                                                  c:/Espressif/ESP8266_SDK/lib\libpp.a(lmac.o)
ppProcessWaitQ                                    c:/Espressif/ESP8266_SDK/lib\libpp.a(pp.o)
                                                  c:/Espressif/ESP8266_SDK/lib\libpp.a(pm_for_bcn_only_mode.o)
                                                  c:/Espressif/ESP8266_SDK/lib\libpp.a(pm.o)
ppRecordBarRRC                                    c:/Espressif/ESP8266_SDK/lib\libpp.a(pp.o)
                                                  c:/Espressif/ESP8266_SDK/lib\libpp.a(lmac.o)
ppRecycleRxPkt                                    c:/Espressif/ESP8266_SDK/lib\libpp.a(pp.o)
                                                  c:/Espressif/ESP8266_SDK/lib\libnet80211.a(ieee80211_sta.o)
                                                  c:/Espressif/ESP8266_SDK/lib\libnet80211.a(ieee80211_input.o)
                                                  c:/Espressif/ESP8266_SDK/lib\libnet80211.a(ieee80211_hostap.o)
                                                  c:/Espressif/ESP8266_SDK/lib\libmain.a(eagle_lwip_if.o)
                                                  c:/Espressif/ESP8266_SDK/lib\libmain.a(user_interface.o)
ppRegisterTxCallback                              c:/Espressif/ESP8266_SDK/lib\libpp.a(pp.o)
                                                  c:/Espressif/ESP8266_SDK/lib\libwpa.a(wpa_main.o)
                                                  c:/Espressif/ESP8266_SDK/lib\libnet80211.a(wl_cnx.o)
                                                  c:/Espressif/ESP8266_SDK/lib\libnet80211.a(ieee80211_proto.o)
                                                  c:/Espressif/ESP8266_SDK/lib\libnet80211.a(ieee80211_hostap.o)
                                                  c:/Espressif/ESP8266_SDK/lib\libnet80211.a(ieee80211.o)
                                                  c:/Espressif/ESP8266_SDK/lib\libpp.a(pm.o)
ppRollBackTxQ                                     c:/Espressif/ESP8266_SDK/lib\libpp.a(pp.o)
                                                  c:/Espressif/ESP8266_SDK/lib\libpp.a(lmac.o)
ppTxPkt                                           c:/Espressif/ESP8266_SDK/lib\libpp.a(pp.o)
                                                  c:/Espressif/ESP8266_SDK/lib\libnet80211.a(ieee80211_action_vendor.o)
                                                  c:/Espressif/ESP8266_SDK/lib\libnet80211.a(ieee80211_scan.o)
                                                  c:/Espressif/ESP8266_SDK/lib\libnet80211.a(ieee80211_power.o)
                                                  c:/Espressif/ESP8266_SDK/lib\libnet80211.a(ieee80211_output.o)
                                                  c:/Espressif/ESP8266_SDK/lib\libnet80211.a(ieee80211_hostap.o)
                                                  c:/Espressif/ESP8266_SDK/lib\libpp.a(pm.o)
ppTxqUpdateBitmap                                 c:/Espressif/ESP8266_SDK/lib\libpp.a(pp.o)
                                                  c:/Espressif/ESP8266_SDK/lib\libpp.a(lmac.o)
ppUnregisterTxCallback                            c:/Espressif/ESP8266_SDK/lib\libpp.a(pp.o)
pp_attach                                         c:/Espressif/ESP8266_SDK/lib\libpp.a(pp.o)
                                                  c:/Espressif/ESP8266_SDK/lib\libmain.a(app_main.o)
pp_disable_idle_timer                             c:/Espressif/ESP8266_SDK/lib\libpp.a(pp.o)
                                                  c:/Espressif/ESP8266_SDK/lib\libpp.a(pm.o)
pp_disable_noise_timer                            c:/Espressif/ESP8266_SDK/lib\libpp.a(pp.o)
                                                  c:/Espressif/ESP8266_SDK/lib\libnet80211.a(ieee80211_hostap.o)
                                                  c:/Espressif/ESP8266_SDK/lib\libpp.a(pm_for_bcn_only_mode.o)
pp_enable_idle_timer                              c:/Espressif/ESP8266_SDK/lib\libpp.a(pp.o)
                                                  c:/Espressif/ESP8266_SDK/lib\libpp.a(pm.o)
pp_enable_noise_timer                             c:/Espressif/ESP8266_SDK/lib\libpp.a(pp.o)
pp_michael_mic_failure                            c:/Espressif/ESP8266_SDK/lib\libwpa.a(wpa.o)
pp_noise_test                                     c:/Espressif/ESP8266_SDK/lib\libpp.a(pp.o)
pp_post                                           c:/Espressif/ESP8266_SDK/lib\libpp.a(pp.o)
                                                  c:/Espressif/ESP8266_SDK/lib\libpp.a(lmac.o)
pp_post2                                          c:/Espressif/ESP8266_SDK/lib\libpp.a(pp.o)
                                                  c:/Espressif/ESP8266_SDK/lib\libpp.a(wdev.o)
pp_soft_wdt_feed                                  c:/Espressif/ESP8266_SDK/lib\libpp.a(pp.o)
                                                  c:/Espressif/ESP8266_SDK/lib\libmain.a(spi_flash.o)
pp_soft_wdt_feed_local                            c:/Espressif/ESP8266_SDK/lib\libpp.a(pp.o)
pp_soft_wdt_init                                  c:/Espressif/ESP8266_SDK/lib\libpp.a(pp.o)
                                                  c:/Espressif/ESP8266_SDK/lib\libmain.a(app_main.o)
pp_soft_wdt_restart                               c:/Espressif/ESP8266_SDK/lib\libpp.a(pp.o)
                                                  c:/Espressif/ESP8266_SDK/lib\libpp.a(pm_for_bcn_only_mode.o)
                                                  c:/Espressif/ESP8266_SDK/lib\libpp.a(pm.o)
pp_soft_wdt_stop                                  c:/Espressif/ESP8266_SDK/lib\libpp.a(pp.o)
                                                  c:/Espressif/ESP8266_SDK/lib\libpp.a(pm_for_bcn_only_mode.o)
                                                  c:/Espressif/ESP8266_SDK/lib\libpp.a(pm.o)
pp_try_enable_idle_timer                          c:/Espressif/ESP8266_SDK/lib\libpp.a(pp.o)
                                                  c:/Espressif/ESP8266_SDK/lib\libpp.a(pm.o)
pp_tx_idle_timeout                                c:/Espressif/ESP8266_SDK/lib\libpp.a(pp.o)
premot                                            c:/Espressif/ESP8266_SDK/lib\liblwip.a(espconn.o)
print_blob                                        c:/Espressif/ESP8266_SDK/lib\libssl.a(ssl_crypto_misc.o)
process_certificate                               c:/Espressif/ESP8266_SDK/lib\libssl.a(ssl_tls1.o)
                                                  c:/Espressif/ESP8266_SDK/lib\libssl.a(ssl_tls1_svr.o)
                                                  c:/Espressif/ESP8266_SDK/lib\libssl.a(ssl_tls1_clnt.o)
process_finished                                  c:/Espressif/ESP8266_SDK/lib\libssl.a(ssl_tls1.o)
                                                  c:/Espressif/ESP8266_SDK/lib\libssl.a(ssl_tls1_svr.o)
                                                  c:/Espressif/ESP8266_SDK/lib\libssl.a(ssl_tls1_clnt.o)
promiscuous_cb                                    c:/Espressif/ESP8266_SDK/lib\libmain.a(user_interface.o)
                                                  c:/Espressif/ESP8266_SDK/lib\libpp.a(pp.o)
prvInsertBlockIntoUsedList                        c:/Espressif/ESP8266_SDK/lib\libmain.a(mem_manager.o)
prvRemoveBlockFromUsedList                        c:/Espressif/ESP8266_SDK/lib\libmain.a(mem_manager.o)
pserver_list                                      c:/Espressif/ESP8266_SDK/lib\liblwip.a(espconn.o)
                                                  c:/Espressif/ESP8266_SDK/lib\liblwip.a(espconn_tcp.o)
pvPortCalloc                                      c:/Espressif/ESP8266_SDK/lib\libmain.a(mem_manager.o)
pvPortMalloc                                      c:/Espressif/ESP8266_SDK/lib\libmain.a(mem_manager.o)
                                                  c:/Espressif/ESP8266_SDK/lib\libcrypto.a(aes-internal-enc.o)
                                                  c:/Espressif/ESP8266_SDK/lib\libssl.a(ssl_rsa.o)
                                                  c:/Espressif/ESP8266_SDK/lib\libssl.a(ssl_bigint.o)
                                                  c:/Espressif/ESP8266_SDK/lib\libssl.a(ssl_asn1.o)
                                                  c:/Espressif/ESP8266_SDK/lib\libssl.a(ssl_x509.o)
                                                  c:/Espressif/ESP8266_SDK/lib\libssl.a(ssl_tls1.o)
                                                  c:/Espressif/ESP8266_SDK/lib\libssl.a(ssl_loader.o)
                                                  c:/Espressif/ESP8266_SDK/lib\libwpa.a(wpa_main.o)
                                                  c:/Espressif/ESP8266_SDK/lib\libwpa.a(wpa_auth_ie.o)
                                                  c:/Espressif/ESP8266_SDK/lib\libwpa.a(wpa_auth.o)
                                                  c:/Espressif/ESP8266_SDK/lib\libwpa.a(os_xtensa.o)
                                                  c:/Espressif/ESP8266_SDK/lib\libwpa.a(common.o)
                                                  c:/Espressif/ESP8266_SDK/lib\liblwip.a(udp.o)
                                                  c:/Espressif/ESP8266_SDK/lib\liblwip.a(timers.o)
                                                  c:/Espressif/ESP8266_SDK/lib\liblwip.a(tcp_out.o)
                                                  c:/Espressif/ESP8266_SDK/lib\liblwip.a(tcp.o)
                                                  c:/Espressif/ESP8266_SDK/lib\liblwip.a(raw.o)
                                                  c:/Espressif/ESP8266_SDK/lib\liblwip.a(pbuf.o)
                                                  c:/Espressif/ESP8266_SDK/lib\liblwip.a(igmp.o)
                                                  c:/Espressif/ESP8266_SDK/lib\liblwip.a(etharp.o)
                                                  c:/Espressif/ESP8266_SDK/lib\liblwip.a(dhcp.o)
                                                  c:/Espressif/ESP8266_SDK/lib\libnet80211.a(ieee80211_regdomain.o)
                                                  c:/Espressif/ESP8266_SDK/lib\libnet80211.a(ieee80211_input.o)
                                                  c:/Espressif/ESP8266_SDK/lib\libpp.a(esf_buf.o)
                                                  c:/Espressif/ESP8266_SDK/lib\libpp.a(wdev.o)
                                                  build/app_app.a(cpp_req.o)
                                                  c:/Espressif/ESP8266_SDK/lib\libmain.a(eagle_lwip_if.o)
                                                  c:/Espressif/ESP8266_SDK/lib\libmain.a(user_interface.o)
pvPortRealloc                                     c:/Espressif/ESP8266_SDK/lib\libmain.a(mem_manager.o)
                                                  c:/Espressif/ESP8266_SDK/lib\libssl.a(ssl_bigint.o)
                                                  c:/Espressif/ESP8266_SDK/lib\libssl.a(ssl_x509.o)
                                                  c:/Espressif/ESP8266_SDK/lib\libssl.a(ssl_loader.o)
pvPortZalloc                                      c:/Espressif/ESP8266_SDK/lib\libmain.a(mem_manager.o)
                                                  c:/Espressif/ESP8266_SDK/lib\libssl.a(ssl_rsa.o)
                                                  c:/Espressif/ESP8266_SDK/lib\libssl.a(ssl_crypto_misc.o)
                                                  c:/Espressif/ESP8266_SDK/lib\libssl.a(ssl_bigint.o)
                                                  c:/Espressif/ESP8266_SDK/lib\libssl.a(ssl_x509.o)
                                                  c:/Espressif/ESP8266_SDK/lib\libssl.a(ssl_tls1.o)
                                                  c:/Espressif/ESP8266_SDK/lib\libssl.a(ssl_loader.o)
                                                  c:/Espressif/ESP8266_SDK/lib\libssl.a(espconn_ssl.o)
                                                  c:/Espressif/ESP8266_SDK/lib\libssl.a(espconn_secure.o)
                                                  c:/Espressif/ESP8266_SDK/lib\libwpa.a(wpa_main.o)
                                                  c:/Espressif/ESP8266_SDK/lib\libwpa.a(wpa_auth.o)
                                                  c:/Espressif/ESP8266_SDK/lib\libwpa.a(ap_config.o)
                                                  c:/Espressif/ESP8266_SDK/lib\liblwip.a(espconn_buf.o)
                                                  c:/Espressif/ESP8266_SDK/lib\liblwip.a(espconn_udp.o)
                                                  c:/Espressif/ESP8266_SDK/lib\liblwip.a(espconn_tcp.o)
                                                  c:/Espressif/ESP8266_SDK/lib\liblwip.a(espconn.o)
                                                  c:/Espressif/ESP8266_SDK/lib\liblwip.a(dns.o)
                                                  c:/Espressif/ESP8266_SDK/lib\liblwip.a(dhcpserver.o)
                                                  c:/Espressif/ESP8266_SDK/lib\libnet80211.a(wl_cnx.o)
                                                  c:/Espressif/ESP8266_SDK/lib\libnet80211.a(ieee80211_sta.o)
                                                  c:/Espressif/ESP8266_SDK/lib\libnet80211.a(ieee80211_scan.o)
                                                  c:/Espressif/ESP8266_SDK/lib\libnet80211.a(ieee80211_phy.o)
                                                  c:/Espressif/ESP8266_SDK/lib\libnet80211.a(ieee80211_mesh_quick.o)
                                                  c:/Espressif/ESP8266_SDK/lib\libnet80211.a(ieee80211_hostap.o)
                                                  c:/Espressif/ESP8266_SDK/lib\libnet80211.a(ieee80211.o)
                                                  c:/Espressif/ESP8266_SDK/lib\libpp.a(esf_buf.o)
                                                  c:/Espressif/ESP8266_SDK/lib\libpp.a(pm_for_bcn_only_mode.o)
                                                  c:/Espressif/ESP8266_SDK/lib\libpp.a(pm.o)
                                                  build/app_app.a(uartproto.o)
                                                  build/app_app.a(wifi_connector.o)
                                                  c:/Espressif/ESP8266_SDK/lib\libmain.a(user_interface.o)
                                                  c:/Espressif/ESP8266_SDK/lib\libmain.a(app_main.o)
pvShowMalloc                                      c:/Espressif/ESP8266_SDK/lib\libmain.a(mem_manager.o)
pwrsave_flushq                                    c:/Espressif/ESP8266_SDK/lib\libnet80211.a(ieee80211_power.o)
                                                  c:/Espressif/ESP8266_SDK/lib\libnet80211.a(wl_cnx.o)
                                                  c:/Espressif/ESP8266_SDK/lib\libnet80211.a(ieee80211_hostap.o)
r_rand                                            c:/Espressif/ESP8266_SDK/lib\libwpa.a(os_xtensa.o)
                                                  c:/Espressif/ESP8266_SDK/lib\libssl.a(ssl_crypto_misc.o)
                                                  c:/Espressif/ESP8266_SDK/lib\liblwip.a(igmp.o)
ram_ana_inf_gating_en                             c:/Espressif/ESP8266_SDK/lib\libphy.a(phy_chip_v6_ana.o)
                                                  c:/Espressif/ESP8266_SDK/lib\libphy.a(phy_chip_v6.o)
ram_cal_tos_v60                                   c:/Espressif/ESP8266_SDK/lib\libphy.a(phy_chip_v6_cal.o)
                                                  c:/Espressif/ESP8266_SDK/lib\libphy.a(phy_chip_v6.o)
ram_chip_v6_rx_init                               c:/Espressif/ESP8266_SDK/lib\libphy.a(phy_chip_v6_ana.o)
                                                  c:/Espressif/ESP8266_SDK/lib\libphy.a(phy_chip_v6.o)
ram_get_bb_atten                                  c:/Espressif/ESP8266_SDK/lib\libphy.a(phy_chip_v6_cal.o)
ram_get_corr_power                                c:/Espressif/ESP8266_SDK/lib\libphy.a(phy_chip_v6.o)
ram_get_fm_sar_dout                               c:/Espressif/ESP8266_SDK/lib\libphy.a(phy_chip_v6_cal.o)
                                                  c:/Espressif/ESP8266_SDK/lib\libphy.a(phy_chip_v6.o)
ram_get_noisefloor                                c:/Espressif/ESP8266_SDK/lib\libphy.a(phy_chip_v6.o)
ram_pbus_debugmode                                c:/Espressif/ESP8266_SDK/lib\libphy.a(phy_chip_v6_ana.o)
                                                  c:/Espressif/ESP8266_SDK/lib\libphy.a(phy_chip_v6.o)
ram_pbus_set_rxgain                               c:/Espressif/ESP8266_SDK/lib\libphy.a(phy_chip_v6_ana.o)
                                                  c:/Espressif/ESP8266_SDK/lib\libphy.a(phy_chip_v6.o)
ram_pbus_xpd_tx_on                                c:/Espressif/ESP8266_SDK/lib\libphy.a(phy_chip_v6_ana.o)
                                                  c:/Espressif/ESP8266_SDK/lib\libphy.a(phy_chip_v6_cal.o)
                                                  c:/Espressif/ESP8266_SDK/lib\libphy.a(phy_chip_v6.o)
ram_restart_cal                                   c:/Espressif/ESP8266_SDK/lib\libphy.a(phy_chip_v6_ana.o)
                                                  c:/Espressif/ESP8266_SDK/lib\libphy.a(phy_chip_v6.o)
ram_rfcal_pwrctrl                                 c:/Espressif/ESP8266_SDK/lib\libphy.a(phy_chip_v6_cal.o)
                                                  c:/Espressif/ESP8266_SDK/lib\libphy.a(phy_chip_v6.o)
ram_rfcal_rxiq                                    c:/Espressif/ESP8266_SDK/lib\libphy.a(phy_chip_v6_cal.o)
                                                  c:/Espressif/ESP8266_SDK/lib\libphy.a(phy_chip_v6.o)
ram_rfcal_txcap                                   c:/Espressif/ESP8266_SDK/lib\libphy.a(phy_chip_v6_cal.o)
                                                  c:/Espressif/ESP8266_SDK/lib\libphy.a(phy_chip_v6.o)
ram_rfcal_txiq                                    c:/Espressif/ESP8266_SDK/lib\libphy.a(phy_chip_v6_cal.o)
                                                  c:/Espressif/ESP8266_SDK/lib\libphy.a(phy_chip_v6.o)
ram_rfpll_set_freq                                c:/Espressif/ESP8266_SDK/lib\libphy.a(phy_chip_v6_ana.o)
ram_rxiq_cover_mg_mp                              c:/Espressif/ESP8266_SDK/lib\libphy.a(phy_chip_v6_cal.o)
                                                  c:/Espressif/ESP8266_SDK/lib\libphy.a(phy_chip_v6.o)
ram_rxiq_get_mis                                  c:/Espressif/ESP8266_SDK/lib\libphy.a(phy_chip_v6_cal.o)
                                                  c:/Espressif/ESP8266_SDK/lib\libphy.a(phy_chip_v6.o)
ram_set_channel_freq                              c:/Espressif/ESP8266_SDK/lib\libphy.a(phy_chip_v6_ana.o)
ram_set_noise_floor                               c:/Espressif/ESP8266_SDK/lib\libphy.a(phy_chip_v6.o)
ram_set_txbb_atten                                c:/Espressif/ESP8266_SDK/lib\libphy.a(phy_chip_v6_cal.o)
                                                  c:/Espressif/ESP8266_SDK/lib\libphy.a(phy_chip_v6.o)
ram_start_noisefloor                              c:/Espressif/ESP8266_SDK/lib\libphy.a(phy_chip_v6.o)
ram_tx_mac_disable                                c:/Espressif/ESP8266_SDK/lib\libphy.a(phy_chip_v6.o)
ram_tx_mac_enable                                 c:/Espressif/ESP8266_SDK/lib\libphy.a(phy_chip_v6.o)
raw_bind                                          c:/Espressif/ESP8266_SDK/lib\liblwip.a(raw.o)
raw_connect                                       c:/Espressif/ESP8266_SDK/lib\liblwip.a(raw.o)
raw_input                                         c:/Espressif/ESP8266_SDK/lib\liblwip.a(raw.o)
                                                  c:/Espressif/ESP8266_SDK/lib\liblwip.a(ip.o)
raw_new                                           c:/Espressif/ESP8266_SDK/lib\liblwip.a(raw.o)
raw_recv                                          c:/Espressif/ESP8266_SDK/lib\liblwip.a(raw.o)
raw_remove                                        c:/Espressif/ESP8266_SDK/lib\liblwip.a(raw.o)
raw_send                                          c:/Espressif/ESP8266_SDK/lib\liblwip.a(raw.o)
raw_sendto                                        c:/Espressif/ESP8266_SDK/lib\liblwip.a(raw.o)
rc4_skip                                          c:/Espressif/ESP8266_SDK/lib\libwpa.a(wpa.o)
                                                  c:/Espressif/ESP8266_SDK/lib\libwpa.a(wpa_auth.o)
rcAttach                                          c:/Espressif/ESP8266_SDK/lib\libpp.a(trc.o)
                                                  c:/Espressif/ESP8266_SDK/lib\libpp.a(lmac.o)
rcGetRate                                         c:/Espressif/ESP8266_SDK/lib\libpp.a(trc.o)
                                                  c:/Espressif/ESP8266_SDK/lib\libpp.a(lmac.o)
rcGetSched                                        c:/Espressif/ESP8266_SDK/lib\libpp.a(trc.o)
                                                  c:/Espressif/ESP8266_SDK/lib\libpp.a(pp.o)
rcGetTrc                                          c:/Espressif/ESP8266_SDK/lib\libpp.a(trc.o)
rcReachRetryLimit                                 c:/Espressif/ESP8266_SDK/lib\libpp.a(trc.o)
                                                  c:/Espressif/ESP8266_SDK/lib\libpp.a(lmac.o)
rcUpdateDataRxDone                                c:/Espressif/ESP8266_SDK/lib\libpp.a(trc.o)
                                                  c:/Espressif/ESP8266_SDK/lib\libpp.a(wdev.o)
rcUpdatePhyMode                                   c:/Espressif/ESP8266_SDK/lib\libpp.a(trc.o)
                                                  c:/Espressif/ESP8266_SDK/lib\libpp.a(if_hwctrl.o)
rcUpdateRxDone                                    c:/Espressif/ESP8266_SDK/lib\libpp.a(trc.o)
                                                  c:/Espressif/ESP8266_SDK/lib\libpp.a(pp.o)
rcUpdateTxDone                                    c:/Espressif/ESP8266_SDK/lib\libpp.a(trc.o)
                                                  c:/Espressif/ESP8266_SDK/lib\libpp.a(lmac.o)
rc_cal                                            c:/Espressif/ESP8266_SDK/lib\libphy.a(phy_chip_v6_cal.o)
                                                  c:/Espressif/ESP8266_SDK/lib\libphy.a(phy_chip_v6.o)
rc_disable_trc                                    c:/Espressif/ESP8266_SDK/lib\libpp.a(trc.o)
                                                  c:/Espressif/ESP8266_SDK/lib\libpp.a(if_hwctrl.o)
rc_disable_trc_by_interface                       c:/Espressif/ESP8266_SDK/lib\libpp.a(trc.o)
                                                  c:/Espressif/ESP8266_SDK/lib\libpp.a(if_hwctrl.o)
rc_enable_trc                                     c:/Espressif/ESP8266_SDK/lib\libpp.a(trc.o)
                                                  c:/Espressif/ESP8266_SDK/lib\libpp.a(if_hwctrl.o)
rc_get_mask                                       c:/Espressif/ESP8266_SDK/lib\libpp.a(trc.o)
                                                  c:/Espressif/ESP8266_SDK/lib\libpp.a(pm.o)
rc_get_sta_trc                                    c:/Espressif/ESP8266_SDK/lib\libpp.a(trc.o)
                                                  c:/Espressif/ESP8266_SDK/lib\libpp.a(pm.o)
rc_get_trc                                        c:/Espressif/ESP8266_SDK/lib\libpp.a(trc.o)
                                                  c:/Espressif/ESP8266_SDK/lib\libpp.a(pp.o)
                                                  c:/Espressif/ESP8266_SDK/lib\libpp.a(pm.o)
                                                  c:/Espressif/ESP8266_SDK/lib\libpp.a(if_hwctrl.o)
rc_get_trc_by_index                               c:/Espressif/ESP8266_SDK/lib\libpp.a(trc.o)
                                                  c:/Espressif/ESP8266_SDK/lib\libnet80211.a(ieee80211_output.o)
                                                  c:/Espressif/ESP8266_SDK/lib\libnet80211.a(ieee80211_ht.o)
rc_only_sta_trc                                   c:/Espressif/ESP8266_SDK/lib\libpp.a(trc.o)
                                                  c:/Espressif/ESP8266_SDK/lib\libpp.a(if_hwctrl.o)
rc_set_rate_limit_id                              c:/Espressif/ESP8266_SDK/lib\libpp.a(trc.o)
                                                  c:/Espressif/ESP8266_SDK/lib\libmain.a(user_interface.o)
rcons                                             c:/Espressif/ESP8266_SDK/lib\libcrypto.a(aes-internal.o)
read_hw_noisefloor                                c:/Espressif/ESP8266_SDK/lib\libphy.a(phy_chip_v6.o)
                                                  c:/Espressif/ESP8266_SDK/lib\libpp.a(pp.o)
read_sar_dout                                     c:/Espressif/ESP8266_SDK/lib\libphy.a(phy_chip_v6_cal.o)
                                                  c:/Espressif/ESP8266_SDK/lib\libphy.a(phy_chip_v6_ana.o)
readvdd33                                         c:/Espressif/ESP8266_SDK/lib\libphy.a(phy_chip_v6_ana.o)
reconnect_flag                                    c:/Espressif/ESP8266_SDK/lib\libnet80211.a(wl_cnx.o)
                                                  c:/Espressif/ESP8266_SDK/lib\libnet80211.a(ieee80211_sta.o)
reconnect_internal                                c:/Espressif/ESP8266_SDK/lib\libmain.a(user_interface.o)
reduce_current_init                               c:/Espressif/ESP8266_SDK/lib\libphy.a(phy_chip_v6.o)
register_chipv6_phy                               c:/Espressif/ESP8266_SDK/lib\libphy.a(phy_chip_v6.o)
                                                  c:/Espressif/ESP8266_SDK/lib\libphy.a(phy_sleep.o)
                                                  c:/Espressif/ESP8266_SDK/lib\libmain.a(app_main.o)
register_chipv6_phy_init_param                    c:/Espressif/ESP8266_SDK/lib\libphy.a(phy_chip_v6.o)
register_get_phy_addr                             c:/Espressif/ESP8266_SDK/lib\libphy.a(phy.o)
                                                  c:/Espressif/ESP8266_SDK/lib\libphy.a(phy_chip_v6.o)
register_ieee80211_action_vendor_get_key_cb       c:/Espressif/ESP8266_SDK/lib\libnet80211.a(ieee80211_action_vendor.o)
register_ieee80211_action_vendor_spec_cb          c:/Espressif/ESP8266_SDK/lib\libnet80211.a(ieee80211_action_vendor.o)
register_ieee80211_rfid_locp_recv_cb              c:/Espressif/ESP8266_SDK/lib\libnet80211.a(ieee80211_rfid.o)
                                                  c:/Espressif/ESP8266_SDK/lib\libmain.a(user_interface.o)
register_phy_ops                                  c:/Espressif/ESP8266_SDK/lib\libphy.a(phy.o)
                                                  c:/Espressif/ESP8266_SDK/lib\libphy.a(phy_chip_v6.o)
remove_ca_certs                                   c:/Espressif/ESP8266_SDK/lib\libssl.a(ssl_asn1.o)
                                                  c:/Espressif/ESP8266_SDK/lib\libssl.a(ssl_tls1.o)
res_buf                                           c:/Espressif/ESP8266_SDK/lib\liblwip.a(sntp.o)
reset_noise_timer                                 c:/Espressif/ESP8266_SDK/lib\libpp.a(pp.o)
                                                  c:/Espressif/ESP8266_SDK/lib\libnet80211.a(ieee80211_hostap.o)
                                                  c:/Espressif/ESP8266_SDK/lib\libpp.a(pm_for_bcn_only_mode.o)
                                                  c:/Espressif/ESP8266_SDK/lib\libpp.a(pm.o)
reult                                             c:/Espressif/ESP8266_SDK/lib\liblwip.a(sntp.o)
rf_cal_sec                                        c:/Espressif/ESP8266_SDK/lib\libmain.a(app_main.o)
                                                  c:/Espressif/ESP8266_SDK/lib\libpp.a(pm_for_bcn_only_mode.o)
                                                  c:/Espressif/ESP8266_SDK/lib\libpp.a(pm.o)
rf_init                                           c:/Espressif/ESP8266_SDK/lib\libphy.a(phy.o)
rfcal_bb_atten_init                               c:/Espressif/ESP8266_SDK/lib\libphy.a(phy_chip_v6_cal.o)
                                                  c:/Espressif/ESP8266_SDK/lib\libphy.a(phy_chip_v6.o)
rijndaelEncrypt                                   c:/Espressif/ESP8266_SDK/lib\libcrypto.a(aes-internal-enc.o)
rijndaelKeySetupEnc                               c:/Espressif/ESP8266_SDK/lib\libcrypto.a(aes-internal.o)
                                                  c:/Espressif/ESP8266_SDK/lib\libcrypto.a(aes-internal-enc.o)
ringbuf_buffer_size                               c:/Espressif/ESP8266_SDK/lib\liblwip.a(espconn_buf.o)
ringbuf_bytes_free                                c:/Espressif/ESP8266_SDK/lib\liblwip.a(espconn_buf.o)
ringbuf_bytes_used                                c:/Espressif/ESP8266_SDK/lib\liblwip.a(espconn_buf.o)
                                                  c:/Espressif/ESP8266_SDK/lib\liblwip.a(espconn.o)
ringbuf_capacity                                  c:/Espressif/ESP8266_SDK/lib\liblwip.a(espconn_buf.o)
ringbuf_findchr                                   c:/Espressif/ESP8266_SDK/lib\liblwip.a(espconn_buf.o)
ringbuf_free                                      c:/Espressif/ESP8266_SDK/lib\liblwip.a(espconn_buf.o)
                                                  c:/Espressif/ESP8266_SDK/lib\liblwip.a(espconn_tcp.o)
ringbuf_head                                      c:/Espressif/ESP8266_SDK/lib\liblwip.a(espconn_buf.o)
ringbuf_is_empty                                  c:/Espressif/ESP8266_SDK/lib\liblwip.a(espconn_buf.o)
ringbuf_is_full                                   c:/Espressif/ESP8266_SDK/lib\liblwip.a(espconn_buf.o)
ringbuf_memcpy_from                               c:/Espressif/ESP8266_SDK/lib\liblwip.a(espconn_buf.o)
                                                  c:/Espressif/ESP8266_SDK/lib\liblwip.a(espconn.o)
ringbuf_memcpy_into                               c:/Espressif/ESP8266_SDK/lib\liblwip.a(espconn_buf.o)
                                                  c:/Espressif/ESP8266_SDK/lib\liblwip.a(espconn_tcp.o)
ringbuf_memset                                    c:/Espressif/ESP8266_SDK/lib\liblwip.a(espconn_buf.o)
ringbuf_new                                       c:/Espressif/ESP8266_SDK/lib\liblwip.a(espconn_buf.o)
                                                  c:/Espressif/ESP8266_SDK/lib\liblwip.a(espconn_tcp.o)
ringbuf_reset                                     c:/Espressif/ESP8266_SDK/lib\liblwip.a(espconn_buf.o)
ringbuf_tail                                      c:/Espressif/ESP8266_SDK/lib\liblwip.a(espconn_buf.o)
rom_chip_v5_disable_cca                           c:/Espressif/ESP8266_SDK/lib\libphy.a(phy_chip_v6.o)
rom_chip_v5_enable_cca                            c:/Espressif/ESP8266_SDK/lib\libphy.a(phy_chip_v6.o)
roundup2                                          c:/Espressif/ESP8266_SDK/lib\libnet80211.a(ieee80211_ets.o)
                                                  c:/Espressif/ESP8266_SDK/lib\libpp.a(wdev.o)
rsn_cipher_put_suites                             c:/Espressif/ESP8266_SDK/lib\libwpa.a(wpa_common.o)
                                                  c:/Espressif/ESP8266_SDK/lib\libwpa.a(wpa_auth_ie.o)
rsn_pmkid                                         c:/Espressif/ESP8266_SDK/lib\libwpa.a(wpa_common.o)
                                                  c:/Espressif/ESP8266_SDK/lib\libwpa.a(wpa_auth.o)
rst_if                                            c:/Espressif/ESP8266_SDK/lib\libmain.a(user_interface.o)
                                                  c:/Espressif/ESP8266_SDK/lib\libmain.a(app_main.o)
rtc_get_reset_reason                              c:/Espressif/ESP8266_SDK/lib\libmain.a(app_main.o)
rtc_mem_backup                                    c:/Espressif/ESP8266_SDK/lib\libphy.a(phy_chip_v6.o)
                                                  c:/Espressif/ESP8266_SDK/lib\libphy.a(phy_chip_v6_cal.o)
rtc_mem_check                                     c:/Espressif/ESP8266_SDK/lib\libphy.a(phy_chip_v6.o)
rtc_mem_recovery                                  c:/Espressif/ESP8266_SDK/lib\libphy.a(phy_chip_v6.o)
rx_buff_enq                                       build/app_app.a(uart.o)
rx_gain_swp                                       c:/Espressif/ESP8266_SDK/lib\libphy.a(phy_chip_v6.o)
rx_table_renew_en                                 c:/Espressif/ESP8266_SDK/lib\libphy.a(phy_chip_v6.o)
rxiq_compute_num                                  c:/Espressif/ESP8266_SDK/lib\libphy.a(phy_chip_v6.o)
rxiq_cover_fail_num                               c:/Espressif/ESP8266_SDK/lib\libphy.a(phy_chip_v6_cal.o)
rxmax_ext_level                                   c:/Espressif/ESP8266_SDK/lib\libphy.a(phy_chip_v6.o)
                                                  c:/Espressif/ESP8266_SDK/lib\libphy.a(phy_chip_v6_ana.o)
sEspconnErr                                       build/app_app.a(wifi_connector.o)
scan_add_bssid                                    c:/Espressif/ESP8266_SDK/lib\libnet80211.a(ieee80211_scan.o)
                                                  c:/Espressif/ESP8266_SDK/lib\libnet80211.a(wl_cnx.o)
scan_add_probe_ssid                               c:/Espressif/ESP8266_SDK/lib\libnet80211.a(ieee80211_scan.o)
                                                  c:/Espressif/ESP8266_SDK/lib\libnet80211.a(wl_cnx.o)
scan_cancel                                       c:/Espressif/ESP8266_SDK/lib\libnet80211.a(ieee80211_scan.o)
                                                  c:/Espressif/ESP8266_SDK/lib\libmain.a(user_interface.o)
scan_check_hidden                                 c:/Espressif/ESP8266_SDK/lib\libnet80211.a(ieee80211_scan.o)
scan_clear_channles                               c:/Espressif/ESP8266_SDK/lib\libnet80211.a(ieee80211_scan.o)
scan_connect_state                                c:/Espressif/ESP8266_SDK/lib\libnet80211.a(ieee80211_scan.o)
                                                  c:/Espressif/ESP8266_SDK/lib\libpp.a(pp.o)
scan_get_type                                     c:/Espressif/ESP8266_SDK/lib\libnet80211.a(ieee80211_scan.o)
                                                  c:/Espressif/ESP8266_SDK/lib\libnet80211.a(wl_cnx.o)
scan_hidden_ssid                                  c:/Espressif/ESP8266_SDK/lib\libnet80211.a(ieee80211_scan.o)
                                                  c:/Espressif/ESP8266_SDK/lib\libnet80211.a(wl_cnx.o)
scan_parse_beacon                                 c:/Espressif/ESP8266_SDK/lib\libnet80211.a(ieee80211_scan.o)
                                                  c:/Espressif/ESP8266_SDK/lib\libnet80211.a(ieee80211_sta.o)
scan_pm_channel_op_cb                             c:/Espressif/ESP8266_SDK/lib\libnet80211.a(ieee80211_scan.o)
scan_profile_check                                c:/Espressif/ESP8266_SDK/lib\libnet80211.a(ieee80211_scan.o)
scan_remove_bssid                                 c:/Espressif/ESP8266_SDK/lib\libnet80211.a(ieee80211_scan.o)
                                                  c:/Espressif/ESP8266_SDK/lib\libnet80211.a(wl_cnx.o)
scan_remove_probe_ssid                            c:/Espressif/ESP8266_SDK/lib\libnet80211.a(ieee80211_scan.o)
                                                  c:/Espressif/ESP8266_SDK/lib\libnet80211.a(wl_cnx.o)
scan_set_desChan                                  c:/Espressif/ESP8266_SDK/lib\libnet80211.a(ieee80211_scan.o)
                                                  c:/Espressif/ESP8266_SDK/lib\libnet80211.a(wl_cnx.o)
scan_start                                        c:/Espressif/ESP8266_SDK/lib\libnet80211.a(ieee80211_scan.o)
                                                  c:/Espressif/ESP8266_SDK/lib\libnet80211.a(wl_cnx.o)
scannum                                           c:/Espressif/ESP8266_SDK/lib\libnet80211.a(ieee80211_scan.o)
                                                  c:/Espressif/ESP8266_SDK/lib\libmain.a(user_interface.o)
sdt_on_noise_start                                c:/Espressif/ESP8266_SDK/lib\libphy.a(phy_chip_v6.o)
send_alert                                        c:/Espressif/ESP8266_SDK/lib\libssl.a(ssl_tls1.o)
send_certificate                                  c:/Espressif/ESP8266_SDK/lib\libssl.a(ssl_tls1.o)
                                                  c:/Espressif/ESP8266_SDK/lib\libssl.a(ssl_tls1_svr.o)
                                                  c:/Espressif/ESP8266_SDK/lib\libssl.a(ssl_tls1_clnt.o)
send_change_cipher_spec                           c:/Espressif/ESP8266_SDK/lib\libssl.a(ssl_tls1.o)
                                                  c:/Espressif/ESP8266_SDK/lib\libssl.a(ssl_tls1_svr.o)
                                                  c:/Espressif/ESP8266_SDK/lib\libssl.a(ssl_tls1_clnt.o)
send_finished                                     c:/Espressif/ESP8266_SDK/lib\libssl.a(ssl_tls1.o)
                                                  c:/Espressif/ESP8266_SDK/lib\libssl.a(ssl_tls1_svr.o)
                                                  c:/Espressif/ESP8266_SDK/lib\libssl.a(ssl_tls1_clnt.o)
send_packet                                       c:/Espressif/ESP8266_SDK/lib\libssl.a(ssl_tls1.o)
                                                  c:/Espressif/ESP8266_SDK/lib\libssl.a(ssl_tls1_svr.o)
                                                  c:/Espressif/ESP8266_SDK/lib\libssl.a(ssl_tls1_clnt.o)
set_cal_rxdc                                      c:/Espressif/ESP8266_SDK/lib\libphy.a(phy_chip_v6.o)
set_crystal_uart                                  c:/Espressif/ESP8266_SDK/lib\libphy.a(phy_chip_v6.o)
set_dpd_bypass                                    c:/Espressif/ESP8266_SDK/lib\libphy.a(phy_chip_v6.o)
set_most_pwr_reg                                  c:/Espressif/ESP8266_SDK/lib\libphy.a(phy_chip_v6.o)
set_rf_freq_offset                                c:/Espressif/ESP8266_SDK/lib\libphy.a(phy_chip_v6_ana.o)
set_rf_gain_stage10                               c:/Espressif/ESP8266_SDK/lib\libphy.a(phy_chip_v6.o)
set_rfanagain_dc_reg                              c:/Espressif/ESP8266_SDK/lib\libphy.a(phy_chip_v6_cal.o)
                                                  c:/Espressif/ESP8266_SDK/lib\libphy.a(phy_chip_v6.o)
set_rx_gain_cal_iq                                c:/Espressif/ESP8266_SDK/lib\libphy.a(phy_chip_v6.o)
set_rx_gain_testchip_50                           c:/Espressif/ESP8266_SDK/lib\libphy.a(phy_chip_v6.o)
set_txcap_reg                                     c:/Espressif/ESP8266_SDK/lib\libphy.a(phy_chip_v6_ana.o)
                                                  c:/Espressif/ESP8266_SDK/lib\libphy.a(phy_chip_v6.o)
set_txdc_pbus                                     c:/Espressif/ESP8266_SDK/lib\libphy.a(phy_chip_v6_cal.o)
                                                  c:/Espressif/ESP8266_SDK/lib\libphy.a(phy_chip_v6.o)
sha1_prf                                          c:/Espressif/ESP8266_SDK/lib\libwpa.a(wpa_common.o)
                                                  c:/Espressif/ESP8266_SDK/lib\libwpa.a(wpa_auth.o)
skip_atoi                                         c:/Espressif/ESP8266_SDK/lib\libmain.a(eagle_lib.o)
sleep_mode_flag                                   c:/Espressif/ESP8266_SDK/lib\libphy.a(phy_chip_v6_ana.o)
                                                  c:/Espressif/ESP8266_SDK/lib\libphy.a(phy_sleep.o)
sleep_opt_8266                                    c:/Espressif/ESP8266_SDK/lib\libphy.a(phy_sleep.o)
sleep_opt_bb_on_8266                              c:/Espressif/ESP8266_SDK/lib\libphy.a(phy_sleep.o)
sleep_reset_analog_rtcreg_8266                    c:/Espressif/ESP8266_SDK/lib\libphy.a(phy_sleep.o)
                                                  c:/Espressif/ESP8266_SDK/lib\libmain.a(app_main.o)
sleep_start_wait_time                             c:/Espressif/ESP8266_SDK/lib\libpp.a(pp.o)
                                                  c:/Espressif/ESP8266_SDK/lib\libpp.a(pm.o)
sntp__tzcalc_limits                               c:/Espressif/ESP8266_SDK/lib\liblwip.a(sntp.o)
sntp__tzrule                                      c:/Espressif/ESP8266_SDK/lib\liblwip.a(sntp.o)
sntp_asctime                                      c:/Espressif/ESP8266_SDK/lib\liblwip.a(sntp.o)
sntp_asctime_r                                    c:/Espressif/ESP8266_SDK/lib\liblwip.a(sntp.o)
sntp_get_current_timestamp                        c:/Espressif/ESP8266_SDK/lib\liblwip.a(sntp.o)
                                                  c:/Espressif/ESP8266_SDK/lib\libmain.a(time.o)
                                                  build/app_app.a(wifi_connector.o)
sntp_get_real_time                                c:/Espressif/ESP8266_SDK/lib\liblwip.a(sntp.o)
                                                  c:/Espressif/ESP8266_SDK/lib\libmain.a(time.o)
                                                  build/app_app.a(wifi_connector.o)
sntp_get_rtc_time                                 c:/Espressif/ESP8266_SDK/lib\libmain.a(time.o)
sntp_get_timetype                                 c:/Espressif/ESP8266_SDK/lib\liblwip.a(sntp.o)
                                                  c:/Espressif/ESP8266_SDK/lib\libmain.a(time.o)
sntp_get_timezone                                 c:/Espressif/ESP8266_SDK/lib\liblwip.a(sntp.o)
sntp_getserver                                    c:/Espressif/ESP8266_SDK/lib\liblwip.a(sntp.o)
sntp_getservername                                c:/Espressif/ESP8266_SDK/lib\liblwip.a(sntp.o)
sntp_init                                         c:/Espressif/ESP8266_SDK/lib\liblwip.a(sntp.o)
                                                  c:/Espressif/ESP8266_SDK/lib\libmain.a(time.o)
                                                  build/app_app.a(wifi_connector.o)
sntp_localtime                                    c:/Espressif/ESP8266_SDK/lib\liblwip.a(sntp.o)
sntp_localtime_r                                  c:/Espressif/ESP8266_SDK/lib\liblwip.a(sntp.o)
sntp_mktm_r                                       c:/Espressif/ESP8266_SDK/lib\liblwip.a(sntp.o)
sntp_receive_time_size                            c:/Espressif/ESP8266_SDK/lib\liblwip.a(sntp.o)
sntp_set_daylight                                 c:/Espressif/ESP8266_SDK/lib\liblwip.a(sntp.o)
                                                  c:/Espressif/ESP8266_SDK/lib\libmain.a(time.o)
sntp_set_receive_time_size                        c:/Espressif/ESP8266_SDK/lib\liblwip.a(sntp.o)
                                                  c:/Espressif/ESP8266_SDK/lib\libmain.a(time.o)
sntp_set_timetype                                 c:/Espressif/ESP8266_SDK/lib\liblwip.a(sntp.o)
                                                  c:/Espressif/ESP8266_SDK/lib\libmain.a(time.o)
sntp_set_timezone                                 c:/Espressif/ESP8266_SDK/lib\liblwip.a(sntp.o)
                                                  c:/Espressif/ESP8266_SDK/lib\libmain.a(time.o)
sntp_set_update_delay                             c:/Espressif/ESP8266_SDK/lib\liblwip.a(sntp.o)
                                                  c:/Espressif/ESP8266_SDK/lib\libmain.a(time.o)
sntp_setserver                                    c:/Espressif/ESP8266_SDK/lib\liblwip.a(sntp.o)
sntp_setservername                                c:/Espressif/ESP8266_SDK/lib\liblwip.a(sntp.o)
                                                  c:/Espressif/ESP8266_SDK/lib\libmain.a(time.o)
                                                  build/app_app.a(wifi_connector.o)
sntp_stop                                         c:/Espressif/ESP8266_SDK/lib\liblwip.a(sntp.o)
                                                  c:/Espressif/ESP8266_SDK/lib\libmain.a(time.o)
sntp_time_inc                                     c:/Espressif/ESP8266_SDK/lib\liblwip.a(sntp.o)
sntp_update_rtc                                   c:/Espressif/ESP8266_SDK/lib\libmain.a(time.o)
                                                  c:/Espressif/ESP8266_SDK/lib\liblwip.a(sntp.o)
soft_wdt_interval                                 c:/Espressif/ESP8266_SDK/lib\libpp.a(pp.o)
software_slp_reject                               c:/Espressif/ESP8266_SDK/lib\libphy.a(phy_sleep.o)
spi_flash_check_wr_protect                        c:/Espressif/ESP8266_SDK/lib\libmain.a(spi_flash.o)
spi_flash_enable_qmode                            c:/Espressif/ESP8266_SDK/lib\libmain.a(spi_flash.o)
                                                  c:/Espressif/ESP8266_SDK/lib\libmain.a(app_main.o)
spi_flash_erase_sector                            c:/Espressif/ESP8266_SDK/lib\libmain.a(spi_flash.o)
                                                  c:/Espressif/ESP8266_SDK/lib\libmain.a(user_interface.o)
spi_flash_get_id                                  c:/Espressif/ESP8266_SDK/lib\libmain.a(spi_flash.o)
                                                  c:/Espressif/ESP8266_SDK/lib\libmain.a(app_main.o)
spi_flash_get_unique_id                           c:/Espressif/ESP8266_SDK/lib\libmain.a(spi_flash.o)
spi_flash_issi_enable_QIO_mode                    c:/Espressif/ESP8266_SDK/lib\libmain.a(spi_flash.o)
                                                  c:/Espressif/ESP8266_SDK/lib\libmain.a(app_main.o)
spi_flash_read                                    c:/Espressif/ESP8266_SDK/lib\libmain.a(spi_flash.o)
                                                  c:/Espressif/ESP8266_SDK/lib\libssl.a(espconn_ssl.o)
                                                  c:/Espressif/ESP8266_SDK/lib\libpp.a(pm_for_bcn_only_mode.o)
                                                  c:/Espressif/ESP8266_SDK/lib\libpp.a(pm.o)
                                                  c:/Espressif/ESP8266_SDK/lib\libmain.a(user_interface.o)
                                                  c:/Espressif/ESP8266_SDK/lib\libmain.a(app_main.o)
spi_flash_read_status                             c:/Espressif/ESP8266_SDK/lib\libmain.a(spi_flash.o)
spi_flash_set_read_func                           c:/Espressif/ESP8266_SDK/lib\libmain.a(spi_flash.o)
spi_flash_write                                   c:/Espressif/ESP8266_SDK/lib\libmain.a(spi_flash.o)
                                                  c:/Espressif/ESP8266_SDK/lib\libmain.a(user_interface.o)
spi_flash_write_status                            c:/Espressif/ESP8266_SDK/lib\libmain.a(spi_flash.o)
ssl_ctx_free                                      c:/Espressif/ESP8266_SDK/lib\libssl.a(ssl_tls1.o)
                                                  c:/Espressif/ESP8266_SDK/lib\libssl.a(espconn_ssl.o)
ssl_ctx_new                                       c:/Espressif/ESP8266_SDK/lib\libssl.a(ssl_tls1.o)
                                                  c:/Espressif/ESP8266_SDK/lib\libssl.a(espconn_ssl.o)
ssl_display_error                                 c:/Espressif/ESP8266_SDK/lib\libssl.a(ssl_tls1.o)
                                                  c:/Espressif/ESP8266_SDK/lib\libssl.a(espconn_ssl.o)
ssl_free                                          c:/Espressif/ESP8266_SDK/lib\libssl.a(ssl_tls1.o)
                                                  c:/Espressif/ESP8266_SDK/lib\libssl.a(ssl_tls1_clnt.o)
                                                  c:/Espressif/ESP8266_SDK/lib\libssl.a(espconn_ssl.o)
ssl_get_cert_dn                                   c:/Espressif/ESP8266_SDK/lib\libssl.a(ssl_tls1.o)
                                                  c:/Espressif/ESP8266_SDK/lib\libssl.a(espconn_ssl.o)
ssl_get_cert_subject_alt_dnsname                  c:/Espressif/ESP8266_SDK/lib\libssl.a(ssl_tls1.o)
ssl_get_cipher_id                                 c:/Espressif/ESP8266_SDK/lib\libssl.a(ssl_tls1.o)
                                                  c:/Espressif/ESP8266_SDK/lib\libssl.a(espconn_ssl.o)
ssl_get_config                                    c:/Espressif/ESP8266_SDK/lib\libssl.a(ssl_tls1.o)
                                                  c:/Espressif/ESP8266_SDK/lib\libssl.a(ssl_crypto_misc.o)
                                                  c:/Espressif/ESP8266_SDK/lib\libssl.a(espconn_ssl.o)
ssl_get_session_id                                c:/Espressif/ESP8266_SDK/lib\libssl.a(ssl_tls1.o)
                                                  c:/Espressif/ESP8266_SDK/lib\libssl.a(espconn_ssl.o)
ssl_get_session_id_size                           c:/Espressif/ESP8266_SDK/lib\libssl.a(ssl_tls1.o)
                                                  c:/Espressif/ESP8266_SDK/lib\libssl.a(espconn_ssl.o)
ssl_handshake_status                              c:/Espressif/ESP8266_SDK/lib\libssl.a(ssl_tls1.o)
                                                  c:/Espressif/ESP8266_SDK/lib\libssl.a(espconn_ssl.o)
ssl_hmac_md5                                      c:/Espressif/ESP8266_SDK/lib\libssl.a(ssl_hmac.o)
                                                  c:/Espressif/ESP8266_SDK/lib\libssl.a(ssl_tls1.o)
ssl_hmac_sha1                                     c:/Espressif/ESP8266_SDK/lib\libssl.a(ssl_hmac.o)
                                                  c:/Espressif/ESP8266_SDK/lib\libssl.a(ssl_tls1.o)
ssl_new_context                                   c:/Espressif/ESP8266_SDK/lib\libssl.a(ssl_tls1.o)
                                                  c:/Espressif/ESP8266_SDK/lib\libssl.a(ssl_tls1_svr.o)
                                                  c:/Espressif/ESP8266_SDK/lib\libssl.a(ssl_tls1_clnt.o)
ssl_obj_free                                      c:/Espressif/ESP8266_SDK/lib\libssl.a(ssl_loader.o)
ssl_obj_load                                      c:/Espressif/ESP8266_SDK/lib\libssl.a(ssl_loader.o)
                                                  c:/Espressif/ESP8266_SDK/lib\libssl.a(espconn_ssl.o)
ssl_obj_memory_load                               c:/Espressif/ESP8266_SDK/lib\libssl.a(ssl_loader.o)
ssl_option                                        c:/Espressif/ESP8266_SDK/lib\libssl.a(espconn_secure.o)
                                                  c:/Espressif/ESP8266_SDK/lib\libssl.a(ssl_tls1.o)
                                                  c:/Espressif/ESP8266_SDK/lib\libssl.a(espconn_ssl.o)
ssl_prot_prefs                                    c:/Espressif/ESP8266_SDK/lib\libssl.a(ssl_tls1.o)
                                                  c:/Espressif/ESP8266_SDK/lib\libssl.a(ssl_tls1_svr.o)
                                                  c:/Espressif/ESP8266_SDK/lib\libssl.a(ssl_tls1_clnt.o)
ssl_read                                          c:/Espressif/ESP8266_SDK/lib\libssl.a(ssl_tls1.o)
                                                  c:/Espressif/ESP8266_SDK/lib\libssl.a(espconn_ssl.o)
ssl_renegotiate                                   c:/Espressif/ESP8266_SDK/lib\libssl.a(ssl_tls1.o)
ssl_session_update                                c:/Espressif/ESP8266_SDK/lib\libssl.a(ssl_tls1.o)
                                                  c:/Espressif/ESP8266_SDK/lib\libssl.a(ssl_tls1_svr.o)
                                                  c:/Espressif/ESP8266_SDK/lib\libssl.a(ssl_tls1_clnt.o)
ssl_verify_cert                                   c:/Espressif/ESP8266_SDK/lib\libssl.a(ssl_tls1.o)
ssl_version                                       c:/Espressif/ESP8266_SDK/lib\libssl.a(ssl_tls1.o)
ssl_write                                         c:/Espressif/ESP8266_SDK/lib\libssl.a(ssl_tls1.o)
                                                  c:/Espressif/ESP8266_SDK/lib\libssl.a(espconn_ssl.o)
sslserver_new                                     c:/Espressif/ESP8266_SDK/lib\libssl.a(ssl_tls1_svr.o)
                                                  c:/Espressif/ESP8266_SDK/lib\libssl.a(espconn_ssl.o)
sta_con_timer                                     c:/Espressif/ESP8266_SDK/lib\libnet80211.a(wl_cnx.o)
                                                  c:/Espressif/ESP8266_SDK/lib\libmain.a(user_interface.o)
sta_input                                         c:/Espressif/ESP8266_SDK/lib\libnet80211.a(ieee80211_sta.o)
                                                  c:/Espressif/ESP8266_SDK/lib\libpp.a(pp.o)
sta_status_set                                    c:/Espressif/ESP8266_SDK/lib\libnet80211.a(ieee80211_sta.o)
                                                  c:/Espressif/ESP8266_SDK/lib\libnet80211.a(wl_cnx.o)
start_dig_rx                                      c:/Espressif/ESP8266_SDK/lib\libphy.a(phy_chip_v6.o)
                                                  c:/Espressif/ESP8266_SDK/lib\libphy.a(phy_chip_v6_ana.o)
status_led_output_level                           c:/Espressif/ESP8266_SDK/lib\libmain.a(user_interface.o)
stop_dig_rx                                       c:/Espressif/ESP8266_SDK/lib\libphy.a(phy_chip_v6.o)
                                                  c:/Espressif/ESP8266_SDK/lib\libphy.a(phy_chip_v6_ana.o)
stpcpy                                            c:/espressif/xtensa-lx106-elf/bin/../lib/gcc/xtensa-lx106-elf/5.2.0/../../../../xtensa-lx106-elf/lib\libc.a(lib_a-stpcpy.o)
                                                  build/app_app.a(wifi_connector.o)
strlen                                            c:/espressif/xtensa-lx106-elf/bin/../lib/gcc/xtensa-lx106-elf/5.2.0/../../../../xtensa-lx106-elf/lib\libc.a(lib_a-strlen.o)
                                                  build/app_app.a(wifi_connector.o)
sw_scan_mode                                      c:/Espressif/ESP8266_SDK/lib\libphy.a(phy_chip_v6.o)
sys_check_timeouts                                c:/Espressif/ESP8266_SDK/lib\liblwip.a(timers.o)
                                                  c:/Espressif/ESP8266_SDK/lib\libmain.a(app_main.o)
sys_restart_timeouts                              c:/Espressif/ESP8266_SDK/lib\liblwip.a(timers.o)
sys_timeout                                       c:/Espressif/ESP8266_SDK/lib\liblwip.a(timers.o)
                                                  c:/Espressif/ESP8266_SDK/lib\liblwip.a(sntp.o)
sys_timeouts_init                                 c:/Espressif/ESP8266_SDK/lib\liblwip.a(timers.o)
                                                  c:/Espressif/ESP8266_SDK/lib\liblwip.a(init.o)
sys_untimeout                                     c:/Espressif/ESP8266_SDK/lib\liblwip.a(timers.o)
                                                  c:/Espressif/ESP8266_SDK/lib\liblwip.a(sntp.o)
system_adc_read                                   c:/Espressif/ESP8266_SDK/lib\libmain.a(user_interface.o)
system_adc_read_fast                              c:/Espressif/ESP8266_SDK/lib\libmain.a(user_interface.o)
system_deep_sleep                                 c:/Espressif/ESP8266_SDK/lib\libmain.a(user_interface.o)
system_deep_sleep_instant                         c:/Espressif/ESP8266_SDK/lib\libmain.a(user_interface.o)
system_deep_sleep_local_2                         c:/Espressif/ESP8266_SDK/lib\libmain.a(user_interface.o)
system_deep_sleep_set_option                      c:/Espressif/ESP8266_SDK/lib\libmain.a(user_interface.o)
system_get_boot_mode                              c:/Espressif/ESP8266_SDK/lib\libmain.a(user_interface.o)
system_get_boot_version                           c:/Espressif/ESP8266_SDK/lib\libmain.a(user_interface.o)
system_get_checksum                               c:/Espressif/ESP8266_SDK/lib\libmain.a(user_interface.o)
                                                  c:/Espressif/ESP8266_SDK/lib\libmain.a(app_main.o)
system_get_chip_id                                c:/Espressif/ESP8266_SDK/lib\libmain.a(user_interface.o)
system_get_cpu_freq                               c:/Espressif/ESP8266_SDK/lib\libmain.a(user_interface.o)
system_get_data_of_array_16                       c:/Espressif/ESP8266_SDK/lib\libmain.a(user_interface.o)
system_get_data_of_array_8                        c:/Espressif/ESP8266_SDK/lib\libmain.a(user_interface.o)
                                                  c:/Espressif/ESP8266_SDK/lib\liblwip.a(tcp.o)
system_get_flash_size_map                         c:/Espressif/ESP8266_SDK/lib\libmain.a(user_interface.o)
                                                  build/app_app.a(user_main.o)
system_get_free_heap_size                         c:/Espressif/ESP8266_SDK/lib\libmain.a(user_interface.o)
                                                  c:/Espressif/ESP8266_SDK/lib\libssl.a(espconn_ssl.o)
                                                  c:/Espressif/ESP8266_SDK/lib\libssl.a(espconn_secure.o)
                                                  build/app_app.a(wifi_connector.o)
system_get_os_print                               c:/Espressif/ESP8266_SDK/lib\libmain.a(user_interface.o)
system_get_rst_info                               c:/Espressif/ESP8266_SDK/lib\libmain.a(user_interface.o)
system_get_rtc_time                               c:/Espressif/ESP8266_SDK/lib\libmain.a(user_interface.o)
                                                  c:/Espressif/ESP8266_SDK/lib\libmain.a(time.o)
system_get_sdk_version                            c:/Espressif/ESP8266_SDK/lib\libmain.a(user_interface.o)
system_get_string_from_flash                      c:/Espressif/ESP8266_SDK/lib\libmain.a(user_interface.o)
                                                  c:/Espressif/ESP8266_SDK/lib\libwpa.a(wpa_common.o)
                                                  c:/Espressif/ESP8266_SDK/lib\libwpa.a(wpa.o)
                                                  c:/Espressif/ESP8266_SDK/lib\libwpa.a(wpa_auth.o)
                                                  c:/Espressif/ESP8266_SDK/lib\libmain.a(mem_manager.o)
system_get_test_result                            c:/Espressif/ESP8266_SDK/lib\libmain.a(user_interface.o)
system_get_time                                   c:/Espressif/ESP8266_SDK/lib\libmain.a(user_interface.o)
                                                  c:/Espressif/ESP8266_SDK/lib\libmain.a(time.o)
                                                  c:/Espressif/ESP8266_SDK/lib\libmain.a(app_main.o)
system_get_userbin_addr                           c:/Espressif/ESP8266_SDK/lib\libmain.a(user_interface.o)
system_get_vdd33                                  c:/Espressif/ESP8266_SDK/lib\libmain.a(user_interface.o)
system_init_done_cb                               c:/Espressif/ESP8266_SDK/lib\libmain.a(user_interface.o)
                                                  build/app_app.a(user_main.o)
system_mktime                                     c:/Espressif/ESP8266_SDK/lib\libmain.a(user_interface.o)
system_os_post                                    c:/Espressif/ESP8266_SDK/lib\libmain.a(user_interface.o)
                                                  build/app_app.a(uart.o)
system_os_task                                    c:/Espressif/ESP8266_SDK/lib\libmain.a(user_interface.o)
                                                  build/app_app.a(uartproto.o)
system_overclock                                  c:/Espressif/ESP8266_SDK/lib\libmain.a(user_interface.o)
                                                  c:/Espressif/ESP8266_SDK/lib\libssl.a(espconn_ssl.o)
                                                  c:/Espressif/ESP8266_SDK/lib\libwpa.a(wpa.o)
system_param_load                                 c:/Espressif/ESP8266_SDK/lib\libmain.a(user_interface.o)
                                                  build/app_app.a(userconfig.o)
system_param_save_with_protect                    c:/Espressif/ESP8266_SDK/lib\libmain.a(user_interface.o)
                                                  build/app_app.a(userconfig.o)
                                                  c:/Espressif/ESP8266_SDK/lib\libmain.a(app_main.o)
system_phy_freq_trace_enable                      c:/Espressif/ESP8266_SDK/lib\libmain.a(app_main.o)
system_phy_set_max_tpw                            c:/Espressif/ESP8266_SDK/lib\libmain.a(user_interface.o)
system_phy_set_powerup_option                     c:/Espressif/ESP8266_SDK/lib\libmain.a(user_interface.o)
system_phy_set_rfoption                           c:/Espressif/ESP8266_SDK/lib\libmain.a(user_interface.o)
system_phy_set_tpw_via_vdd33                      c:/Espressif/ESP8266_SDK/lib\libmain.a(user_interface.o)
system_phy_temperature_alert                      c:/Espressif/ESP8266_SDK/lib\libmain.a(user_interface.o)
system_pp_recycle_rx_pkt                          c:/Espressif/ESP8266_SDK/lib\libmain.a(user_interface.o)
                                                  c:/Espressif/ESP8266_SDK/lib\liblwip.a(pbuf.o)
system_print_meminfo                              c:/Espressif/ESP8266_SDK/lib\libmain.a(user_interface.o)
                                                  build/app_app.a(wifi_connector.o)
system_relative_time                              c:/Espressif/ESP8266_SDK/lib\libmain.a(user_interface.o)
system_restart                                    c:/Espressif/ESP8266_SDK/lib\libmain.a(user_interface.o)
system_restart_core                               c:/Espressif/ESP8266_SDK/lib\libmain.a(user_interface.o)
system_restart_enhance                            c:/Espressif/ESP8266_SDK/lib\libmain.a(user_interface.o)
system_restart_hook                               c:/Espressif/ESP8266_SDK/lib\libmain.a(user_interface.o)
system_restart_local                              c:/Espressif/ESP8266_SDK/lib\libmain.a(user_interface.o)
                                                  c:/Espressif/ESP8266_SDK/lib\libpp.a(pp.o)
                                                  c:/Espressif/ESP8266_SDK/lib\libmain.a(app_main.o)
system_restore                                    c:/Espressif/ESP8266_SDK/lib\libmain.a(user_interface.o)
system_restoreclock                               c:/Espressif/ESP8266_SDK/lib\libmain.a(user_interface.o)
                                                  c:/Espressif/ESP8266_SDK/lib\libssl.a(espconn_ssl.o)
                                                  c:/Espressif/ESP8266_SDK/lib\libwpa.a(wpa.o)
system_rtc_clock_cali_proc                        c:/Espressif/ESP8266_SDK/lib\libmain.a(user_interface.o)
                                                  c:/Espressif/ESP8266_SDK/lib\libmain.a(time.o)
system_rtc_mem_read                               c:/Espressif/ESP8266_SDK/lib\libmain.a(user_interface.o)
                                                  c:/Espressif/ESP8266_SDK/lib\libmain.a(app_main.o)
system_rtc_mem_write                              c:/Espressif/ESP8266_SDK/lib\libmain.a(user_interface.o)
                                                  c:/Espressif/ESP8266_SDK/lib\libpp.a(pp.o)
                                                  c:/Espressif/ESP8266_SDK/lib\libmain.a(app_main.o)
system_save_sys_param                             c:/Espressif/ESP8266_SDK/lib\libmain.a(user_interface.o)
system_set_os_print                               c:/Espressif/ESP8266_SDK/lib\libmain.a(user_interface.o)
                                                  build/app_app.a(user_main.o)
system_show_malloc                                c:/Espressif/ESP8266_SDK/lib\libmain.a(mem_manager.o)
system_soft_wdt_feed                              c:/Espressif/ESP8266_SDK/lib\libpp.a(pp.o)
system_soft_wdt_restart                           c:/Espressif/ESP8266_SDK/lib\libpp.a(pp.o)
system_soft_wdt_stop                              c:/Espressif/ESP8266_SDK/lib\libpp.a(pp.o)
system_station_got_ip_set                         c:/Espressif/ESP8266_SDK/lib\libmain.a(user_interface.o)
                                                  c:/Espressif/ESP8266_SDK/lib\libwpa.a(wpa_main.o)
                                                  c:/Espressif/ESP8266_SDK/lib\liblwip.a(dhcp.o)
system_timer_reinit                               c:/Espressif/ESP8266_SDK/lib\libmain.a(user_interface.o)
system_uart_de_swap                               c:/Espressif/ESP8266_SDK/lib\libmain.a(user_interface.o)
                                                  c:/Espressif/ESP8266_SDK/lib\libmain.a(app_main.o)
system_uart_swap                                  c:/Espressif/ESP8266_SDK/lib\libmain.a(user_interface.o)
                                                  c:/Espressif/ESP8266_SDK/lib\libmain.a(app_main.o)
system_update_cpu_freq                            c:/Espressif/ESP8266_SDK/lib\libmain.a(user_interface.o)
system_upgrade_flag_check                         c:/Espressif/ESP8266_SDK/lib\libmain.a(user_interface.o)
system_upgrade_flag_set                           c:/Espressif/ESP8266_SDK/lib\libmain.a(user_interface.o)
system_upgrade_reboot                             c:/Espressif/ESP8266_SDK/lib\libmain.a(user_interface.o)
system_upgrade_userbin_check                      c:/Espressif/ESP8266_SDK/lib\libmain.a(user_interface.o)
system_upgrade_userbin_set                        c:/Espressif/ESP8266_SDK/lib\libmain.a(user_interface.o)
target_power_add_backoff                          c:/Espressif/ESP8266_SDK/lib\libphy.a(phy_chip_v6.o)
target_power_backoff                              c:/Espressif/ESP8266_SDK/lib\libphy.a(phy_chip_v6.o)
tcb                                               c:/Espressif/ESP8266_SDK/lib\libpp.a(pp.o)
tcp_abandon                                       c:/Espressif/ESP8266_SDK/lib\liblwip.a(tcp.o)
                                                  c:/Espressif/ESP8266_SDK/lib\libssl.a(espconn_ssl.o)
                                                  c:/Espressif/ESP8266_SDK/lib\liblwip.a(tcp_in.o)
                                                  c:/Espressif/ESP8266_SDK/lib\liblwip.a(espconn_tcp.o)
tcp_abort                                         c:/Espressif/ESP8266_SDK/lib\liblwip.a(tcp.o)
                                                  c:/Espressif/ESP8266_SDK/lib\liblwip.a(tcp_in.o)
                                                  c:/Espressif/ESP8266_SDK/lib\liblwip.a(netif.o)
                                                  c:/Espressif/ESP8266_SDK/lib\liblwip.a(espconn_tcp.o)
tcp_accept                                        c:/Espressif/ESP8266_SDK/lib\liblwip.a(tcp.o)
                                                  c:/Espressif/ESP8266_SDK/lib\libssl.a(espconn_ssl.o)
                                                  c:/Espressif/ESP8266_SDK/lib\liblwip.a(espconn_tcp.o)
tcp_active_pcbs                                   c:/Espressif/ESP8266_SDK/lib\liblwip.a(tcp.o)
                                                  c:/Espressif/ESP8266_SDK/lib\libssl.a(espconn_ssl.o)
                                                  c:/Espressif/ESP8266_SDK/lib\liblwip.a(timers.o)
                                                  c:/Espressif/ESP8266_SDK/lib\liblwip.a(tcp_in.o)
                                                  c:/Espressif/ESP8266_SDK/lib\liblwip.a(pbuf.o)
                                                  c:/Espressif/ESP8266_SDK/lib\liblwip.a(netif.o)
                                                  c:/Espressif/ESP8266_SDK/lib\liblwip.a(espconn_tcp.o)
tcp_alloc                                         c:/Espressif/ESP8266_SDK/lib\liblwip.a(tcp.o)
                                                  c:/Espressif/ESP8266_SDK/lib\liblwip.a(tcp_in.o)
tcp_arg                                           c:/Espressif/ESP8266_SDK/lib\liblwip.a(tcp.o)
                                                  c:/Espressif/ESP8266_SDK/lib\libssl.a(espconn_ssl.o)
                                                  c:/Espressif/ESP8266_SDK/lib\liblwip.a(espconn_tcp.o)
tcp_backoff                                       c:/Espressif/ESP8266_SDK/lib\liblwip.a(tcp.o)
tcp_bind                                          c:/Espressif/ESP8266_SDK/lib\liblwip.a(tcp.o)
                                                  c:/Espressif/ESP8266_SDK/lib\libssl.a(espconn_ssl.o)
                                                  c:/Espressif/ESP8266_SDK/lib\liblwip.a(espconn_tcp.o)
tcp_bound_pcbs                                    c:/Espressif/ESP8266_SDK/lib\liblwip.a(tcp.o)
tcp_close                                         c:/Espressif/ESP8266_SDK/lib\liblwip.a(tcp.o)
                                                  c:/Espressif/ESP8266_SDK/lib\libssl.a(espconn_ssl.o)
                                                  c:/Espressif/ESP8266_SDK/lib\liblwip.a(espconn_tcp.o)
tcp_connect                                       c:/Espressif/ESP8266_SDK/lib\liblwip.a(tcp.o)
                                                  c:/Espressif/ESP8266_SDK/lib\libssl.a(espconn_ssl.o)
                                                  c:/Espressif/ESP8266_SDK/lib\liblwip.a(espconn_tcp.o)
tcp_eff_send_mss                                  c:/Espressif/ESP8266_SDK/lib\liblwip.a(tcp.o)
                                                  c:/Espressif/ESP8266_SDK/lib\liblwip.a(tcp_in.o)
tcp_enqueue_flags                                 c:/Espressif/ESP8266_SDK/lib\liblwip.a(tcp_out.o)
                                                  c:/Espressif/ESP8266_SDK/lib\liblwip.a(tcp.o)
                                                  c:/Espressif/ESP8266_SDK/lib\liblwip.a(tcp_in.o)
tcp_err                                           c:/Espressif/ESP8266_SDK/lib\liblwip.a(tcp.o)
                                                  c:/Espressif/ESP8266_SDK/lib\libssl.a(espconn_ssl.o)
                                                  c:/Espressif/ESP8266_SDK/lib\liblwip.a(espconn_tcp.o)
tcp_fasttmr                                       c:/Espressif/ESP8266_SDK/lib\liblwip.a(tcp.o)
tcp_input                                         c:/Espressif/ESP8266_SDK/lib\liblwip.a(tcp_in.o)
                                                  c:/Espressif/ESP8266_SDK/lib\liblwip.a(ip.o)
tcp_input_pcb                                     c:/Espressif/ESP8266_SDK/lib\liblwip.a(tcp_in.o)
                                                  c:/Espressif/ESP8266_SDK/lib\liblwip.a(tcp_out.o)
tcp_keepalive                                     c:/Espressif/ESP8266_SDK/lib\liblwip.a(tcp_out.o)
                                                  c:/Espressif/ESP8266_SDK/lib\liblwip.a(tcp.o)
tcp_listen_pcbs                                   c:/Espressif/ESP8266_SDK/lib\liblwip.a(tcp.o)
                                                  c:/Espressif/ESP8266_SDK/lib\liblwip.a(tcp_in.o)
                                                  c:/Espressif/ESP8266_SDK/lib\liblwip.a(netif.o)
tcp_listen_with_backlog                           c:/Espressif/ESP8266_SDK/lib\liblwip.a(tcp.o)
                                                  c:/Espressif/ESP8266_SDK/lib\libssl.a(espconn_ssl.o)
                                                  c:/Espressif/ESP8266_SDK/lib\liblwip.a(espconn_tcp.o)
tcp_new                                           c:/Espressif/ESP8266_SDK/lib\liblwip.a(tcp.o)
                                                  c:/Espressif/ESP8266_SDK/lib\libssl.a(espconn_ssl.o)
                                                  c:/Espressif/ESP8266_SDK/lib\liblwip.a(espconn_tcp.o)
tcp_next_iss                                      c:/Espressif/ESP8266_SDK/lib\liblwip.a(tcp.o)
tcp_output                                        c:/Espressif/ESP8266_SDK/lib\liblwip.a(tcp_out.o)
                                                  c:/Espressif/ESP8266_SDK/lib\libssl.a(ssl_tls1.o)
                                                  c:/Espressif/ESP8266_SDK/lib\libssl.a(espconn_ssl.o)
                                                  c:/Espressif/ESP8266_SDK/lib\liblwip.a(tcp.o)
                                                  c:/Espressif/ESP8266_SDK/lib\liblwip.a(tcp_in.o)
                                                  c:/Espressif/ESP8266_SDK/lib\liblwip.a(espconn_tcp.o)
tcp_pcb_lists                                     c:/Espressif/ESP8266_SDK/lib\liblwip.a(tcp.o)
                                                  c:/Espressif/ESP8266_SDK/lib\liblwip.a(espconn_tcp.o)
tcp_pcb_purge                                     c:/Espressif/ESP8266_SDK/lib\liblwip.a(tcp.o)
                                                  c:/Espressif/ESP8266_SDK/lib\liblwip.a(tcp_in.o)
                                                  c:/Espressif/ESP8266_SDK/lib\liblwip.a(espconn_tcp.o)
tcp_pcb_remove                                    c:/Espressif/ESP8266_SDK/lib\liblwip.a(tcp.o)
                                                  c:/Espressif/ESP8266_SDK/lib\liblwip.a(tcp_in.o)
                                                  c:/Espressif/ESP8266_SDK/lib\liblwip.a(espconn_tcp.o)
tcp_persist_backoff                               c:/Espressif/ESP8266_SDK/lib\liblwip.a(tcp.o)
tcp_poll                                          c:/Espressif/ESP8266_SDK/lib\liblwip.a(tcp.o)
                                                  c:/Espressif/ESP8266_SDK/lib\libssl.a(espconn_ssl.o)
                                                  c:/Espressif/ESP8266_SDK/lib\liblwip.a(espconn_tcp.o)
tcp_recv                                          c:/Espressif/ESP8266_SDK/lib\liblwip.a(tcp.o)
                                                  c:/Espressif/ESP8266_SDK/lib\libssl.a(espconn_ssl.o)
                                                  c:/Espressif/ESP8266_SDK/lib\liblwip.a(espconn_tcp.o)
tcp_recv_null                                     c:/Espressif/ESP8266_SDK/lib\liblwip.a(tcp.o)
                                                  c:/Espressif/ESP8266_SDK/lib\liblwip.a(tcp_in.o)
tcp_recved                                        c:/Espressif/ESP8266_SDK/lib\liblwip.a(tcp.o)
                                                  c:/Espressif/ESP8266_SDK/lib\libssl.a(espconn_ssl.o)
                                                  c:/Espressif/ESP8266_SDK/lib\liblwip.a(espconn_tcp.o)
tcp_rexmit                                        c:/Espressif/ESP8266_SDK/lib\liblwip.a(tcp_out.o)
                                                  c:/Espressif/ESP8266_SDK/lib\liblwip.a(tcp_in.o)
tcp_rexmit_fast                                   c:/Espressif/ESP8266_SDK/lib\liblwip.a(tcp_out.o)
                                                  c:/Espressif/ESP8266_SDK/lib\liblwip.a(tcp_in.o)
tcp_rexmit_rto                                    c:/Espressif/ESP8266_SDK/lib\liblwip.a(tcp_out.o)
                                                  c:/Espressif/ESP8266_SDK/lib\liblwip.a(tcp.o)
tcp_rst                                           c:/Espressif/ESP8266_SDK/lib\liblwip.a(tcp_out.o)
                                                  c:/Espressif/ESP8266_SDK/lib\liblwip.a(tcp.o)
                                                  c:/Espressif/ESP8266_SDK/lib\liblwip.a(tcp_in.o)
tcp_seg_copy                                      c:/Espressif/ESP8266_SDK/lib\liblwip.a(tcp.o)
                                                  c:/Espressif/ESP8266_SDK/lib\liblwip.a(tcp_in.o)
tcp_seg_free                                      c:/Espressif/ESP8266_SDK/lib\liblwip.a(tcp.o)
                                                  c:/Espressif/ESP8266_SDK/lib\liblwip.a(tcp_out.o)
                                                  c:/Espressif/ESP8266_SDK/lib\liblwip.a(tcp_in.o)
                                                  c:/Espressif/ESP8266_SDK/lib\liblwip.a(pbuf.o)
tcp_segs_free                                     c:/Espressif/ESP8266_SDK/lib\liblwip.a(tcp.o)
                                                  c:/Espressif/ESP8266_SDK/lib\liblwip.a(tcp_out.o)
                                                  c:/Espressif/ESP8266_SDK/lib\liblwip.a(tcp_in.o)
tcp_send_empty_ack                                c:/Espressif/ESP8266_SDK/lib\liblwip.a(tcp_out.o)
                                                  c:/Espressif/ESP8266_SDK/lib\liblwip.a(tcp_in.o)
tcp_send_fin                                      c:/Espressif/ESP8266_SDK/lib\liblwip.a(tcp_out.o)
                                                  c:/Espressif/ESP8266_SDK/lib\liblwip.a(tcp.o)
tcp_sent                                          c:/Espressif/ESP8266_SDK/lib\liblwip.a(tcp.o)
                                                  c:/Espressif/ESP8266_SDK/lib\libssl.a(espconn_ssl.o)
                                                  c:/Espressif/ESP8266_SDK/lib\liblwip.a(espconn_tcp.o)
tcp_setprio                                       c:/Espressif/ESP8266_SDK/lib\liblwip.a(tcp.o)
tcp_shutdown                                      c:/Espressif/ESP8266_SDK/lib\liblwip.a(tcp.o)
tcp_slowtmr                                       c:/Espressif/ESP8266_SDK/lib\liblwip.a(tcp.o)
tcp_ticks                                         c:/Espressif/ESP8266_SDK/lib\liblwip.a(tcp.o)
                                                  c:/Espressif/ESP8266_SDK/lib\liblwip.a(tcp_out.o)
                                                  c:/Espressif/ESP8266_SDK/lib\liblwip.a(tcp_in.o)
                                                  c:/Espressif/ESP8266_SDK/lib\liblwip.a(espconn_tcp.o)
tcp_timer_needed                                  c:/Espressif/ESP8266_SDK/lib\liblwip.a(timers.o)
                                                  c:/Espressif/ESP8266_SDK/lib\liblwip.a(tcp.o)
                                                  c:/Espressif/ESP8266_SDK/lib\liblwip.a(tcp_in.o)
tcp_tmp_pcb                                       c:/Espressif/ESP8266_SDK/lib\liblwip.a(tcp.o)
                                                  c:/Espressif/ESP8266_SDK/lib\liblwip.a(tcp_in.o)
tcp_tmr                                           c:/Espressif/ESP8266_SDK/lib\liblwip.a(tcp.o)
                                                  c:/Espressif/ESP8266_SDK/lib\liblwip.a(timers.o)
tcp_tw_pcbs                                       c:/Espressif/ESP8266_SDK/lib\liblwip.a(tcp.o)
                                                  c:/Espressif/ESP8266_SDK/lib\libssl.a(espconn_ssl.o)
                                                  c:/Espressif/ESP8266_SDK/lib\liblwip.a(timers.o)
                                                  c:/Espressif/ESP8266_SDK/lib\liblwip.a(tcp_in.o)
                                                  c:/Espressif/ESP8266_SDK/lib\liblwip.a(espconn_tcp.o)
tcp_update_rcv_ann_wnd                            c:/Espressif/ESP8266_SDK/lib\liblwip.a(tcp.o)
                                                  c:/Espressif/ESP8266_SDK/lib\liblwip.a(tcp_in.o)
tcp_write                                         c:/Espressif/ESP8266_SDK/lib\liblwip.a(tcp_out.o)
                                                  c:/Espressif/ESP8266_SDK/lib\libssl.a(ssl_tls1.o)
                                                  c:/Espressif/ESP8266_SDK/lib\libssl.a(espconn_ssl.o)
                                                  c:/Espressif/ESP8266_SDK/lib\liblwip.a(espconn_tcp.o)
tcp_zero_window_probe                             c:/Espressif/ESP8266_SDK/lib\liblwip.a(tcp_out.o)
                                                  c:/Espressif/ESP8266_SDK/lib\liblwip.a(tcp.o)
test_print_time                                   c:/Espressif/ESP8266_SDK/lib\libphy.a(phy_chip_v6.o)
test_rffreq_txcap                                 c:/Espressif/ESP8266_SDK/lib\libphy.a(phy_chip_v6.o)
test_tout                                         c:/Espressif/ESP8266_SDK/lib\libphy.a(phy_chip_v6_ana.o)
                                                  c:/Espressif/ESP8266_SDK/lib\libmain.a(user_interface.o)
time                                              c:/Espressif/ESP8266_SDK/lib\libmain.a(time.o)
time_zone                                         c:/Espressif/ESP8266_SDK/lib\liblwip.a(sntp.o)
timer2_ms_flag                                    c:/Espressif/ESP8266_SDK/lib\libmain.a(user_interface.o)
                                                  c:/Espressif/ESP8266_SDK/lib\liblwip.a(timers.o)
                                                  c:/Espressif/ESP8266_SDK/lib\libpp.a(pm_for_bcn_only_mode.o)
                                                  c:/Espressif/ESP8266_SDK/lib\libpp.a(pm.o)
                                                  c:/Espressif/ESP8266_SDK/lib\libmain.a(ets_timer.o)
timer_list                                        c:/Espressif/ESP8266_SDK/lib\libmain.a(ets_timer.o)
                                                  c:/Espressif/ESP8266_SDK/lib\libpp.a(pm_for_bcn_only_mode.o)
                                                  c:/Espressif/ESP8266_SDK/lib\libpp.a(pm.o)
tkip                                              c:/Espressif/ESP8266_SDK/lib\libnet80211.a(ieee80211_crypto_tkip.o)
                                                  c:/Espressif/ESP8266_SDK/lib\libwpa.a(wpa_main.o)
                                                  c:/Espressif/ESP8266_SDK/lib\libwpa.a(wpa_auth.o)
total_buffed_eb_num                               c:/Espressif/ESP8266_SDK/lib\libpp.a(pp.o)
                                                  c:/Espressif/ESP8266_SDK/lib\libnet80211.a(ieee80211_hostap.o)
tout_dis_txpwr_track                              c:/Espressif/ESP8266_SDK/lib\libphy.a(phy_chip_v6_ana.o)
                                                  c:/Espressif/ESP8266_SDK/lib\libphy.a(phy_chip_v6_cal.o)
trc_NeedRTS                                       c:/Espressif/ESP8266_SDK/lib\libpp.a(trc.o)
trc_onDisconnect                                  c:/Espressif/ESP8266_SDK/lib\libpp.a(trc.o)
trc_onScanDone                                    c:/Espressif/ESP8266_SDK/lib\libpp.a(trc.o)
trc_onScanStart                                   c:/Espressif/ESP8266_SDK/lib\libpp.a(trc.o)
tsen_meas                                         c:/Espressif/ESP8266_SDK/lib\libphy.a(phy_chip_v6_ana.o)
tx_atten_set_interp                               c:/Espressif/ESP8266_SDK/lib\libphy.a(phy_chip_v6.o)
                                                  c:/Espressif/ESP8266_SDK/lib\libphy.a(phy_chip_v6_cal.o)
                                                  c:/Espressif/ESP8266_SDK/lib\libphy.a(phy_chip_v6_ana.o)
tx_cap_init                                       c:/Espressif/ESP8266_SDK/lib\libphy.a(phy_chip_v6.o)
tx_cont_cfg                                       c:/Espressif/ESP8266_SDK/lib\libphy.a(phy_chip_v6.o)
tx_cont_dis                                       c:/Espressif/ESP8266_SDK/lib\libphy.a(phy_chip_v6.o)
tx_cont_en                                        c:/Espressif/ESP8266_SDK/lib\libphy.a(phy_chip_v6.o)
tx_pwctrl_background                              c:/Espressif/ESP8266_SDK/lib\libphy.a(phy_chip_v6_cal.o)
                                                  c:/Espressif/ESP8266_SDK/lib\libpp.a(pp.o)
tx_pwctrl_bg_init                                 c:/Espressif/ESP8266_SDK/lib\libphy.a(phy_chip_v6_cal.o)
                                                  c:/Espressif/ESP8266_SDK/lib\libphy.a(phy_chip_v6.o)
tx_pwctrl_cal                                     c:/Espressif/ESP8266_SDK/lib\libphy.a(phy_chip_v6_cal.o)
tx_pwctrl_init                                    c:/Espressif/ESP8266_SDK/lib\libphy.a(phy_chip_v6.o)
tx_pwctrl_init_cal                                c:/Espressif/ESP8266_SDK/lib\libphy.a(phy_chip_v6.o)
tx_pwctrl_pk_num                                  c:/Espressif/ESP8266_SDK/lib\libphy.a(phy_chip_v6_cal.o)
tx_pwctrl_track_num                               c:/Espressif/ESP8266_SDK/lib\libphy.a(phy_chip_v6_cal.o)
tx_pwr_backoff                                    c:/Espressif/ESP8266_SDK/lib\libphy.a(phy_chip_v6_cal.o)
                                                  c:/Espressif/ESP8266_SDK/lib\libphy.a(phy_chip_v6.o)
tx_pwr_backoff_old                                c:/Espressif/ESP8266_SDK/lib\libphy.a(phy_chip_v6_cal.o)
tx_rf_ana_gain                                    c:/Espressif/ESP8266_SDK/lib\libphy.a(phy_chip_v6.o)
                                                  c:/Espressif/ESP8266_SDK/lib\libphy.a(phy_chip_v6_cal.o)
tx_start_uart_buffer                              build/app_app.a(uart.o)
txbbgain2dcoindex                                 c:/Espressif/ESP8266_SDK/lib\libphy.a(phy_chip_v6_cal.o)
txbk_dpdby_flag                                   c:/Espressif/ESP8266_SDK/lib\libphy.a(phy_chip_v6.o)
txiq_cover                                        c:/Espressif/ESP8266_SDK/lib\libphy.a(phy_chip_v6_cal.o)
txiq_get_mis_pwr                                  c:/Espressif/ESP8266_SDK/lib\libphy.a(phy_chip_v6_cal.o)
txpwr_offset                                      c:/Espressif/ESP8266_SDK/lib\libphy.a(phy_chip_v6_ana.o)
                                                  c:/Espressif/ESP8266_SDK/lib\libphy.a(phy_chip_v6.o)
uart0_tx_buffer(unsigned char*, unsigned short)   build/app_app.a(uartproto.o)
uart1_sendStr_no_wait                             build/app_app.a(uart.o)
uart_buff_switch                                  c:/Espressif/ESP8266_SDK/lib\libphy.a(phy_chip_v6.o)
uart_div_modify                                   build/app_app.a(uart.o)
                                                  c:/Espressif/ESP8266_SDK/lib\libmain.a(app_main.o)
uart_init                                         build/app_app.a(uart.o)
                                                  build/app_app.a(user_main.o)
uart_rx_intr_disable                              build/app_app.a(uart.o)
uart_rx_intr_enable                               build/app_app.a(uart.o)
                                                  build/app_app.a(uartproto.o)
uart_tx_flush                                     c:/Espressif/ESP8266_SDK/lib\libpp.a(pm.o)
                                                  c:/Espressif/ESP8266_SDK/lib\libphy.a(phy_chip_v6.o)
uart_tx_one_char                                  build/app_app.a(uart.o)
                                                  build/app_app.a(uartproto.o)
uart_tx_one_char_no_wait                          build/app_app.a(uart.o)
uart_wait_idle                                    c:/Espressif/ESP8266_SDK/lib\libphy.a(phy_chip_v6.o)
udp_bind                                          c:/Espressif/ESP8266_SDK/lib\liblwip.a(udp.o)
                                                  c:/Espressif/ESP8266_SDK/lib\liblwip.a(espconn_udp.o)
                                                  c:/Espressif/ESP8266_SDK/lib\liblwip.a(dns.o)
                                                  c:/Espressif/ESP8266_SDK/lib\liblwip.a(dhcpserver.o)
                                                  c:/Espressif/ESP8266_SDK/lib\liblwip.a(dhcp.o)
udp_connect                                       c:/Espressif/ESP8266_SDK/lib\liblwip.a(udp.o)
                                                  c:/Espressif/ESP8266_SDK/lib\liblwip.a(dns.o)
                                                  c:/Espressif/ESP8266_SDK/lib\liblwip.a(dhcp.o)
udp_disconnect                                    c:/Espressif/ESP8266_SDK/lib\liblwip.a(udp.o)
                                                  c:/Espressif/ESP8266_SDK/lib\liblwip.a(espconn_udp.o)
                                                  c:/Espressif/ESP8266_SDK/lib\liblwip.a(dhcpserver.o)
udp_input                                         c:/Espressif/ESP8266_SDK/lib\liblwip.a(udp.o)
                                                  c:/Espressif/ESP8266_SDK/lib\liblwip.a(ip.o)
udp_new                                           c:/Espressif/ESP8266_SDK/lib\liblwip.a(udp.o)
                                                  c:/Espressif/ESP8266_SDK/lib\liblwip.a(sntp.o)
                                                  c:/Espressif/ESP8266_SDK/lib\liblwip.a(espconn_udp.o)
                                                  c:/Espressif/ESP8266_SDK/lib\liblwip.a(dns.o)
                                                  c:/Espressif/ESP8266_SDK/lib\liblwip.a(dhcpserver.o)
                                                  c:/Espressif/ESP8266_SDK/lib\liblwip.a(dhcp.o)
udp_pcbs                                          c:/Espressif/ESP8266_SDK/lib\liblwip.a(udp.o)
udp_recv                                          c:/Espressif/ESP8266_SDK/lib\liblwip.a(udp.o)
                                                  c:/Espressif/ESP8266_SDK/lib\liblwip.a(sntp.o)
                                                  c:/Espressif/ESP8266_SDK/lib\liblwip.a(espconn_udp.o)
                                                  c:/Espressif/ESP8266_SDK/lib\liblwip.a(dns.o)
                                                  c:/Espressif/ESP8266_SDK/lib\liblwip.a(dhcpserver.o)
                                                  c:/Espressif/ESP8266_SDK/lib\liblwip.a(dhcp.o)
udp_remove                                        c:/Espressif/ESP8266_SDK/lib\liblwip.a(udp.o)
                                                  c:/Espressif/ESP8266_SDK/lib\liblwip.a(sntp.o)
                                                  c:/Espressif/ESP8266_SDK/lib\liblwip.a(espconn_udp.o)
                                                  c:/Espressif/ESP8266_SDK/lib\liblwip.a(dhcpserver.o)
                                                  c:/Espressif/ESP8266_SDK/lib\liblwip.a(dhcp.o)
udp_send                                          c:/Espressif/ESP8266_SDK/lib\liblwip.a(udp.o)
                                                  c:/Espressif/ESP8266_SDK/lib\liblwip.a(espconn_udp.o)
udp_sendto                                        c:/Espressif/ESP8266_SDK/lib\liblwip.a(udp.o)
                                                  c:/Espressif/ESP8266_SDK/lib\liblwip.a(sntp.o)
                                                  c:/Espressif/ESP8266_SDK/lib\liblwip.a(espconn_udp.o)
                                                  c:/Espressif/ESP8266_SDK/lib\liblwip.a(dns.o)
                                                  c:/Espressif/ESP8266_SDK/lib\liblwip.a(dhcpserver.o)
udp_sendto_if                                     c:/Espressif/ESP8266_SDK/lib\liblwip.a(udp.o)
                                                  c:/Espressif/ESP8266_SDK/lib\liblwip.a(dhcp.o)
unregister_ieee80211_action_vendor_get_key_cb     c:/Espressif/ESP8266_SDK/lib\libnet80211.a(ieee80211_action_vendor.o)
unregister_ieee80211_action_vendor_spec_cb        c:/Espressif/ESP8266_SDK/lib\libnet80211.a(ieee80211_action_vendor.o)
unregister_ieee80211_rfid_locp_recv_cb            c:/Espressif/ESP8266_SDK/lib\libnet80211.a(ieee80211_rfid.o)
                                                  c:/Espressif/ESP8266_SDK/lib\libmain.a(user_interface.o)
unsign_to_sign                                    c:/Espressif/ESP8266_SDK/lib\libphy.a(phy_chip_v6_cal.o)
unsupported_str                                   c:/Espressif/ESP8266_SDK/lib\libssl.a(ssl_crypto_misc.o)
updateTime                                        c:/Espressif/ESP8266_SDK/lib\libmain.a(time.o)
user_check_sntp_stamp                             build/app_app.a(wifi_connector.o)
user_init                                         build/app_app.a(user_main.o)
                                                  c:/Espressif/ESP8266_SDK/lib\libmain.a(app_main.o)
user_init_flag                                    c:/Espressif/ESP8266_SDK/lib\libmain.a(app_main.o)
                                                  c:/Espressif/ESP8266_SDK/lib\libmain.a(user_interface.o)
user_rf_cal_sector_set                            build/app_app.a(user_main.o)
                                                  c:/Espressif/ESP8266_SDK/lib\libmain.a(app_main.o)
user_rf_pre_init                                  build/app_app.a(user_main.o)
                                                  c:/Espressif/ESP8266_SDK/lib\libmain.a(app_main.o)
user_uart_wait_tx_fifo_empty                      c:/Espressif/ESP8266_SDK/lib\libmain.a(app_main.o)
                                                  c:/Espressif/ESP8266_SDK/lib\libmain.a(user_interface.o)
vPortFree                                         c:/Espressif/ESP8266_SDK/lib\libmain.a(mem_manager.o)
                                                  c:/Espressif/ESP8266_SDK/lib\libcrypto.a(aes-internal-enc.o)
                                                  c:/Espressif/ESP8266_SDK/lib\libssl.a(ssl_rsa.o)
                                                  c:/Espressif/ESP8266_SDK/lib\libssl.a(ssl_bigint.o)
                                                  c:/Espressif/ESP8266_SDK/lib\libssl.a(ssl_asn1.o)
                                                  c:/Espressif/ESP8266_SDK/lib\libssl.a(ssl_x509.o)
                                                  c:/Espressif/ESP8266_SDK/lib\libssl.a(ssl_tls1.o)
                                                  c:/Espressif/ESP8266_SDK/lib\libssl.a(ssl_loader.o)
                                                  c:/Espressif/ESP8266_SDK/lib\libssl.a(espconn_ssl.o)
                                                  c:/Espressif/ESP8266_SDK/lib\libssl.a(espconn_secure.o)
                                                  c:/Espressif/ESP8266_SDK/lib\libwpa.a(wpa_main.o)
                                                  c:/Espressif/ESP8266_SDK/lib\libwpa.a(wpa_auth_ie.o)
                                                  c:/Espressif/ESP8266_SDK/lib\libwpa.a(wpa_auth.o)
                                                  c:/Espressif/ESP8266_SDK/lib\libwpa.a(common.o)
                                                  c:/Espressif/ESP8266_SDK/lib\libwpa.a(ap_config.o)
                                                  c:/Espressif/ESP8266_SDK/lib\liblwip.a(espconn_buf.o)
                                                  c:/Espressif/ESP8266_SDK/lib\liblwip.a(udp.o)
                                                  c:/Espressif/ESP8266_SDK/lib\liblwip.a(timers.o)
                                                  c:/Espressif/ESP8266_SDK/lib\liblwip.a(tcp.o)
                                                  c:/Espressif/ESP8266_SDK/lib\liblwip.a(tcp_in.o)
                                                  c:/Espressif/ESP8266_SDK/lib\liblwip.a(raw.o)
                                                  c:/Espressif/ESP8266_SDK/lib\liblwip.a(pbuf.o)
                                                  c:/Espressif/ESP8266_SDK/lib\liblwip.a(igmp.o)
                                                  c:/Espressif/ESP8266_SDK/lib\liblwip.a(etharp.o)
                                                  c:/Espressif/ESP8266_SDK/lib\liblwip.a(espconn_udp.o)
                                                  c:/Espressif/ESP8266_SDK/lib\liblwip.a(espconn_tcp.o)
                                                  c:/Espressif/ESP8266_SDK/lib\liblwip.a(dns.o)
                                                  c:/Espressif/ESP8266_SDK/lib\liblwip.a(dhcpserver.o)
                                                  c:/Espressif/ESP8266_SDK/lib\liblwip.a(dhcp.o)
                                                  c:/Espressif/ESP8266_SDK/lib\libnet80211.a(wl_cnx.o)
                                                  c:/Espressif/ESP8266_SDK/lib\libnet80211.a(ieee80211_sta.o)
                                                  c:/Espressif/ESP8266_SDK/lib\libnet80211.a(ieee80211_scan.o)
                                                  c:/Espressif/ESP8266_SDK/lib\libnet80211.a(ieee80211_regdomain.o)
                                                  c:/Espressif/ESP8266_SDK/lib\libnet80211.a(ieee80211_phy.o)
                                                  c:/Espressif/ESP8266_SDK/lib\libnet80211.a(ieee80211_output.o)
                                                  c:/Espressif/ESP8266_SDK/lib\libnet80211.a(ieee80211_mesh_quick.o)
                                                  c:/Espressif/ESP8266_SDK/lib\libnet80211.a(ieee80211_hostap.o)
                                                  c:/Espressif/ESP8266_SDK/lib\libnet80211.a(ieee80211.o)
                                                  c:/Espressif/ESP8266_SDK/lib\libpp.a(esf_buf.o)
                                                  c:/Espressif/ESP8266_SDK/lib\libpp.a(wdev.o)
                                                  c:/Espressif/ESP8266_SDK/lib\libpp.a(pp.o)
                                                  c:/Espressif/ESP8266_SDK/lib\libpp.a(pm_for_bcn_only_mode.o)
                                                  c:/Espressif/ESP8266_SDK/lib\libpp.a(pm.o)
                                                  build/app_app.a(cpp_req.o)
                                                  build/app_app.a(uartproto.o)
                                                  build/app_app.a(wifi_connector.o)
                                                  c:/Espressif/ESP8266_SDK/lib\libmain.a(eagle_lwip_if.o)
                                                  c:/Espressif/ESP8266_SDK/lib\libmain.a(user_interface.o)
                                                  c:/Espressif/ESP8266_SDK/lib\libmain.a(app_main.o)
vPortInitialiseBlocks                             c:/Espressif/ESP8266_SDK/lib\libmain.a(mem_manager.o)
wDevCtrl                                          c:/Espressif/ESP8266_SDK/lib\libpp.a(wdev.o)
                                                  c:/Espressif/ESP8266_SDK/lib\libpp.a(esf_buf.o)
                                                  c:/Espressif/ESP8266_SDK/lib\libpp.a(pp.o)
wDevDisableRx                                     c:/Espressif/ESP8266_SDK/lib\libpp.a(wdev.o)
                                                  c:/Espressif/ESP8266_SDK/lib\libnet80211.a(ieee80211_hostap.o)
                                                  c:/Espressif/ESP8266_SDK/lib\libpp.a(if_hwctrl.o)
                                                  c:/Espressif/ESP8266_SDK/lib\libmain.a(user_interface.o)
wDevEnableRx                                      c:/Espressif/ESP8266_SDK/lib\libpp.a(wdev.o)
                                                  c:/Espressif/ESP8266_SDK/lib\libpp.a(if_hwctrl.o)
                                                  c:/Espressif/ESP8266_SDK/lib\libmain.a(user_interface.o)
                                                  c:/Espressif/ESP8266_SDK/lib\libmain.a(app_main.o)
wDevForceAck6M                                    c:/Espressif/ESP8266_SDK/lib\libpp.a(wdev.o)
wDev_AppendRxAmpduLensBlocks                      c:/Espressif/ESP8266_SDK/lib\libpp.a(wdev.o)
wDev_AppendRxBlocks                               c:/Espressif/ESP8266_SDK/lib\libpp.a(wdev.o)
                                                  c:/Espressif/ESP8266_SDK/lib\libpp.a(pp.o)
wDev_ClearBssid                                   c:/Espressif/ESP8266_SDK/lib\libpp.a(wdev.o)
wDev_ClearTxqCollisions                           c:/Espressif/ESP8266_SDK/lib\libpp.a(wdev.o)
                                                  c:/Espressif/ESP8266_SDK/lib\libpp.a(lmac.o)
wDev_ClearWaitingQueue                            c:/Espressif/ESP8266_SDK/lib\libpp.a(wdev.o)
                                                  c:/Espressif/ESP8266_SDK/lib\libpp.a(lmac.o)
wDev_Crypto_Conf                                  c:/Espressif/ESP8266_SDK/lib\libpp.a(wdev.o)
                                                  c:/Espressif/ESP8266_SDK/lib\libpp.a(if_hwctrl.o)
wDev_Crypto_Disable                               c:/Espressif/ESP8266_SDK/lib\libpp.a(wdev.o)
                                                  c:/Espressif/ESP8266_SDK/lib\libpp.a(if_hwctrl.o)
wDev_DisableTransmit                              c:/Espressif/ESP8266_SDK/lib\libpp.a(wdev.o)
wDev_DisableUcRx                                  c:/Espressif/ESP8266_SDK/lib\libpp.a(wdev.o)
                                                  c:/Espressif/ESP8266_SDK/lib\libnet80211.a(ieee80211_sta.o)
                                                  c:/Espressif/ESP8266_SDK/lib\libnet80211.a(ieee80211_hostap.o)
wDev_Disable_Beacon_Tsf                           c:/Espressif/ESP8266_SDK/lib\libpp.a(wdev.o)
wDev_EnableTransmit                               c:/Espressif/ESP8266_SDK/lib\libpp.a(wdev.o)
                                                  c:/Espressif/ESP8266_SDK/lib\libpp.a(lmac.o)
wDev_EnableUcRx                                   c:/Espressif/ESP8266_SDK/lib\libpp.a(wdev.o)
                                                  c:/Espressif/ESP8266_SDK/lib\libnet80211.a(ieee80211_sta.o)
                                                  c:/Espressif/ESP8266_SDK/lib\libnet80211.a(ieee80211_hostap.o)
wDev_Enable_Beacon_Tsf                            c:/Espressif/ESP8266_SDK/lib\libpp.a(wdev.o)
wDev_GetBAInfo                                    c:/Espressif/ESP8266_SDK/lib\libpp.a(wdev.o)
                                                  c:/Espressif/ESP8266_SDK/lib\libpp.a(lmac.o)
wDev_GetTxqCollisions                             c:/Espressif/ESP8266_SDK/lib\libpp.a(wdev.o)
                                                  c:/Espressif/ESP8266_SDK/lib\libpp.a(lmac.o)
wDev_Get_Next_TBTT                                c:/Espressif/ESP8266_SDK/lib\libpp.a(wdev.o)
                                                  c:/Espressif/ESP8266_SDK/lib\libnet80211.a(ieee80211_hostap.o)
wDev_Initialize                                   c:/Espressif/ESP8266_SDK/lib\libpp.a(wdev.o)
                                                  c:/Espressif/ESP8266_SDK/lib\libmain.a(app_main.o)
wDev_Insert_KeyEntry                              c:/Espressif/ESP8266_SDK/lib\libpp.a(wdev.o)
                                                  c:/Espressif/ESP8266_SDK/lib\libpp.a(if_hwctrl.o)
wDev_Is_Mac_Key_Exist                             c:/Espressif/ESP8266_SDK/lib\libpp.a(wdev.o)
wDev_MacTim1Arm                                   c:/Espressif/ESP8266_SDK/lib\libpp.a(wdev.o)
                                                  c:/Espressif/ESP8266_SDK/lib\libpp.a(pp.o)
wDev_MacTim1SetFunc                               c:/Espressif/ESP8266_SDK/lib\libpp.a(wdev.o)
                                                  c:/Espressif/ESP8266_SDK/lib\libpp.a(pp.o)
wDev_Option_Init                                  c:/Espressif/ESP8266_SDK/lib\libpp.a(wdev.o)
wDev_ProcessCollision                             c:/Espressif/ESP8266_SDK/lib\libpp.a(wdev.o)
                                                  c:/Espressif/ESP8266_SDK/lib\libpp.a(lmac.o)
wDev_ProcessFiq                                   c:/Espressif/ESP8266_SDK/lib\libpp.a(wdev.o)
                                                  c:/Espressif/ESP8266_SDK/lib\libmain.a(app_main.o)
wDev_Reset_TBTT                                   c:/Espressif/ESP8266_SDK/lib\libpp.a(wdev.o)
                                                  c:/Espressif/ESP8266_SDK/lib\libnet80211.a(ieee80211_hostap.o)
wDev_SetBssid                                     c:/Espressif/ESP8266_SDK/lib\libpp.a(wdev.o)
wDev_SetFrameAckType                              c:/Espressif/ESP8266_SDK/lib\libpp.a(wdev.o)
                                                  c:/Espressif/ESP8266_SDK/lib\libpp.a(lmac.o)
wDev_SetMacAddress                                c:/Espressif/ESP8266_SDK/lib\libpp.a(wdev.o)
                                                  c:/Espressif/ESP8266_SDK/lib\libpp.a(if_hwctrl.o)
                                                  c:/Espressif/ESP8266_SDK/lib\libmain.a(user_interface.o)
wDev_SetRxPolicy                                  c:/Espressif/ESP8266_SDK/lib\libpp.a(wdev.o)
                                                  c:/Espressif/ESP8266_SDK/lib\libnet80211.a(wl_cnx.o)
                                                  c:/Espressif/ESP8266_SDK/lib\libnet80211.a(ieee80211_scan.o)
                                                  c:/Espressif/ESP8266_SDK/lib\libnet80211.a(ieee80211_hostap.o)
                                                  c:/Espressif/ESP8266_SDK/lib\libpp.a(if_hwctrl.o)
wDev_SetWaitingQueue                              c:/Espressif/ESP8266_SDK/lib\libpp.a(wdev.o)
                                                  c:/Espressif/ESP8266_SDK/lib\libpp.a(lmac.o)
wDev_Set_Beacon_Int                               c:/Espressif/ESP8266_SDK/lib\libpp.a(wdev.o)
                                                  c:/Espressif/ESP8266_SDK/lib\libnet80211.a(ieee80211_hostap.o)
                                                  c:/Espressif/ESP8266_SDK/lib\libmain.a(user_interface.o)
                                                  c:/Espressif/ESP8266_SDK/lib\libmain.a(app_main.o)
wDev_remove_KeyEntry                              c:/Espressif/ESP8266_SDK/lib\libpp.a(wdev.o)
                                                  c:/Espressif/ESP8266_SDK/lib\libwpa.a(wpa_main.o)
                                                  c:/Espressif/ESP8266_SDK/lib\libnet80211.a(wl_cnx.o)
                                                  c:/Espressif/ESP8266_SDK/lib\libpp.a(if_hwctrl.o)
wDev_remove_KeyEntry_all_cnx                      c:/Espressif/ESP8266_SDK/lib\libpp.a(wdev.o)
                                                  c:/Espressif/ESP8266_SDK/lib\libnet80211.a(wl_cnx.o)
                                                  c:/Espressif/ESP8266_SDK/lib\libnet80211.a(ieee80211_hostap.o)
wait_rfpll_cal_end                                c:/Espressif/ESP8266_SDK/lib\libphy.a(phy_chip_v6_ana.o)
                                                  c:/Espressif/ESP8266_SDK/lib\libphy.a(phy_chip_v6.o)
wdev_exit_sniffer                                 c:/Espressif/ESP8266_SDK/lib\libpp.a(wdev.o)
                                                  c:/Espressif/ESP8266_SDK/lib\libmain.a(user_interface.o)
wdev_go_sniffer                                   c:/Espressif/ESP8266_SDK/lib\libpp.a(wdev.o)
                                                  c:/Espressif/ESP8266_SDK/lib\libmain.a(user_interface.o)
wdev_set_sniffer_addr                             c:/Espressif/ESP8266_SDK/lib\libpp.a(wdev.o)
wdt_feed                                          c:/Espressif/ESP8266_SDK/lib\libmain.a(app_main.o)
wdt_init                                          c:/Espressif/ESP8266_SDK/lib\libmain.a(app_main.o)
wep                                               c:/Espressif/ESP8266_SDK/lib\libnet80211.a(ieee80211_crypto_wep.o)
                                                  c:/Espressif/ESP8266_SDK/lib\libwpa.a(wpa_main.o)
                                                  c:/Espressif/ESP8266_SDK/lib\libwpa.a(wpa_auth.o)
wifi_check_regdomain_param                        c:/Espressif/ESP8266_SDK/lib\libmain.a(user_interface.o)
wifi_disable_gpio_wakeup                          c:/Espressif/ESP8266_SDK/lib\libmain.a(user_interface.o)
wifi_enable_6m_rate                               c:/Espressif/ESP8266_SDK/lib\libmain.a(user_interface.o)
wifi_enable_gpio_wakeup                           c:/Espressif/ESP8266_SDK/lib\libmain.a(user_interface.o)
wifi_fpm_auto_sleep_set_in_null_mode              c:/Espressif/ESP8266_SDK/lib\libpp.a(pm_for_bcn_only_mode.o)
wifi_fpm_close                                    c:/Espressif/ESP8266_SDK/lib\libpp.a(pm_for_bcn_only_mode.o)
wifi_fpm_do_sleep                                 c:/Espressif/ESP8266_SDK/lib\libpp.a(pm_for_bcn_only_mode.o)
                                                  c:/Espressif/ESP8266_SDK/lib\libmain.a(user_interface.o)
wifi_fpm_do_wakeup                                c:/Espressif/ESP8266_SDK/lib\libpp.a(pm_for_bcn_only_mode.o)
wifi_fpm_get_sleep_type                           c:/Espressif/ESP8266_SDK/lib\libpp.a(pm_for_bcn_only_mode.o)
wifi_fpm_open                                     c:/Espressif/ESP8266_SDK/lib\libpp.a(pm_for_bcn_only_mode.o)
                                                  c:/Espressif/ESP8266_SDK/lib\libmain.a(user_interface.o)
wifi_fpm_set_sleep_type                           c:/Espressif/ESP8266_SDK/lib\libpp.a(pm_for_bcn_only_mode.o)
                                                  c:/Espressif/ESP8266_SDK/lib\libmain.a(user_interface.o)
wifi_fpm_set_wakeup_cb                            c:/Espressif/ESP8266_SDK/lib\libpp.a(pm_for_bcn_only_mode.o)
wifi_get_broadcast_if                             c:/Espressif/ESP8266_SDK/lib\libmain.a(user_interface.o)
wifi_get_channel                                  c:/Espressif/ESP8266_SDK/lib\libmain.a(user_interface.o)
wifi_get_ip_info                                  c:/Espressif/ESP8266_SDK/lib\libmain.a(user_interface.o)
                                                  c:/Espressif/ESP8266_SDK/lib\libssl.a(espconn_secure.o)
                                                  c:/Espressif/ESP8266_SDK/lib\liblwip.a(espconn_udp.o)
                                                  c:/Espressif/ESP8266_SDK/lib\liblwip.a(espconn.o)
                                                  c:/Espressif/ESP8266_SDK/lib\liblwip.a(dhcpserver.o)
                                                  build/app_app.a(wifi_connector.o)
wifi_get_macaddr                                  c:/Espressif/ESP8266_SDK/lib\libmain.a(user_interface.o)
                                                  c:/Espressif/ESP8266_SDK/lib\libnet80211.a(ieee80211_output.o)
                                                  c:/Espressif/ESP8266_SDK/lib\libnet80211.a(ieee80211_hostap.o)
                                                  build/app_app.a(wifi_connector.o)
wifi_get_opmode                                   c:/Espressif/ESP8266_SDK/lib\libmain.a(user_interface.o)
                                                  c:/Espressif/ESP8266_SDK/lib\libssl.a(espconn_secure.o)
                                                  c:/Espressif/ESP8266_SDK/lib\liblwip.a(espconn_udp.o)
                                                  c:/Espressif/ESP8266_SDK/lib\liblwip.a(espconn.o)
                                                  c:/Espressif/ESP8266_SDK/lib\liblwip.a(dhcpserver.o)
                                                  c:/Espressif/ESP8266_SDK/lib\libnet80211.a(ieee80211_action_vendor.o)
                                                  c:/Espressif/ESP8266_SDK/lib\libnet80211.a(wl_cnx.o)
                                                  c:/Espressif/ESP8266_SDK/lib\libnet80211.a(ieee80211_scan.o)
                                                  c:/Espressif/ESP8266_SDK/lib\libnet80211.a(ieee80211_hostap.o)
                                                  c:/Espressif/ESP8266_SDK/lib\libpp.a(pm_for_bcn_only_mode.o)
                                                  build/app_app.a(wifi_connector.o)
wifi_get_opmode_default                           c:/Espressif/ESP8266_SDK/lib\libmain.a(user_interface.o)
wifi_get_phy_mode                                 c:/Espressif/ESP8266_SDK/lib\libmain.a(user_interface.o)
                                                  build/app_app.a(wifi_connector.o)
wifi_get_regdomain                                c:/Espressif/ESP8266_SDK/lib\libmain.a(user_interface.o)
wifi_get_sleep_type                               c:/Espressif/ESP8266_SDK/lib\libmain.a(user_interface.o)
wifi_get_user_fixed_rate                          c:/Espressif/ESP8266_SDK/lib\libmain.a(user_interface.o)
wifi_get_user_ie                                  c:/Espressif/ESP8266_SDK/lib\libmain.a(user_interface.o)
wifi_get_user_limit_rate_mask                     c:/Espressif/ESP8266_SDK/lib\libmain.a(user_interface.o)
wifi_handle_event_cb                              build/app_app.a(wifi_connector.o)
wifi_mode_set                                     c:/Espressif/ESP8266_SDK/lib\libnet80211.a(ieee80211.o)
                                                  c:/Espressif/ESP8266_SDK/lib\libmain.a(user_interface.o)
                                                  c:/Espressif/ESP8266_SDK/lib\libmain.a(app_main.o)
wifi_param_save_protect_with_check                c:/Espressif/ESP8266_SDK/lib\libmain.a(user_interface.o)
                                                  c:/Espressif/ESP8266_SDK/lib\libmain.a(app_main.o)
wifi_promiscuous_enable                           c:/Espressif/ESP8266_SDK/lib\libmain.a(user_interface.o)
wifi_promiscuous_set_mac                          c:/Espressif/ESP8266_SDK/lib\libmain.a(user_interface.o)
wifi_regdomain_need_update                        c:/Espressif/ESP8266_SDK/lib\libmain.a(user_interface.o)
wifi_register_rfid_locp_recv_cb                   c:/Espressif/ESP8266_SDK/lib\libmain.a(user_interface.o)
wifi_register_send_pkt_freedom_cb                 c:/Espressif/ESP8266_SDK/lib\libmain.a(user_interface.o)
wifi_register_user_ie_manufacturer_recv_cb        c:/Espressif/ESP8266_SDK/lib\libmain.a(user_interface.o)
wifi_rfid_locp_recv_close                         c:/Espressif/ESP8266_SDK/lib\libmain.a(user_interface.o)
wifi_rfid_locp_recv_open                          c:/Espressif/ESP8266_SDK/lib\libmain.a(user_interface.o)
wifi_send_pkt_freedom                             c:/Espressif/ESP8266_SDK/lib\libmain.a(user_interface.o)
wifi_set_broadcast_if                             c:/Espressif/ESP8266_SDK/lib\libmain.a(user_interface.o)
                                                  build/app_app.a(wifi_connector.o)
wifi_set_channel                                  c:/Espressif/ESP8266_SDK/lib\libmain.a(user_interface.o)
wifi_set_event_handler_cb                         c:/Espressif/ESP8266_SDK/lib\libmain.a(user_interface.o)
                                                  build/app_app.a(wifi_connector.o)
wifi_set_ip_info                                  c:/Espressif/ESP8266_SDK/lib\libmain.a(user_interface.o)
                                                  build/app_app.a(wifi_connector.o)
wifi_set_macaddr                                  c:/Espressif/ESP8266_SDK/lib\libmain.a(user_interface.o)
wifi_set_opmode                                   c:/Espressif/ESP8266_SDK/lib\libmain.a(user_interface.o)
                                                  build/app_app.a(wifi_connector.o)
wifi_set_opmode_current                           c:/Espressif/ESP8266_SDK/lib\libmain.a(user_interface.o)
wifi_set_phy_mode                                 c:/Espressif/ESP8266_SDK/lib\libmain.a(user_interface.o)
                                                  build/app_app.a(wifi_connector.o)
wifi_set_promiscuous_rx_cb                        c:/Espressif/ESP8266_SDK/lib\libmain.a(user_interface.o)
wifi_set_regdomain                                c:/Espressif/ESP8266_SDK/lib\libmain.a(user_interface.o)
wifi_set_sleep_type                               c:/Espressif/ESP8266_SDK/lib\libmain.a(user_interface.o)
wifi_set_status_led_output_level                  c:/Espressif/ESP8266_SDK/lib\libmain.a(user_interface.o)
wifi_set_user_fixed_rate                          c:/Espressif/ESP8266_SDK/lib\libmain.a(user_interface.o)
wifi_set_user_ie                                  c:/Espressif/ESP8266_SDK/lib\libmain.a(user_interface.o)
wifi_set_user_limit_rate_mask                     c:/Espressif/ESP8266_SDK/lib\libmain.a(user_interface.o)
wifi_set_user_rate_limit                          c:/Espressif/ESP8266_SDK/lib\libmain.a(user_interface.o)
wifi_set_user_sup_rate                            c:/Espressif/ESP8266_SDK/lib\libmain.a(user_interface.o)
wifi_softap_cacl_mac                              c:/Espressif/ESP8266_SDK/lib\libmain.a(user_interface.o)
                                                  c:/Espressif/ESP8266_SDK/lib\libmain.a(app_main.o)
wifi_softap_deauth                                c:/Espressif/ESP8266_SDK/lib\libmain.a(user_interface.o)
                                                  c:/Espressif/ESP8266_SDK/lib\libnet80211.a(ieee80211_scan.o)
wifi_softap_dhcps_client_leave                    c:/Espressif/ESP8266_SDK/lib\liblwip.a(dhcpserver.o)
wifi_softap_dhcps_client_update                   c:/Espressif/ESP8266_SDK/lib\liblwip.a(dhcpserver.o)
wifi_softap_dhcps_start                           c:/Espressif/ESP8266_SDK/lib\libmain.a(user_interface.o)
                                                  build/app_app.a(wifi_connector.o)
wifi_softap_dhcps_status                          c:/Espressif/ESP8266_SDK/lib\libmain.a(user_interface.o)
                                                  c:/Espressif/ESP8266_SDK/lib\liblwip.a(dhcpserver.o)
wifi_softap_dhcps_stop                            c:/Espressif/ESP8266_SDK/lib\libmain.a(user_interface.o)
                                                  build/app_app.a(wifi_connector.o)
wifi_softap_free_station_info                     c:/Espressif/ESP8266_SDK/lib\libmain.a(user_interface.o)
wifi_softap_get_beacon_only_mode                  c:/Espressif/ESP8266_SDK/lib\libmain.a(user_interface.o)
wifi_softap_get_config                            c:/Espressif/ESP8266_SDK/lib\libmain.a(user_interface.o)
                                                  build/app_app.a(wifi_connector.o)
wifi_softap_get_config_default                    c:/Espressif/ESP8266_SDK/lib\libmain.a(user_interface.o)
wifi_softap_get_dhcps_lease                       c:/Espressif/ESP8266_SDK/lib\liblwip.a(dhcpserver.o)
wifi_softap_get_dhcps_lease_time                  c:/Espressif/ESP8266_SDK/lib\liblwip.a(dhcpserver.o)
wifi_softap_get_station_info                      c:/Espressif/ESP8266_SDK/lib\libmain.a(user_interface.o)
wifi_softap_get_station_num                       c:/Espressif/ESP8266_SDK/lib\libmain.a(user_interface.o)
wifi_softap_reset_dhcps_lease_time                c:/Espressif/ESP8266_SDK/lib\liblwip.a(dhcpserver.o)
wifi_softap_set_beacon_only_mode                  c:/Espressif/ESP8266_SDK/lib\libmain.a(user_interface.o)
wifi_softap_set_config                            c:/Espressif/ESP8266_SDK/lib\libmain.a(user_interface.o)
                                                  build/app_app.a(wifi_connector.o)
wifi_softap_set_config_current                    c:/Espressif/ESP8266_SDK/lib\libmain.a(user_interface.o)
wifi_softap_set_default_ssid                      c:/Espressif/ESP8266_SDK/lib\libmain.a(user_interface.o)
                                                  c:/Espressif/ESP8266_SDK/lib\libmain.a(app_main.o)
wifi_softap_set_dhcps_lease                       c:/Espressif/ESP8266_SDK/lib\liblwip.a(dhcpserver.o)
wifi_softap_set_dhcps_lease_time                  c:/Espressif/ESP8266_SDK/lib\liblwip.a(dhcpserver.o)
wifi_softap_set_dhcps_offer_option                c:/Espressif/ESP8266_SDK/lib\liblwip.a(dhcpserver.o)
wifi_softap_set_station_info                      c:/Espressif/ESP8266_SDK/lib\libmain.a(user_interface.o)
                                                  c:/Espressif/ESP8266_SDK/lib\liblwip.a(dhcpserver.o)
wifi_softap_staconnected_event_policy             c:/Espressif/ESP8266_SDK/lib\libnet80211.a(wl_cnx.o)
wifi_softap_start                                 c:/Espressif/ESP8266_SDK/lib\libnet80211.a(ieee80211_hostap.o)
                                                  c:/Espressif/ESP8266_SDK/lib\libmain.a(user_interface.o)
                                                  c:/Espressif/ESP8266_SDK/lib\libmain.a(app_main.o)
wifi_softap_stop                                  c:/Espressif/ESP8266_SDK/lib\libnet80211.a(ieee80211_hostap.o)
                                                  c:/Espressif/ESP8266_SDK/lib\libmain.a(user_interface.o)
wifi_softap_toomany_deny                          c:/Espressif/ESP8266_SDK/lib\libnet80211.a(wl_cnx.o)
wifi_station_ap_change                            c:/Espressif/ESP8266_SDK/lib\libmain.a(user_interface.o)
wifi_station_ap_check                             c:/Espressif/ESP8266_SDK/lib\libmain.a(user_interface.o)
wifi_station_ap_number_set                        c:/Espressif/ESP8266_SDK/lib\libmain.a(user_interface.o)
wifi_station_connect                              c:/Espressif/ESP8266_SDK/lib\libmain.a(user_interface.o)
                                                  build/app_app.a(wifi_connector.o)
                                                  c:/Espressif/ESP8266_SDK/lib\libmain.a(app_main.o)
wifi_station_dhcpc_event                          c:/Espressif/ESP8266_SDK/lib\libmain.a(user_interface.o)
                                                  c:/Espressif/ESP8266_SDK/lib\libmain.a(eagle_lwip_if.o)
wifi_station_dhcpc_set_maxtry                     c:/Espressif/ESP8266_SDK/lib\libmain.a(user_interface.o)
wifi_station_dhcpc_start                          c:/Espressif/ESP8266_SDK/lib\libmain.a(user_interface.o)
                                                  build/app_app.a(wifi_connector.o)
wifi_station_dhcpc_status                         c:/Espressif/ESP8266_SDK/lib\libmain.a(user_interface.o)
                                                  c:/Espressif/ESP8266_SDK/lib\libmain.a(eagle_lwip_if.o)
wifi_station_dhcpc_stop                           c:/Espressif/ESP8266_SDK/lib\libmain.a(user_interface.o)
                                                  build/app_app.a(wifi_connector.o)
wifi_station_disconnect                           c:/Espressif/ESP8266_SDK/lib\libmain.a(user_interface.o)
                                                  c:/Espressif/ESP8266_SDK/lib\libnet80211.a(ieee80211_sta.o)
                                                  c:/Espressif/ESP8266_SDK/lib\libnet80211.a(ieee80211_scan.o)
                                                  build/app_app.a(wifi_connector.o)
wifi_station_get_ap_info                          c:/Espressif/ESP8266_SDK/lib\libmain.a(user_interface.o)
wifi_station_get_auto_connect                     c:/Espressif/ESP8266_SDK/lib\libmain.a(user_interface.o)
                                                  c:/Espressif/ESP8266_SDK/lib\libmain.a(app_main.o)
wifi_station_get_config                           c:/Espressif/ESP8266_SDK/lib\libmain.a(user_interface.o)
                                                  c:/Espressif/ESP8266_SDK/lib\libnet80211.a(wl_cnx.o)
                                                  build/app_app.a(wifi_connector.o)
wifi_station_get_config_default                   c:/Espressif/ESP8266_SDK/lib\libmain.a(user_interface.o)
wifi_station_get_connect_status                   c:/Espressif/ESP8266_SDK/lib\libmain.a(user_interface.o)
                                                  c:/Espressif/ESP8266_SDK/lib\libssl.a(espconn_secure.o)
                                                  c:/Espressif/ESP8266_SDK/lib\liblwip.a(espconn.o)
wifi_station_get_current_ap_id                    c:/Espressif/ESP8266_SDK/lib\libmain.a(user_interface.o)
wifi_station_get_hostname                         c:/Espressif/ESP8266_SDK/lib\libmain.a(user_interface.o)
wifi_station_get_reconnect_policy                 c:/Espressif/ESP8266_SDK/lib\libmain.a(user_interface.o)
                                                  c:/Espressif/ESP8266_SDK/lib\libnet80211.a(wl_cnx.o)
                                                  c:/Espressif/ESP8266_SDK/lib\libnet80211.a(ieee80211_sta.o)
                                                  c:/Espressif/ESP8266_SDK/lib\libnet80211.a(ieee80211_scan.o)
wifi_station_get_rssi                             c:/Espressif/ESP8266_SDK/lib\libmain.a(user_interface.o)
wifi_station_restore_config                       c:/Espressif/ESP8266_SDK/lib\libmain.a(user_interface.o)
wifi_station_save_bssid                           c:/Espressif/ESP8266_SDK/lib\libmain.a(user_interface.o)
                                                  c:/Espressif/ESP8266_SDK/lib\libwpa.a(wpa_main.o)
wifi_station_save_pmk2cache                       c:/Espressif/ESP8266_SDK/lib\libmain.a(user_interface.o)
                                                  c:/Espressif/ESP8266_SDK/lib\libwpa.a(wpa.o)
wifi_station_scan                                 c:/Espressif/ESP8266_SDK/lib\libmain.a(user_interface.o)
wifi_station_set_auto_connect                     c:/Espressif/ESP8266_SDK/lib\libmain.a(user_interface.o)
                                                  build/app_app.a(wifi_connector.o)
wifi_station_set_config                           c:/Espressif/ESP8266_SDK/lib\libmain.a(user_interface.o)
                                                  build/app_app.a(wifi_connector.o)
wifi_station_set_config_current                   c:/Espressif/ESP8266_SDK/lib\libmain.a(user_interface.o)
                                                  c:/Espressif/ESP8266_SDK/lib\libnet80211.a(wl_cnx.o)
wifi_station_set_default_hostname                 c:/Espressif/ESP8266_SDK/lib\libmain.a(user_interface.o)
                                                  c:/Espressif/ESP8266_SDK/lib\libmain.a(eagle_lwip_if.o)
                                                  c:/Espressif/ESP8266_SDK/lib\libmain.a(app_main.o)
wifi_station_set_hostname                         c:/Espressif/ESP8266_SDK/lib\libmain.a(user_interface.o)
wifi_station_set_reconnect_policy                 c:/Espressif/ESP8266_SDK/lib\libmain.a(user_interface.o)
wifi_station_start                                c:/Espressif/ESP8266_SDK/lib\libnet80211.a(ieee80211_sta.o)
                                                  c:/Espressif/ESP8266_SDK/lib\libmain.a(user_interface.o)
                                                  c:/Espressif/ESP8266_SDK/lib\libmain.a(app_main.o)
wifi_station_stop                                 c:/Espressif/ESP8266_SDK/lib\libnet80211.a(ieee80211_sta.o)
                                                  c:/Espressif/ESP8266_SDK/lib\libmain.a(user_interface.o)
wifi_status_led_install                           c:/Espressif/ESP8266_SDK/lib\libmain.a(user_interface.o)
wifi_status_led_uninstall                         c:/Espressif/ESP8266_SDK/lib\libmain.a(user_interface.o)
wifi_unregister_rfid_locp_recv_cb                 c:/Espressif/ESP8266_SDK/lib\libmain.a(user_interface.o)
wifi_unregister_send_pkt_freedom_cb               c:/Espressif/ESP8266_SDK/lib\libmain.a(user_interface.o)
wifi_unregister_user_ie_manufacturer_recv_cb      c:/Espressif/ESP8266_SDK/lib\libmain.a(user_interface.o)
wpa_add_kde                                       c:/Espressif/ESP8266_SDK/lib\libwpa.a(wpa_auth_ie.o)
                                                  c:/Espressif/ESP8266_SDK/lib\libwpa.a(wpa_auth.o)
wpa_attach                                        c:/Espressif/ESP8266_SDK/lib\libwpa.a(wpa_main.o)
                                                  c:/Espressif/ESP8266_SDK/lib\libnet80211.a(ieee80211_sta.o)
wpa_auth_for_each_sta                             c:/Espressif/ESP8266_SDK/lib\libwpa.a(wpa_auth.o)
wpa_auth_gen_wpa_ie                               c:/Espressif/ESP8266_SDK/lib\libwpa.a(wpa_auth_ie.o)
                                                  c:/Espressif/ESP8266_SDK/lib\libwpa.a(wpa_auth.o)
wpa_auth_sm_event                                 c:/Espressif/ESP8266_SDK/lib\libwpa.a(wpa_auth.o)
wpa_auth_sta_associated                           c:/Espressif/ESP8266_SDK/lib\libwpa.a(wpa_auth.o)
                                                  c:/Espressif/ESP8266_SDK/lib\libnet80211.a(wl_cnx.o)
wpa_auth_sta_deinit                               c:/Espressif/ESP8266_SDK/lib\libwpa.a(wpa_auth.o)
                                                  c:/Espressif/ESP8266_SDK/lib\libnet80211.a(wl_cnx.o)
wpa_auth_sta_init                                 c:/Espressif/ESP8266_SDK/lib\libwpa.a(wpa_auth.o)
                                                  c:/Espressif/ESP8266_SDK/lib\libnet80211.a(wl_cnx.o)
wpa_auth_sta_no_wpa                               c:/Espressif/ESP8266_SDK/lib\libwpa.a(wpa_auth.o)
wpa_auth_uses_mfp                                 c:/Espressif/ESP8266_SDK/lib\libwpa.a(wpa_auth_ie.o)
wpa_cipher_key_len                                c:/Espressif/ESP8266_SDK/lib\libwpa.a(wpa_common.o)
                                                  c:/Espressif/ESP8266_SDK/lib\libwpa.a(wpa_auth.o)
wpa_cipher_put_suites                             c:/Espressif/ESP8266_SDK/lib\libwpa.a(wpa_common.o)
                                                  c:/Espressif/ESP8266_SDK/lib\libwpa.a(wpa_auth_ie.o)
wpa_cipher_to_alg                                 c:/Espressif/ESP8266_SDK/lib\libwpa.a(wpa_common.o)
                                                  c:/Espressif/ESP8266_SDK/lib\libwpa.a(wpa_auth.o)
wpa_cipher_to_suite                               c:/Espressif/ESP8266_SDK/lib\libwpa.a(wpa_common.o)
                                                  c:/Espressif/ESP8266_SDK/lib\libwpa.a(wpa_auth_ie.o)
wpa_compare_rsn_ie                                c:/Espressif/ESP8266_SDK/lib\libwpa.a(wpa_common.o)
                                                  c:/Espressif/ESP8266_SDK/lib\libwpa.a(wpa.o)
                                                  c:/Espressif/ESP8266_SDK/lib\libwpa.a(wpa_auth.o)
wpa_config_assoc_ie                               c:/Espressif/ESP8266_SDK/lib\libwpa.a(wpa_main.o)
wpa_config_bss                                    c:/Espressif/ESP8266_SDK/lib\libwpa.a(wpa_main.o)
                                                  c:/Espressif/ESP8266_SDK/lib\libnet80211.a(wl_cnx.o)
                                                  c:/Espressif/ESP8266_SDK/lib\libnet80211.a(ieee80211_sta.o)
wpa_config_parse_string                           c:/Espressif/ESP8266_SDK/lib\libwpa.a(common.o)
                                                  c:/Espressif/ESP8266_SDK/lib\libnet80211.a(ieee80211_scan.o)
wpa_config_profile                                c:/Espressif/ESP8266_SDK/lib\libwpa.a(wpa_main.o)
                                                  c:/Espressif/ESP8266_SDK/lib\libnet80211.a(wl_cnx.o)
wpa_eapol_key_mic                                 c:/Espressif/ESP8266_SDK/lib\libwpa.a(wpa_common.o)
                                                  c:/Espressif/ESP8266_SDK/lib\libwpa.a(wpa.o)
                                                  c:/Espressif/ESP8266_SDK/lib\libwpa.a(wpa_auth.o)
wpa_gen_wpa_ie                                    c:/Espressif/ESP8266_SDK/lib\libwpa.a(wpa_ie.o)
                                                  c:/Espressif/ESP8266_SDK/lib\libwpa.a(wpa.o)
wpa_get_ntp_timestamp                             c:/Espressif/ESP8266_SDK/lib\libwpa.a(common.o)
                                                  c:/Espressif/ESP8266_SDK/lib\libwpa.a(wpa_auth.o)
wpa_init                                          c:/Espressif/ESP8266_SDK/lib\libwpa.a(wpa_auth.o)
                                                  c:/Espressif/ESP8266_SDK/lib\libnet80211.a(ieee80211_hostap.o)
wpa_neg_complete                                  c:/Espressif/ESP8266_SDK/lib\libwpa.a(wpa_main.o)
wpa_parse_kde_ies                                 c:/Espressif/ESP8266_SDK/lib\libwpa.a(wpa_auth_ie.o)
                                                  c:/Espressif/ESP8266_SDK/lib\libwpa.a(wpa_auth.o)
wpa_parse_wpa_ie                                  c:/Espressif/ESP8266_SDK/lib\libwpa.a(wpa_ie.o)
                                                  c:/Espressif/ESP8266_SDK/lib\libnet80211.a(ieee80211_scan.o)
wpa_parse_wpa_ie_rsn                              c:/Espressif/ESP8266_SDK/lib\libwpa.a(wpa_common.o)
                                                  c:/Espressif/ESP8266_SDK/lib\libwpa.a(wpa_ie.o)
                                                  c:/Espressif/ESP8266_SDK/lib\libwpa.a(wpa_auth_ie.o)
wpa_parse_wpa_ie_wpa                              c:/Espressif/ESP8266_SDK/lib\libwpa.a(wpa_common.o)
                                                  c:/Espressif/ESP8266_SDK/lib\libwpa.a(wpa_ie.o)
                                                  c:/Espressif/ESP8266_SDK/lib\libwpa.a(wpa_auth_ie.o)
wpa_pmk_to_ptk                                    c:/Espressif/ESP8266_SDK/lib\libwpa.a(wpa_common.o)
                                                  c:/Espressif/ESP8266_SDK/lib\libwpa.a(wpa.o)
                                                  c:/Espressif/ESP8266_SDK/lib\libwpa.a(wpa_auth.o)
wpa_receive                                       c:/Espressif/ESP8266_SDK/lib\libwpa.a(wpa_auth.o)
                                                  c:/Espressif/ESP8266_SDK/lib\libnet80211.a(ieee80211_hostap.o)
wpa_register                                      c:/Espressif/ESP8266_SDK/lib\libwpa.a(wpa.o)
                                                  c:/Espressif/ESP8266_SDK/lib\libwpa.a(wpa_main.o)
wpa_remove_ptk                                    c:/Espressif/ESP8266_SDK/lib\libwpa.a(wpa_auth.o)
wpa_set_bss                                       c:/Espressif/ESP8266_SDK/lib\libwpa.a(wpa.o)
                                                  c:/Espressif/ESP8266_SDK/lib\libwpa.a(wpa_main.o)
wpa_set_pmk                                       c:/Espressif/ESP8266_SDK/lib\libwpa.a(wpa.o)
wpa_set_profile                                   c:/Espressif/ESP8266_SDK/lib\libwpa.a(wpa.o)
                                                  c:/Espressif/ESP8266_SDK/lib\libwpa.a(wpa_main.o)
wpa_sm_alloc_eapol                                c:/Espressif/ESP8266_SDK/lib\libwpa.a(wpas_glue.o)
                                                  c:/Espressif/ESP8266_SDK/lib\libwpa.a(wpa.o)
wpa_sm_deauthenticate                             c:/Espressif/ESP8266_SDK/lib\libwpa.a(wpas_glue.o)
                                                  c:/Espressif/ESP8266_SDK/lib\libwpa.a(wpa.o)
wpa_sm_disassociate                               c:/Espressif/ESP8266_SDK/lib\libwpa.a(wpas_glue.o)
                                                  c:/Espressif/ESP8266_SDK/lib\libwpa.a(wpa.o)
wpa_sm_get_beacon_ie                              c:/Espressif/ESP8266_SDK/lib\libwpa.a(wpas_glue.o)
                                                  c:/Espressif/ESP8266_SDK/lib\libwpa.a(wpa.o)
wpa_sm_mlme_setprotection                         c:/Espressif/ESP8266_SDK/lib\libwpa.a(wpas_glue.o)
                                                  c:/Espressif/ESP8266_SDK/lib\libwpa.a(wpa.o)
wpa_sm_rx_eapol                                   c:/Espressif/ESP8266_SDK/lib\libwpa.a(wpa.o)
                                                  c:/Espressif/ESP8266_SDK/lib\libnet80211.a(ieee80211_sta.o)
wpa_sm_set_state                                  c:/Espressif/ESP8266_SDK/lib\libwpa.a(wpa.o)
wpa_snprintf_hex                                  c:/Espressif/ESP8266_SDK/lib\libwpa.a(wpa_debug.o)
wpa_snprintf_hex_uppercase                        c:/Espressif/ESP8266_SDK/lib\libwpa.a(wpa_debug.o)
wpa_supplicant_parse_ies                          c:/Espressif/ESP8266_SDK/lib\libwpa.a(wpa_ie.o)
                                                  c:/Espressif/ESP8266_SDK/lib\libwpa.a(wpa.o)
wpa_validate_wpa_ie                               c:/Espressif/ESP8266_SDK/lib\libwpa.a(wpa_auth_ie.o)
                                                  c:/Espressif/ESP8266_SDK/lib\libnet80211.a(wl_cnx.o)
wpa_write_rsn_ie                                  c:/Espressif/ESP8266_SDK/lib\libwpa.a(wpa_auth_ie.o)
write_data_to_rtc                                 c:/Espressif/ESP8266_SDK/lib\libphy.a(phy_chip_v6.o)
                                                  c:/Espressif/ESP8266_SDK/lib\libmain.a(app_main.o)
x509_display_error                                c:/Espressif/ESP8266_SDK/lib\libssl.a(ssl_x509.o)
                                                  c:/Espressif/ESP8266_SDK/lib\libssl.a(ssl_tls1.o)
x509_free                                         c:/Espressif/ESP8266_SDK/lib\libssl.a(ssl_x509.o)
                                                  c:/Espressif/ESP8266_SDK/lib\libssl.a(ssl_asn1.o)
                                                  c:/Espressif/ESP8266_SDK/lib\libssl.a(ssl_tls1.o)
                                                  c:/Espressif/ESP8266_SDK/lib\libssl.a(espconn_ssl.o)
x509_new                                          c:/Espressif/ESP8266_SDK/lib\libssl.a(ssl_x509.o)
                                                  c:/Espressif/ESP8266_SDK/lib\libssl.a(ssl_tls1.o)
x509_print                                        c:/Espressif/ESP8266_SDK/lib\libssl.a(ssl_x509.o)
                                                  c:/Espressif/ESP8266_SDK/lib\libssl.a(ssl_tls1.o)
x509_verify                                       c:/Espressif/ESP8266_SDK/lib\libssl.a(ssl_x509.o)
                                                  c:/Espressif/ESP8266_SDK/lib\libssl.a(ssl_tls1_svr.o)
                                                  c:/Espressif/ESP8266_SDK/lib\libssl.a(ssl_tls1.o)
xPortGetFreeHeapSize                              c:/Espressif/ESP8266_SDK/lib\libmain.a(mem_manager.o)
                                                  c:/Espressif/ESP8266_SDK/lib\libmain.a(user_interface.o)
xPortWantedSizeAlign                              c:/Espressif/ESP8266_SDK/lib\libmain.a(mem_manager.o)
                                                  c:/Espressif/ESP8266_SDK/lib\libmain.a(user_interface.o)
xthal_set_intclear                                c:/espressif/xtensa-lx106-elf/bin/../lib/gcc/xtensa-lx106-elf/5.2.0/../../../../xtensa-lx106-elf/lib\libhal.a(int_asm--set_intclear.o)
                                                  c:/Espressif/ESP8266_SDK/lib\libmain.a(app_main.o)
